
stm32u5-first-steps.elf:     file format elf32-littlearm

Sections:
Idx Name          Size      VMA       LMA       File off  Algn
  0 .isr_vector   00000238  08000000  08000000  00001000  2**0
                  CONTENTS, ALLOC, LOAD, READONLY, DATA
  1 .text         00001f00  08000238  08000238  00001238  2**3
                  CONTENTS, ALLOC, LOAD, READONLY, CODE
  2 .rodata       000000d0  08002138  08002138  00003138  2**2
                  CONTENTS, ALLOC, LOAD, READONLY, DATA
  3 .init_array   00000004  08002208  08002208  00003208  2**2
                  CONTENTS, ALLOC, LOAD, READONLY, DATA
  4 .fini_array   00000004  0800220c  0800220c  0000320c  2**2
                  CONTENTS, ALLOC, LOAD, READONLY, DATA
  5 .data         0000000c  20000000  08002210  00004000  2**2
                  CONTENTS, ALLOC, LOAD, DATA
  6 .bss          0000006c  2000000c  0800221c  0000400c  2**2
                  ALLOC
  7 ._user_heap_stack 00000600  20000078  0800221c  00004078  2**0
                  ALLOC
  8 .ARM.attributes 00000036  00000000  00000000  0000400c  2**0
                  CONTENTS, READONLY
  9 .comment      00000026  00000000  00000000  00004042  2**0
                  CONTENTS, READONLY
 10 .debug_info   00000240  00000000  00000000  00004068  2**0
                  CONTENTS, READONLY, DEBUGGING, OCTETS
 11 .debug_abbrev 00000180  00000000  00000000  000042a8  2**0
                  CONTENTS, READONLY, DEBUGGING, OCTETS
 12 .debug_loclists 00000227  00000000  00000000  00004428  2**0
                  CONTENTS, READONLY, DEBUGGING, OCTETS
 13 .debug_aranges 00000040  00000000  00000000  0000464f  2**0
                  CONTENTS, READONLY, DEBUGGING, OCTETS
 14 .debug_line   000002df  00000000  00000000  0000468f  2**0
                  CONTENTS, READONLY, DEBUGGING, OCTETS
 15 .debug_str    00000212  00000000  00000000  0000496e  2**0
                  CONTENTS, READONLY, DEBUGGING, OCTETS
 16 .debug_frame  00000058  00000000  00000000  00004b80  2**2
                  CONTENTS, READONLY, DEBUGGING, OCTETS

Disassembly of section .text:

08000238 <deregister_tm_clones>:
 8000238:	4803      	ldr	r0, [pc, #12]	@ (8000248 <deregister_tm_clones+0x10>)
 800023a:	4b04      	ldr	r3, [pc, #16]	@ (800024c <deregister_tm_clones+0x14>)
 800023c:	4283      	cmp	r3, r0
 800023e:	d002      	beq.n	8000246 <deregister_tm_clones+0xe>
 8000240:	4b03      	ldr	r3, [pc, #12]	@ (8000250 <deregister_tm_clones+0x18>)
 8000242:	b103      	cbz	r3, 8000246 <deregister_tm_clones+0xe>
 8000244:	4718      	bx	r3
 8000246:	4770      	bx	lr
 8000248:	2000000c 	.word	0x2000000c
 800024c:	2000000c 	.word	0x2000000c
 8000250:	00000000 	.word	0x00000000

08000254 <register_tm_clones>:
 8000254:	4b06      	ldr	r3, [pc, #24]	@ (8000270 <register_tm_clones+0x1c>)
 8000256:	4907      	ldr	r1, [pc, #28]	@ (8000274 <register_tm_clones+0x20>)
 8000258:	1ac9      	subs	r1, r1, r3
 800025a:	1089      	asrs	r1, r1, #2
 800025c:	bf48      	it	mi
 800025e:	3101      	addmi	r1, #1
 8000260:	1049      	asrs	r1, r1, #1
 8000262:	d003      	beq.n	800026c <register_tm_clones+0x18>
 8000264:	4b04      	ldr	r3, [pc, #16]	@ (8000278 <register_tm_clones+0x24>)
 8000266:	b10b      	cbz	r3, 800026c <register_tm_clones+0x18>
 8000268:	4801      	ldr	r0, [pc, #4]	@ (8000270 <register_tm_clones+0x1c>)
 800026a:	4718      	bx	r3
 800026c:	4770      	bx	lr
 800026e:	bf00      	nop
 8000270:	2000000c 	.word	0x2000000c
 8000274:	2000000c 	.word	0x2000000c
 8000278:	00000000 	.word	0x00000000

0800027c <__do_global_dtors_aux>:
 800027c:	b510      	push	{r4, lr}
 800027e:	4c06      	ldr	r4, [pc, #24]	@ (8000298 <__do_global_dtors_aux+0x1c>)
 8000280:	7823      	ldrb	r3, [r4, #0]
 8000282:	b943      	cbnz	r3, 8000296 <__do_global_dtors_aux+0x1a>
 8000284:	f7ff ffd8 	bl	8000238 <deregister_tm_clones>
 8000288:	4b04      	ldr	r3, [pc, #16]	@ (800029c <__do_global_dtors_aux+0x20>)
 800028a:	b113      	cbz	r3, 8000292 <__do_global_dtors_aux+0x16>
 800028c:	4804      	ldr	r0, [pc, #16]	@ (80002a0 <__do_global_dtors_aux+0x24>)
 800028e:	f3af 8000 	nop.w
 8000292:	2301      	movs	r3, #1
 8000294:	7023      	strb	r3, [r4, #0]
 8000296:	bd10      	pop	{r4, pc}
 8000298:	2000000c 	.word	0x2000000c
 800029c:	00000000 	.word	0x00000000
 80002a0:	08002120 	.word	0x08002120

080002a4 <frame_dummy>:
 80002a4:	b508      	push	{r3, lr}
 80002a6:	4b04      	ldr	r3, [pc, #16]	@ (80002b8 <frame_dummy+0x14>)
 80002a8:	b11b      	cbz	r3, 80002b2 <frame_dummy+0xe>
 80002aa:	4904      	ldr	r1, [pc, #16]	@ (80002bc <frame_dummy+0x18>)
 80002ac:	4804      	ldr	r0, [pc, #16]	@ (80002c0 <frame_dummy+0x1c>)
 80002ae:	f3af 8000 	nop.w
 80002b2:	e8bd 4008 	ldmia.w	sp!, {r3, lr}
 80002b6:	e7cd      	b.n	8000254 <register_tm_clones>
 80002b8:	00000000 	.word	0x00000000
 80002bc:	20000010 	.word	0x20000010
 80002c0:	08002120 	.word	0x08002120

080002c4 <__libc_init_array>:
 80002c4:	4b0f      	ldr	r3, [pc, #60]	@ (8000304 <__libc_init_array+0x40>)
 80002c6:	b570      	push	{r4, r5, r6, lr}
 80002c8:	4d0f      	ldr	r5, [pc, #60]	@ (8000308 <__libc_init_array+0x44>)
 80002ca:	42ab      	cmp	r3, r5
 80002cc:	eba3 0605 	sub.w	r6, r3, r5
 80002d0:	d007      	beq.n	80002e2 <__libc_init_array+0x1e>
 80002d2:	10b6      	asrs	r6, r6, #2
 80002d4:	2400      	movs	r4, #0
 80002d6:	3401      	adds	r4, #1
 80002d8:	f855 3b04 	ldr.w	r3, [r5], #4
 80002dc:	4798      	blx	r3
 80002de:	42a6      	cmp	r6, r4
 80002e0:	d8f9      	bhi.n	80002d6 <__libc_init_array+0x12>
 80002e2:	4d0a      	ldr	r5, [pc, #40]	@ (800030c <__libc_init_array+0x48>)
 80002e4:	f001 ff1c 	bl	8002120 <_init>
 80002e8:	4b09      	ldr	r3, [pc, #36]	@ (8000310 <__libc_init_array+0x4c>)
 80002ea:	1b5e      	subs	r6, r3, r5
 80002ec:	42ab      	cmp	r3, r5
 80002ee:	ea4f 06a6 	mov.w	r6, r6, asr #2
 80002f2:	d006      	beq.n	8000302 <__libc_init_array+0x3e>
 80002f4:	2400      	movs	r4, #0
 80002f6:	3401      	adds	r4, #1
 80002f8:	f855 3b04 	ldr.w	r3, [r5], #4
 80002fc:	4798      	blx	r3
 80002fe:	42a6      	cmp	r6, r4
 8000300:	d8f9      	bhi.n	80002f6 <__libc_init_array+0x32>
 8000302:	bd70      	pop	{r4, r5, r6, pc}
 8000304:	08002208 	.word	0x08002208
 8000308:	08002208 	.word	0x08002208
 800030c:	08002208 	.word	0x08002208
 8000310:	0800220c 	.word	0x0800220c

08000314 <memset>:
 8000314:	b570      	push	{r4, r5, r6, lr}
 8000316:	0786      	lsls	r6, r0, #30
 8000318:	d047      	beq.n	80003aa <memset+0x96>
 800031a:	1e54      	subs	r4, r2, #1
 800031c:	2a00      	cmp	r2, #0
 800031e:	d03e      	beq.n	800039e <memset+0x8a>
 8000320:	b2ca      	uxtb	r2, r1
 8000322:	4603      	mov	r3, r0
 8000324:	e001      	b.n	800032a <memset+0x16>
 8000326:	3c01      	subs	r4, #1
 8000328:	d339      	bcc.n	800039e <memset+0x8a>
 800032a:	f803 2b01 	strb.w	r2, [r3], #1
 800032e:	079d      	lsls	r5, r3, #30
 8000330:	d1f9      	bne.n	8000326 <memset+0x12>
 8000332:	2c03      	cmp	r4, #3
 8000334:	d92c      	bls.n	8000390 <memset+0x7c>
 8000336:	b2cd      	uxtb	r5, r1
 8000338:	2c0f      	cmp	r4, #15
 800033a:	eb05 2505 	add.w	r5, r5, r5, lsl #8
 800033e:	eb05 4505 	add.w	r5, r5, r5, lsl #16
 8000342:	d935      	bls.n	80003b0 <memset+0x9c>
 8000344:	f1a4 0c10 	sub.w	ip, r4, #16
 8000348:	f103 0e10 	add.w	lr, r3, #16
 800034c:	461a      	mov	r2, r3
 800034e:	f02c 060f 	bic.w	r6, ip, #15
 8000352:	ea4f 1c1c 	mov.w	ip, ip, lsr #4
 8000356:	44b6      	add	lr, r6
 8000358:	e9c2 5500 	strd	r5, r5, [r2]
 800035c:	e9c2 5502 	strd	r5, r5, [r2, #8]
 8000360:	3210      	adds	r2, #16
 8000362:	4572      	cmp	r2, lr
 8000364:	d1f8      	bne.n	8000358 <memset+0x44>
 8000366:	f10c 0201 	add.w	r2, ip, #1
 800036a:	f014 0f0c 	tst.w	r4, #12
 800036e:	f004 0c0f 	and.w	ip, r4, #15
 8000372:	eb03 1202 	add.w	r2, r3, r2, lsl #4
 8000376:	d013      	beq.n	80003a0 <memset+0x8c>
 8000378:	f1ac 0304 	sub.w	r3, ip, #4
 800037c:	f023 0303 	bic.w	r3, r3, #3
 8000380:	3304      	adds	r3, #4
 8000382:	4413      	add	r3, r2
 8000384:	f842 5b04 	str.w	r5, [r2], #4
 8000388:	4293      	cmp	r3, r2
 800038a:	d1fb      	bne.n	8000384 <memset+0x70>
 800038c:	f00c 0403 	and.w	r4, ip, #3
 8000390:	b12c      	cbz	r4, 800039e <memset+0x8a>
 8000392:	b2c9      	uxtb	r1, r1
 8000394:	441c      	add	r4, r3
 8000396:	f803 1b01 	strb.w	r1, [r3], #1
 800039a:	42a3      	cmp	r3, r4
 800039c:	d1fb      	bne.n	8000396 <memset+0x82>
 800039e:	bd70      	pop	{r4, r5, r6, pc}
 80003a0:	4664      	mov	r4, ip
 80003a2:	4613      	mov	r3, r2
 80003a4:	2c00      	cmp	r4, #0
 80003a6:	d1f4      	bne.n	8000392 <memset+0x7e>
 80003a8:	e7f9      	b.n	800039e <memset+0x8a>
 80003aa:	4603      	mov	r3, r0
 80003ac:	4614      	mov	r4, r2
 80003ae:	e7c0      	b.n	8000332 <memset+0x1e>
 80003b0:	461a      	mov	r2, r3
 80003b2:	46a4      	mov	ip, r4
 80003b4:	e7e0      	b.n	8000378 <memset+0x64>
 80003b6:	bf00      	nop

080003b8 <SystemClock_Config>:
 80003b8:	b530      	push	{r4, r5, lr}
 80003ba:	b09f      	sub	sp, #124	@ 0x7c
 80003bc:	2260      	movs	r2, #96	@ 0x60
 80003be:	2100      	movs	r1, #0
 80003c0:	a806      	add	r0, sp, #24
 80003c2:	f7ff ffa7 	bl	8000314 <memset>
 80003c6:	2300      	movs	r3, #0
 80003c8:	f44f 3000 	mov.w	r0, #131072	@ 0x20000
 80003cc:	e9cd 3300 	strd	r3, r3, [sp]
 80003d0:	e9cd 3302 	strd	r3, r3, [sp, #8]
 80003d4:	e9cd 3304 	strd	r3, r3, [sp, #16]
 80003d8:	f000 fc98 	bl	8000d0c <HAL_PWREx_ControlVoltageScaling>
 80003dc:	b108      	cbz	r0, 80003e2 <SystemClock_Config+0x2a>
 80003de:	b672      	cpsid	i
 80003e0:	e7fe      	b.n	80003e0 <SystemClock_Config+0x28>
 80003e2:	4603      	mov	r3, r0
 80003e4:	2110      	movs	r1, #16
 80003e6:	2201      	movs	r2, #1
 80003e8:	f44f 5400 	mov.w	r4, #8192	@ 0x2000
 80003ec:	930f      	str	r3, [sp, #60]	@ 0x3c
 80003ee:	2302      	movs	r3, #2
 80003f0:	e9cd 210d 	strd	r2, r1, [sp, #52]	@ 0x34
 80003f4:	ed9f 7b14 	vldr	d7, [pc, #80]	@ 8000448 <SystemClock_Config+0x90>
 80003f8:	e9cd 3214 	strd	r3, r2, [sp, #80]	@ 0x50
 80003fc:	9417      	str	r4, [sp, #92]	@ 0x5c
 80003fe:	2208      	movs	r2, #8
 8000400:	2403      	movs	r4, #3
 8000402:	a806      	add	r0, sp, #24
 8000404:	9106      	str	r1, [sp, #24]
 8000406:	ed8d 7b1c 	vstr	d7, [sp, #112]	@ 0x70
 800040a:	e9cd 3319 	strd	r3, r3, [sp, #100]	@ 0x64
 800040e:	931b      	str	r3, [sp, #108]	@ 0x6c
 8000410:	9416      	str	r4, [sp, #88]	@ 0x58
 8000412:	9218      	str	r2, [sp, #96]	@ 0x60
 8000414:	f000 ff1e 	bl	8001254 <HAL_RCC_OscConfig>
 8000418:	4601      	mov	r1, r0
 800041a:	b108      	cbz	r0, 8000420 <SystemClock_Config+0x68>
 800041c:	b672      	cpsid	i
 800041e:	e7fe      	b.n	800041e <SystemClock_Config+0x66>
 8000420:	231f      	movs	r3, #31
 8000422:	250b      	movs	r5, #11
 8000424:	2200      	movs	r2, #0
 8000426:	9300      	str	r3, [sp, #0]
 8000428:	2300      	movs	r3, #0
 800042a:	4668      	mov	r0, sp
 800042c:	e9cd 2304 	strd	r2, r3, [sp, #16]
 8000430:	9401      	str	r4, [sp, #4]
 8000432:	9103      	str	r1, [sp, #12]
 8000434:	9502      	str	r5, [sp, #8]
 8000436:	f000 fda7 	bl	8000f88 <HAL_RCC_ClockConfig>
 800043a:	b108      	cbz	r0, 8000440 <SystemClock_Config+0x88>
 800043c:	b672      	cpsid	i
 800043e:	e7fe      	b.n	800043e <SystemClock_Config+0x86>
 8000440:	b01f      	add	sp, #124	@ 0x7c
 8000442:	bd30      	pop	{r4, r5, pc}
 8000444:	f3af 8000 	nop.w
 8000448:	0000000c 	.word	0x0000000c
 800044c:	00000000 	.word	0x00000000

08000450 <main>:
 8000450:	2400      	movs	r4, #0
 8000452:	b500      	push	{lr}
 8000454:	b08d      	sub	sp, #52	@ 0x34
 8000456:	f000 f989 	bl	800076c <HAL_Init>
 800045a:	f7ff ffad 	bl	80003b8 <SystemClock_Config>
 800045e:	2180      	movs	r1, #128	@ 0x80
 8000460:	e9cd 4406 	strd	r4, r4, [sp, #24]
 8000464:	e9cd 4408 	strd	r4, r4, [sp, #32]
 8000468:	4b41      	ldr	r3, [pc, #260]	@ (8000570 <main+0x120>)
 800046a:	940a      	str	r4, [sp, #40]	@ 0x28
 800046c:	f8d3 208c 	ldr.w	r2, [r3, #140]	@ 0x8c
 8000470:	4840      	ldr	r0, [pc, #256]	@ (8000574 <main+0x124>)
 8000472:	f042 0204 	orr.w	r2, r2, #4
 8000476:	f8c3 208c 	str.w	r2, [r3, #140]	@ 0x8c
 800047a:	f8d3 208c 	ldr.w	r2, [r3, #140]	@ 0x8c
 800047e:	2580      	movs	r5, #128	@ 0x80
 8000480:	f002 0204 	and.w	r2, r2, #4
 8000484:	9200      	str	r2, [sp, #0]
 8000486:	9a00      	ldr	r2, [sp, #0]
 8000488:	f8d3 208c 	ldr.w	r2, [r3, #140]	@ 0x8c
 800048c:	430a      	orrs	r2, r1
 800048e:	f8c3 208c 	str.w	r2, [r3, #140]	@ 0x8c
 8000492:	f8d3 208c 	ldr.w	r2, [r3, #140]	@ 0x8c
 8000496:	400a      	ands	r2, r1
 8000498:	9201      	str	r2, [sp, #4]
 800049a:	9a01      	ldr	r2, [sp, #4]
 800049c:	f8d3 208c 	ldr.w	r2, [r3, #140]	@ 0x8c
 80004a0:	f042 0201 	orr.w	r2, r2, #1
 80004a4:	f8c3 208c 	str.w	r2, [r3, #140]	@ 0x8c
 80004a8:	f8d3 308c 	ldr.w	r3, [r3, #140]	@ 0x8c
 80004ac:	4622      	mov	r2, r4
 80004ae:	f003 0301 	and.w	r3, r3, #1
 80004b2:	9302      	str	r3, [sp, #8]
 80004b4:	9b02      	ldr	r3, [sp, #8]
 80004b6:	f000 fbeb 	bl	8000c90 <HAL_GPIO_WritePin>
 80004ba:	ed9f 7b2b 	vldr	d7, [pc, #172]	@ 8000568 <main+0x118>
 80004be:	2302      	movs	r3, #2
 80004c0:	482c      	ldr	r0, [pc, #176]	@ (8000574 <main+0x124>)
 80004c2:	a906      	add	r1, sp, #24
 80004c4:	ed8d 7b06 	vstr	d7, [sp, #24]
 80004c8:	9308      	str	r3, [sp, #32]
 80004ca:	f000 fa51 	bl	8000970 <HAL_GPIO_Init>
 80004ce:	2301      	movs	r3, #1
 80004d0:	4828      	ldr	r0, [pc, #160]	@ (8000574 <main+0x124>)
 80004d2:	a906      	add	r1, sp, #24
 80004d4:	e9cd 5306 	strd	r5, r3, [sp, #24]
 80004d8:	e9cd 4408 	strd	r4, r4, [sp, #32]
 80004dc:	f000 fa48 	bl	8000970 <HAL_GPIO_Init>
 80004e0:	4622      	mov	r2, r4
 80004e2:	4621      	mov	r1, r4
 80004e4:	2018      	movs	r0, #24
 80004e6:	f000 f991 	bl	800080c <HAL_NVIC_SetPriority>
 80004ea:	2018      	movs	r0, #24
 80004ec:	f000 f9ca 	bl	8000884 <HAL_NVIC_EnableIRQ>
 80004f0:	4620      	mov	r0, r4
 80004f2:	f000 fbed 	bl	8000cd0 <HAL_ICACHE_ConfigAssociativityMode>
 80004f6:	b108      	cbz	r0, 80004fc <main+0xac>
 80004f8:	b672      	cpsid	i
 80004fa:	e7fe      	b.n	80004fa <main+0xaa>
 80004fc:	f000 fbfc 	bl	8000cf8 <HAL_ICACHE_Enable>
 8000500:	b9b8      	cbnz	r0, 8000532 <main+0xe2>
 8000502:	f04f 4280 	mov.w	r2, #1073741824	@ 0x40000000
 8000506:	f04f 33ff 	mov.w	r3, #4294967295	@ 0xffffffff
 800050a:	4c1b      	ldr	r4, [pc, #108]	@ (8000578 <main+0x128>)
 800050c:	e9cd 0006 	strd	r0, r0, [sp, #24]
 8000510:	e9cd 0008 	strd	r0, r0, [sp, #32]
 8000514:	e9c4 0001 	strd	r0, r0, [r4, #4]
 8000518:	e9cd 0004 	strd	r0, r0, [sp, #16]
 800051c:	9003      	str	r0, [sp, #12]
 800051e:	6120      	str	r0, [r4, #16]
 8000520:	4620      	mov	r0, r4
 8000522:	61a5      	str	r5, [r4, #24]
 8000524:	6022      	str	r2, [r4, #0]
 8000526:	60e3      	str	r3, [r4, #12]
 8000528:	f001 fb7e 	bl	8001c28 <HAL_TIM_Base_Init>
 800052c:	b118      	cbz	r0, 8000536 <main+0xe6>
 800052e:	b672      	cpsid	i
 8000530:	e7fe      	b.n	8000530 <main+0xe0>
 8000532:	b672      	cpsid	i
 8000534:	e7fe      	b.n	8000534 <main+0xe4>
 8000536:	f44f 5380 	mov.w	r3, #4096	@ 0x1000
 800053a:	4620      	mov	r0, r4
 800053c:	a906      	add	r1, sp, #24
 800053e:	9306      	str	r3, [sp, #24]
 8000540:	f001 fca4 	bl	8001e8c <HAL_TIM_ConfigClockSource>
 8000544:	4603      	mov	r3, r0
 8000546:	b108      	cbz	r0, 800054c <main+0xfc>
 8000548:	b672      	cpsid	i
 800054a:	e7fe      	b.n	800054a <main+0xfa>
 800054c:	4620      	mov	r0, r4
 800054e:	a903      	add	r1, sp, #12
 8000550:	9303      	str	r3, [sp, #12]
 8000552:	9305      	str	r3, [sp, #20]
 8000554:	f001 fd6e 	bl	8002034 <HAL_TIMEx_MasterConfigSynchronization>
 8000558:	b108      	cbz	r0, 800055e <main+0x10e>
 800055a:	b672      	cpsid	i
 800055c:	e7fe      	b.n	800055c <main+0x10c>
 800055e:	4620      	mov	r0, r4
 8000560:	f001 fc3e 	bl	8001de0 <HAL_TIM_Base_Start>
 8000564:	e7fe      	b.n	8000564 <main+0x114>
 8000566:	bf00      	nop
 8000568:	00002000 	.word	0x00002000
 800056c:	10310000 	.word	0x10310000
 8000570:	46020c00 	.word	0x46020c00
 8000574:	42020800 	.word	0x42020800
 8000578:	20000028 	.word	0x20000028

0800057c <HAL_MspInit>:
 800057c:	2004      	movs	r0, #4
 800057e:	4b07      	ldr	r3, [pc, #28]	@ (800059c <HAL_MspInit+0x20>)
 8000580:	b082      	sub	sp, #8
 8000582:	f8d3 2094 	ldr.w	r2, [r3, #148]	@ 0x94
 8000586:	4302      	orrs	r2, r0
 8000588:	f8c3 2094 	str.w	r2, [r3, #148]	@ 0x94
 800058c:	f8d3 3094 	ldr.w	r3, [r3, #148]	@ 0x94
 8000590:	4003      	ands	r3, r0
 8000592:	9301      	str	r3, [sp, #4]
 8000594:	9b01      	ldr	r3, [sp, #4]
 8000596:	b002      	add	sp, #8
 8000598:	f000 b926 	b.w	80007e8 <HAL_NVIC_SetPriorityGrouping>
 800059c:	46020c00 	.word	0x46020c00

080005a0 <HAL_TIM_Base_MspInit>:
 80005a0:	6803      	ldr	r3, [r0, #0]
 80005a2:	f1b3 4f80 	cmp.w	r3, #1073741824	@ 0x40000000
 80005a6:	d000      	beq.n	80005aa <HAL_TIM_Base_MspInit+0xa>
 80005a8:	4770      	bx	lr
 80005aa:	4b08      	ldr	r3, [pc, #32]	@ (80005cc <HAL_TIM_Base_MspInit+0x2c>)
 80005ac:	b082      	sub	sp, #8
 80005ae:	f8d3 209c 	ldr.w	r2, [r3, #156]	@ 0x9c
 80005b2:	f042 0201 	orr.w	r2, r2, #1
 80005b6:	f8c3 209c 	str.w	r2, [r3, #156]	@ 0x9c
 80005ba:	f8d3 309c 	ldr.w	r3, [r3, #156]	@ 0x9c
 80005be:	f003 0301 	and.w	r3, r3, #1
 80005c2:	9301      	str	r3, [sp, #4]
 80005c4:	9b01      	ldr	r3, [sp, #4]
 80005c6:	b002      	add	sp, #8
 80005c8:	4770      	bx	lr
 80005ca:	bf00      	nop
 80005cc:	46020c00 	.word	0x46020c00

080005d0 <NMI_Handler>:
 80005d0:	e7fe      	b.n	80005d0 <NMI_Handler>
 80005d2:	bf00      	nop

080005d4 <HardFault_Handler>:
 80005d4:	e7fe      	b.n	80005d4 <HardFault_Handler>
 80005d6:	bf00      	nop

080005d8 <MemManage_Handler>:
 80005d8:	e7fe      	b.n	80005d8 <MemManage_Handler>
 80005da:	bf00      	nop

080005dc <BusFault_Handler>:
 80005dc:	e7fe      	b.n	80005dc <BusFault_Handler>
 80005de:	bf00      	nop

080005e0 <UsageFault_Handler>:
 80005e0:	e7fe      	b.n	80005e0 <UsageFault_Handler>
 80005e2:	bf00      	nop

080005e4 <SVC_Handler>:
 80005e4:	4770      	bx	lr
 80005e6:	bf00      	nop

080005e8 <DebugMon_Handler>:
 80005e8:	4770      	bx	lr
 80005ea:	bf00      	nop

080005ec <PendSV_Handler>:
 80005ec:	4770      	bx	lr
 80005ee:	bf00      	nop

080005f0 <SysTick_Handler>:
 80005f0:	f000 b8e8 	b.w	80007c4 <HAL_IncTick>

080005f4 <EXTI13_IRQHandler>:
 80005f4:	f44f 5000 	mov.w	r0, #8192	@ 0x2000
 80005f8:	b508      	push	{r3, lr}
 80005fa:	f000 fb53 	bl	8000ca4 <HAL_GPIO_EXTI_IRQHandler>
 80005fe:	f44f 5100 	mov.w	r1, #8192	@ 0x2000
 8000602:	4809      	ldr	r0, [pc, #36]	@ (8000628 <EXTI13_IRQHandler+0x34>)
 8000604:	f000 fb3e 	bl	8000c84 <HAL_GPIO_ReadPin>
 8000608:	b130      	cbz	r0, 8000618 <EXTI13_IRQHandler+0x24>
 800060a:	e8bd 4008 	ldmia.w	sp!, {r3, lr}
 800060e:	2201      	movs	r2, #1
 8000610:	2180      	movs	r1, #128	@ 0x80
 8000612:	4805      	ldr	r0, [pc, #20]	@ (8000628 <EXTI13_IRQHandler+0x34>)
 8000614:	f000 bb3c 	b.w	8000c90 <HAL_GPIO_WritePin>
 8000618:	4602      	mov	r2, r0
 800061a:	e8bd 4008 	ldmia.w	sp!, {r3, lr}
 800061e:	2180      	movs	r1, #128	@ 0x80
 8000620:	4801      	ldr	r0, [pc, #4]	@ (8000628 <EXTI13_IRQHandler+0x34>)
 8000622:	f000 bb35 	b.w	8000c90 <HAL_GPIO_WritePin>
 8000626:	bf00      	nop
 8000628:	42020800 	.word	0x42020800

0800062c <SystemInit>:
 800062c:	2200      	movs	r2, #0
 800062e:	2101      	movs	r1, #1
 8000630:	b410      	push	{r4}
 8000632:	f04f 6400 	mov.w	r4, #134217728	@ 0x8000000
 8000636:	480e      	ldr	r0, [pc, #56]	@ (8000670 <SystemInit+0x44>)
 8000638:	f8d0 3088 	ldr.w	r3, [r0, #136]	@ 0x88
 800063c:	f443 0370 	orr.w	r3, r3, #15728640	@ 0xf00000
 8000640:	f8c0 3088 	str.w	r3, [r0, #136]	@ 0x88
 8000644:	4b0b      	ldr	r3, [pc, #44]	@ (8000674 <SystemInit+0x48>)
 8000646:	6019      	str	r1, [r3, #0]
 8000648:	61da      	str	r2, [r3, #28]
 800064a:	621a      	str	r2, [r3, #32]
 800064c:	625a      	str	r2, [r3, #36]	@ 0x24
 800064e:	6819      	ldr	r1, [r3, #0]
 8000650:	f021 51a8 	bic.w	r1, r1, #352321536	@ 0x15000000
 8000654:	f421 2110 	bic.w	r1, r1, #589824	@ 0x90000
 8000658:	6019      	str	r1, [r3, #0]
 800065a:	629a      	str	r2, [r3, #40]	@ 0x28
 800065c:	6819      	ldr	r1, [r3, #0]
 800065e:	f421 2180 	bic.w	r1, r1, #262144	@ 0x40000
 8000662:	6019      	str	r1, [r3, #0]
 8000664:	651a      	str	r2, [r3, #80]	@ 0x50
 8000666:	6084      	str	r4, [r0, #8]
 8000668:	f85d 4b04 	ldr.w	r4, [sp], #4
 800066c:	4770      	bx	lr
 800066e:	bf00      	nop
 8000670:	e000ed00 	.word	0xe000ed00
 8000674:	46020c00 	.word	0x46020c00

08000678 <Reset_Handler>:
 8000678:	f8df d034 	ldr.w	sp, [pc, #52]	@ 80006b0 <LoopForever+0x2>
 800067c:	f7ff ffd6 	bl	800062c <SystemInit>
 8000680:	2100      	movs	r1, #0
 8000682:	e003      	b.n	800068c <LoopCopyDataInit>

08000684 <CopyDataInit>:
 8000684:	4b0b      	ldr	r3, [pc, #44]	@ (80006b4 <LoopForever+0x6>)
 8000686:	585b      	ldr	r3, [r3, r1]
 8000688:	5043      	str	r3, [r0, r1]
 800068a:	3104      	adds	r1, #4

0800068c <LoopCopyDataInit>:
 800068c:	480a      	ldr	r0, [pc, #40]	@ (80006b8 <LoopForever+0xa>)
 800068e:	4b0b      	ldr	r3, [pc, #44]	@ (80006bc <LoopForever+0xe>)
 8000690:	1842      	adds	r2, r0, r1
 8000692:	429a      	cmp	r2, r3
 8000694:	d3f6      	bcc.n	8000684 <CopyDataInit>
 8000696:	4a0a      	ldr	r2, [pc, #40]	@ (80006c0 <LoopForever+0x12>)
 8000698:	e002      	b.n	80006a0 <LoopFillZerobss>

0800069a <FillZerobss>:
 800069a:	2300      	movs	r3, #0
 800069c:	f842 3b04 	str.w	r3, [r2], #4

080006a0 <LoopFillZerobss>:
 80006a0:	4b08      	ldr	r3, [pc, #32]	@ (80006c4 <LoopForever+0x16>)
 80006a2:	429a      	cmp	r2, r3
 80006a4:	d3f9      	bcc.n	800069a <FillZerobss>
 80006a6:	f7ff fe0d 	bl	80002c4 <__libc_init_array>
 80006aa:	f7ff fed1 	bl	8000450 <main>

080006ae <LoopForever>:
 80006ae:	e7fe      	b.n	80006ae <LoopForever>
 80006b0:	200c0000 	.word	0x200c0000
 80006b4:	08002210 	.word	0x08002210
 80006b8:	20000000 	.word	0x20000000
 80006bc:	2000000c 	.word	0x2000000c
 80006c0:	2000000c 	.word	0x2000000c
 80006c4:	20000078 	.word	0x20000078

080006c8 <ADC1_IRQHandler>:
 80006c8:	e7fe      	b.n	80006c8 <ADC1_IRQHandler>
	...

080006cc <HAL_InitTick>:
 80006cc:	b570      	push	{r4, r5, r6, lr}
 80006ce:	4e24      	ldr	r6, [pc, #144]	@ (8000760 <HAL_InitTick+0x94>)
 80006d0:	7832      	ldrb	r2, [r6, #0]
 80006d2:	b1ea      	cbz	r2, 8000710 <HAL_InitTick+0x44>
 80006d4:	f04f 23e0 	mov.w	r3, #3758153728	@ 0xe000e000
 80006d8:	691c      	ldr	r4, [r3, #16]
 80006da:	4605      	mov	r5, r0
 80006dc:	f014 0404 	ands.w	r4, r4, #4
 80006e0:	d018      	beq.n	8000714 <HAL_InitTick+0x48>
 80006e2:	f44f 717a 	mov.w	r1, #1000	@ 0x3e8
 80006e6:	fbb1 f2f2 	udiv	r2, r1, r2
 80006ea:	4b1e      	ldr	r3, [pc, #120]	@ (8000764 <HAL_InitTick+0x98>)
 80006ec:	681c      	ldr	r4, [r3, #0]
 80006ee:	fbb4 f4f2 	udiv	r4, r4, r2
 80006f2:	4620      	mov	r0, r4
 80006f4:	f000 f8d4 	bl	80008a0 <HAL_SYSTICK_Config>
 80006f8:	4604      	mov	r4, r0
 80006fa:	b948      	cbnz	r0, 8000710 <HAL_InitTick+0x44>
 80006fc:	4602      	mov	r2, r0
 80006fe:	4629      	mov	r1, r5
 8000700:	f04f 30ff 	mov.w	r0, #4294967295	@ 0xffffffff
 8000704:	f000 f882 	bl	800080c <HAL_NVIC_SetPriority>
 8000708:	4b17      	ldr	r3, [pc, #92]	@ (8000768 <HAL_InitTick+0x9c>)
 800070a:	4620      	mov	r0, r4
 800070c:	601d      	str	r5, [r3, #0]
 800070e:	bd70      	pop	{r4, r5, r6, pc}
 8000710:	2001      	movs	r0, #1
 8000712:	bd70      	pop	{r4, r5, r6, pc}
 8000714:	f000 f912 	bl	800093c <HAL_SYSTICK_GetCLKSourceConfig>
 8000718:	2801      	cmp	r0, #1
 800071a:	d00d      	beq.n	8000738 <HAL_InitTick+0x6c>
 800071c:	2802      	cmp	r0, #2
 800071e:	d015      	beq.n	800074c <HAL_InitTick+0x80>
 8000720:	2800      	cmp	r0, #0
 8000722:	d1e6      	bne.n	80006f2 <HAL_InitTick+0x26>
 8000724:	f44f 52fa 	mov.w	r2, #8000	@ 0x1f40
 8000728:	7831      	ldrb	r1, [r6, #0]
 800072a:	4b0e      	ldr	r3, [pc, #56]	@ (8000764 <HAL_InitTick+0x98>)
 800072c:	fbb2 f2f1 	udiv	r2, r2, r1
 8000730:	681c      	ldr	r4, [r3, #0]
 8000732:	fbb4 f4f2 	udiv	r4, r4, r2
 8000736:	e7dc      	b.n	80006f2 <HAL_InitTick+0x26>
 8000738:	f44f 727a 	mov.w	r2, #1000	@ 0x3e8
 800073c:	7831      	ldrb	r1, [r6, #0]
 800073e:	f44f 43fa 	mov.w	r3, #32000	@ 0x7d00
 8000742:	fbb2 f2f1 	udiv	r2, r2, r1
 8000746:	fbb3 f4f2 	udiv	r4, r3, r2
 800074a:	e7d2      	b.n	80006f2 <HAL_InitTick+0x26>
 800074c:	f44f 727a 	mov.w	r2, #1000	@ 0x3e8
 8000750:	7831      	ldrb	r1, [r6, #0]
 8000752:	f44f 4300 	mov.w	r3, #32768	@ 0x8000
 8000756:	fbb2 f2f1 	udiv	r2, r2, r1
 800075a:	fbb3 f4f2 	udiv	r4, r3, r2
 800075e:	e7c8      	b.n	80006f2 <HAL_InitTick+0x26>
 8000760:	20000004 	.word	0x20000004
 8000764:	20000000 	.word	0x20000000
 8000768:	20000008 	.word	0x20000008

0800076c <HAL_Init>:
 800076c:	4a11      	ldr	r2, [pc, #68]	@ (80007b4 <HAL_Init+0x48>)
 800076e:	b510      	push	{r4, lr}
 8000770:	6813      	ldr	r3, [r2, #0]
 8000772:	2003      	movs	r0, #3
 8000774:	f443 7380 	orr.w	r3, r3, #256	@ 0x100
 8000778:	6013      	str	r3, [r2, #0]
 800077a:	f000 f835 	bl	80007e8 <HAL_NVIC_SetPriorityGrouping>
 800077e:	f000 fb75 	bl	8000e6c <HAL_RCC_GetSysClockFreq>
 8000782:	4603      	mov	r3, r0
 8000784:	4a0c      	ldr	r2, [pc, #48]	@ (80007b8 <HAL_Init+0x4c>)
 8000786:	480d      	ldr	r0, [pc, #52]	@ (80007bc <HAL_Init+0x50>)
 8000788:	6a12      	ldr	r2, [r2, #32]
 800078a:	490d      	ldr	r1, [pc, #52]	@ (80007c0 <HAL_Init+0x54>)
 800078c:	f002 020f 	and.w	r2, r2, #15
 8000790:	5c82      	ldrb	r2, [r0, r2]
 8000792:	2004      	movs	r0, #4
 8000794:	40d3      	lsrs	r3, r2
 8000796:	600b      	str	r3, [r1, #0]
 8000798:	f000 f892 	bl	80008c0 <HAL_SYSTICK_CLKSourceConfig>
 800079c:	2000      	movs	r0, #0
 800079e:	f7ff ff95 	bl	80006cc <HAL_InitTick>
 80007a2:	b110      	cbz	r0, 80007aa <HAL_Init+0x3e>
 80007a4:	2401      	movs	r4, #1
 80007a6:	4620      	mov	r0, r4
 80007a8:	bd10      	pop	{r4, pc}
 80007aa:	4604      	mov	r4, r0
 80007ac:	f7ff fee6 	bl	800057c <HAL_MspInit>
 80007b0:	4620      	mov	r0, r4
 80007b2:	bd10      	pop	{r4, pc}
 80007b4:	40022000 	.word	0x40022000
 80007b8:	46020c00 	.word	0x46020c00
 80007bc:	08002178 	.word	0x08002178
 80007c0:	20000000 	.word	0x20000000

080007c4 <HAL_IncTick>:
 80007c4:	4a03      	ldr	r2, [pc, #12]	@ (80007d4 <HAL_IncTick+0x10>)
 80007c6:	4b04      	ldr	r3, [pc, #16]	@ (80007d8 <HAL_IncTick+0x14>)
 80007c8:	6811      	ldr	r1, [r2, #0]
 80007ca:	781b      	ldrb	r3, [r3, #0]
 80007cc:	440b      	add	r3, r1
 80007ce:	6013      	str	r3, [r2, #0]
 80007d0:	4770      	bx	lr
 80007d2:	bf00      	nop
 80007d4:	20000074 	.word	0x20000074
 80007d8:	20000004 	.word	0x20000004

080007dc <HAL_GetTick>:
 80007dc:	4b01      	ldr	r3, [pc, #4]	@ (80007e4 <HAL_GetTick+0x8>)
 80007de:	6818      	ldr	r0, [r3, #0]
 80007e0:	4770      	bx	lr
 80007e2:	bf00      	nop
 80007e4:	20000074 	.word	0x20000074

080007e8 <HAL_NVIC_SetPriorityGrouping>:
 80007e8:	f64f 0cff 	movw	ip, #63743	@ 0xf8ff
 80007ec:	4906      	ldr	r1, [pc, #24]	@ (8000808 <HAL_NVIC_SetPriorityGrouping+0x20>)
 80007ee:	0203      	lsls	r3, r0, #8
 80007f0:	68ca      	ldr	r2, [r1, #12]
 80007f2:	f403 63e0 	and.w	r3, r3, #1792	@ 0x700
 80007f6:	ea02 020c 	and.w	r2, r2, ip
 80007fa:	4313      	orrs	r3, r2
 80007fc:	f043 63bf 	orr.w	r3, r3, #100139008	@ 0x5f80000
 8000800:	f443 3300 	orr.w	r3, r3, #131072	@ 0x20000
 8000804:	60cb      	str	r3, [r1, #12]
 8000806:	4770      	bx	lr
 8000808:	e000ed00 	.word	0xe000ed00

0800080c <HAL_NVIC_SetPriority>:
 800080c:	4b1b      	ldr	r3, [pc, #108]	@ (800087c <HAL_NVIC_SetPriority+0x70>)
 800080e:	b500      	push	{lr}
 8000810:	68db      	ldr	r3, [r3, #12]
 8000812:	f3c3 2302 	ubfx	r3, r3, #8, #3
 8000816:	f1c3 0e07 	rsb	lr, r3, #7
 800081a:	f1be 0f04 	cmp.w	lr, #4
 800081e:	f103 0c04 	add.w	ip, r3, #4
 8000822:	bf28      	it	cs
 8000824:	f04f 0e04 	movcs.w	lr, #4
 8000828:	f1bc 0f06 	cmp.w	ip, #6
 800082c:	d91c      	bls.n	8000868 <HAL_NVIC_SetPriority+0x5c>
 800082e:	f1a3 0c03 	sub.w	ip, r3, #3
 8000832:	f04f 33ff 	mov.w	r3, #4294967295	@ 0xffffffff
 8000836:	fa03 f30c 	lsl.w	r3, r3, ip
 800083a:	ea22 0203 	bic.w	r2, r2, r3
 800083e:	f04f 33ff 	mov.w	r3, #4294967295	@ 0xffffffff
 8000842:	fa03 f30e 	lsl.w	r3, r3, lr
 8000846:	ea21 0303 	bic.w	r3, r1, r3
 800084a:	fa03 f30c 	lsl.w	r3, r3, ip
 800084e:	4313      	orrs	r3, r2
 8000850:	011b      	lsls	r3, r3, #4
 8000852:	2800      	cmp	r0, #0
 8000854:	b2db      	uxtb	r3, r3
 8000856:	db0a      	blt.n	800086e <HAL_NVIC_SetPriority+0x62>
 8000858:	f100 4060 	add.w	r0, r0, #3758096384	@ 0xe0000000
 800085c:	f500 4061 	add.w	r0, r0, #57600	@ 0xe100
 8000860:	f880 3300 	strb.w	r3, [r0, #768]	@ 0x300
 8000864:	f85d fb04 	ldr.w	pc, [sp], #4
 8000868:	2200      	movs	r2, #0
 800086a:	4694      	mov	ip, r2
 800086c:	e7e7      	b.n	800083e <HAL_NVIC_SetPriority+0x32>
 800086e:	4a04      	ldr	r2, [pc, #16]	@ (8000880 <HAL_NVIC_SetPriority+0x74>)
 8000870:	f000 000f 	and.w	r0, r0, #15
 8000874:	4402      	add	r2, r0
 8000876:	7613      	strb	r3, [r2, #24]
 8000878:	f85d fb04 	ldr.w	pc, [sp], #4
 800087c:	e000ed00 	.word	0xe000ed00
 8000880:	e000ecfc 	.word	0xe000ecfc

08000884 <HAL_NVIC_EnableIRQ>:
 8000884:	2800      	cmp	r0, #0
 8000886:	db07      	blt.n	8000898 <HAL_NVIC_EnableIRQ+0x14>
 8000888:	2301      	movs	r3, #1
 800088a:	f000 011f 	and.w	r1, r0, #31
 800088e:	4a03      	ldr	r2, [pc, #12]	@ (800089c <HAL_NVIC_EnableIRQ+0x18>)
 8000890:	0940      	lsrs	r0, r0, #5
 8000892:	408b      	lsls	r3, r1
 8000894:	f842 3020 	str.w	r3, [r2, r0, lsl #2]
 8000898:	4770      	bx	lr
 800089a:	bf00      	nop
 800089c:	e000e100 	.word	0xe000e100

080008a0 <HAL_SYSTICK_Config>:
 80008a0:	1e43      	subs	r3, r0, #1
 80008a2:	f1b3 7f80 	cmp.w	r3, #16777216	@ 0x1000000
 80008a6:	d209      	bcs.n	80008bc <HAL_SYSTICK_Config+0x1c>
 80008a8:	f04f 22e0 	mov.w	r2, #3758153728	@ 0xe000e000
 80008ac:	2000      	movs	r0, #0
 80008ae:	6153      	str	r3, [r2, #20]
 80008b0:	6190      	str	r0, [r2, #24]
 80008b2:	6913      	ldr	r3, [r2, #16]
 80008b4:	f043 0303 	orr.w	r3, r3, #3
 80008b8:	6113      	str	r3, [r2, #16]
 80008ba:	4770      	bx	lr
 80008bc:	2001      	movs	r0, #1
 80008be:	4770      	bx	lr

080008c0 <HAL_SYSTICK_CLKSourceConfig>:
 80008c0:	2804      	cmp	r0, #4
 80008c2:	d813      	bhi.n	80008ec <HAL_SYSTICK_CLKSourceConfig+0x2c>
 80008c4:	e8df f000 	tbb	[pc, r0]
 80008c8:	12031a2a 	.word	0x12031a2a
 80008cc:	13          	.byte	0x13
 80008cd:	00          	.byte	0x00
 80008ce:	f04f 21e0 	mov.w	r1, #3758153728	@ 0xe000e000
 80008d2:	690b      	ldr	r3, [r1, #16]
 80008d4:	4a18      	ldr	r2, [pc, #96]	@ (8000938 <HAL_SYSTICK_CLKSourceConfig+0x78>)
 80008d6:	f023 0304 	bic.w	r3, r3, #4
 80008da:	610b      	str	r3, [r1, #16]
 80008dc:	f8d2 30e0 	ldr.w	r3, [r2, #224]	@ 0xe0
 80008e0:	f423 0340 	bic.w	r3, r3, #12582912	@ 0xc00000
 80008e4:	f443 0300 	orr.w	r3, r3, #8388608	@ 0x800000
 80008e8:	f8c2 30e0 	str.w	r3, [r2, #224]	@ 0xe0
 80008ec:	4770      	bx	lr
 80008ee:	f04f 22e0 	mov.w	r2, #3758153728	@ 0xe000e000
 80008f2:	6913      	ldr	r3, [r2, #16]
 80008f4:	f043 0304 	orr.w	r3, r3, #4
 80008f8:	6113      	str	r3, [r2, #16]
 80008fa:	4770      	bx	lr
 80008fc:	f04f 21e0 	mov.w	r1, #3758153728	@ 0xe000e000
 8000900:	690b      	ldr	r3, [r1, #16]
 8000902:	4a0d      	ldr	r2, [pc, #52]	@ (8000938 <HAL_SYSTICK_CLKSourceConfig+0x78>)
 8000904:	f023 0304 	bic.w	r3, r3, #4
 8000908:	610b      	str	r3, [r1, #16]
 800090a:	f8d2 30e0 	ldr.w	r3, [r2, #224]	@ 0xe0
 800090e:	f423 0340 	bic.w	r3, r3, #12582912	@ 0xc00000
 8000912:	f443 0380 	orr.w	r3, r3, #4194304	@ 0x400000
 8000916:	f8c2 30e0 	str.w	r3, [r2, #224]	@ 0xe0
 800091a:	4770      	bx	lr
 800091c:	f04f 21e0 	mov.w	r1, #3758153728	@ 0xe000e000
 8000920:	690b      	ldr	r3, [r1, #16]
 8000922:	4a05      	ldr	r2, [pc, #20]	@ (8000938 <HAL_SYSTICK_CLKSourceConfig+0x78>)
 8000924:	f023 0304 	bic.w	r3, r3, #4
 8000928:	610b      	str	r3, [r1, #16]
 800092a:	f8d2 30e0 	ldr.w	r3, [r2, #224]	@ 0xe0
 800092e:	f423 0340 	bic.w	r3, r3, #12582912	@ 0xc00000
 8000932:	f8c2 30e0 	str.w	r3, [r2, #224]	@ 0xe0
 8000936:	4770      	bx	lr
 8000938:	46020c00 	.word	0x46020c00

0800093c <HAL_SYSTICK_GetCLKSourceConfig>:
 800093c:	f04f 23e0 	mov.w	r3, #3758153728	@ 0xe000e000
 8000940:	691b      	ldr	r3, [r3, #16]
 8000942:	075b      	lsls	r3, r3, #29
 8000944:	d410      	bmi.n	8000968 <HAL_SYSTICK_GetCLKSourceConfig+0x2c>
 8000946:	4b09      	ldr	r3, [pc, #36]	@ (800096c <HAL_SYSTICK_GetCLKSourceConfig+0x30>)
 8000948:	f8d3 00e0 	ldr.w	r0, [r3, #224]	@ 0xe0
 800094c:	f400 0040 	and.w	r0, r0, #12582912	@ 0xc00000
 8000950:	f5b0 0f80 	cmp.w	r0, #4194304	@ 0x400000
 8000954:	d006      	beq.n	8000964 <HAL_SYSTICK_GetCLKSourceConfig+0x28>
 8000956:	f5a0 0000 	sub.w	r0, r0, #8388608	@ 0x800000
 800095a:	fab0 f080 	clz	r0, r0
 800095e:	0940      	lsrs	r0, r0, #5
 8000960:	0040      	lsls	r0, r0, #1
 8000962:	4770      	bx	lr
 8000964:	2001      	movs	r0, #1
 8000966:	4770      	bx	lr
 8000968:	2004      	movs	r0, #4
 800096a:	4770      	bx	lr
 800096c:	46020c00 	.word	0x46020c00

08000970 <HAL_GPIO_Init>:
 8000970:	e92d 4ff0 	stmdb	sp!, {r4, r5, r6, r7, r8, r9, sl, fp, lr}
 8000974:	f8d1 b000 	ldr.w	fp, [r1]
 8000978:	b085      	sub	sp, #20
 800097a:	f1bb 0f00 	cmp.w	fp, #0
 800097e:	f000 80b4 	beq.w	8000aea <HAL_GPIO_Init+0x17a>
 8000982:	4bbb      	ldr	r3, [pc, #748]	@ (8000c70 <HAL_GPIO_Init+0x300>)
 8000984:	468a      	mov	sl, r1
 8000986:	4298      	cmp	r0, r3
 8000988:	f000 80be 	beq.w	8000b08 <HAL_GPIO_Init+0x198>
 800098c:	4bb9      	ldr	r3, [pc, #740]	@ (8000c74 <HAL_GPIO_Init+0x304>)
 800098e:	2200      	movs	r2, #0
 8000990:	ea03 2390 	and.w	r3, r3, r0, lsr #10
 8000994:	f04f 0801 	mov.w	r8, #1
 8000998:	9303      	str	r3, [sp, #12]
 800099a:	e029      	b.n	80009f0 <HAL_GPIO_Init+0x80>
 800099c:	6806      	ldr	r6, [r0, #0]
 800099e:	f1b9 0f01 	cmp.w	r9, #1
 80009a2:	ea05 0c06 	and.w	ip, r5, r6
 80009a6:	f003 0603 	and.w	r6, r3, #3
 80009aa:	fa06 f607 	lsl.w	r6, r6, r7
 80009ae:	ea46 060c 	orr.w	r6, r6, ip
 80009b2:	6006      	str	r6, [r0, #0]
 80009b4:	d901      	bls.n	80009ba <HAL_GPIO_Init+0x4a>
 80009b6:	2b11      	cmp	r3, #17
 80009b8:	d153      	bne.n	8000a62 <HAL_GPIO_Init+0xf2>
 80009ba:	6886      	ldr	r6, [r0, #8]
 80009bc:	091b      	lsrs	r3, r3, #4
 80009be:	ea06 0c05 	and.w	ip, r6, r5
 80009c2:	f8da 600c 	ldr.w	r6, [sl, #12]
 80009c6:	4093      	lsls	r3, r2
 80009c8:	40be      	lsls	r6, r7
 80009ca:	ea46 060c 	orr.w	r6, r6, ip
 80009ce:	6086      	str	r6, [r0, #8]
 80009d0:	6846      	ldr	r6, [r0, #4]
 80009d2:	ea26 0101 	bic.w	r1, r6, r1
 80009d6:	430b      	orrs	r3, r1
 80009d8:	6043      	str	r3, [r0, #4]
 80009da:	68c1      	ldr	r1, [r0, #12]
 80009dc:	f8da 3008 	ldr.w	r3, [sl, #8]
 80009e0:	4029      	ands	r1, r5
 80009e2:	40bb      	lsls	r3, r7
 80009e4:	430b      	orrs	r3, r1
 80009e6:	60c3      	str	r3, [r0, #12]
 80009e8:	3201      	adds	r2, #1
 80009ea:	fa3b f302 	lsrs.w	r3, fp, r2
 80009ee:	d07c      	beq.n	8000aea <HAL_GPIO_Init+0x17a>
 80009f0:	fa08 f102 	lsl.w	r1, r8, r2
 80009f4:	ea1b 0e01 	ands.w	lr, fp, r1
 80009f8:	d0f6      	beq.n	80009e8 <HAL_GPIO_Init+0x78>
 80009fa:	2403      	movs	r4, #3
 80009fc:	f8da 3004 	ldr.w	r3, [sl, #4]
 8000a00:	0057      	lsls	r7, r2, #1
 8000a02:	f023 0610 	bic.w	r6, r3, #16
 8000a06:	fa04 f507 	lsl.w	r5, r4, r7
 8000a0a:	2e02      	cmp	r6, #2
 8000a0c:	ea6f 0505 	mvn.w	r5, r5
 8000a10:	f103 39ff 	add.w	r9, r3, #4294967295	@ 0xffffffff
 8000a14:	d1c2      	bne.n	800099c <HAL_GPIO_Init+0x2c>
 8000a16:	fa06 f407 	lsl.w	r4, r6, r7
 8000a1a:	08d6      	lsrs	r6, r2, #3
 8000a1c:	eb00 0686 	add.w	r6, r0, r6, lsl #2
 8000a20:	9402      	str	r4, [sp, #8]
 8000a22:	4634      	mov	r4, r6
 8000a24:	f8da 6010 	ldr.w	r6, [sl, #16]
 8000a28:	f002 0c07 	and.w	ip, r2, #7
 8000a2c:	ea4f 0c8c 	mov.w	ip, ip, lsl #2
 8000a30:	f006 060f 	and.w	r6, r6, #15
 8000a34:	fa06 f60c 	lsl.w	r6, r6, ip
 8000a38:	9601      	str	r6, [sp, #4]
 8000a3a:	260f      	movs	r6, #15
 8000a3c:	fa06 fc0c 	lsl.w	ip, r6, ip
 8000a40:	6a26      	ldr	r6, [r4, #32]
 8000a42:	f1b9 0f01 	cmp.w	r9, #1
 8000a46:	ea26 0c0c 	bic.w	ip, r6, ip
 8000a4a:	9e01      	ldr	r6, [sp, #4]
 8000a4c:	ea46 060c 	orr.w	r6, r6, ip
 8000a50:	6226      	str	r6, [r4, #32]
 8000a52:	6806      	ldr	r6, [r0, #0]
 8000a54:	9c02      	ldr	r4, [sp, #8]
 8000a56:	ea06 0605 	and.w	r6, r6, r5
 8000a5a:	ea46 0604 	orr.w	r6, r6, r4
 8000a5e:	6006      	str	r6, [r0, #0]
 8000a60:	d0ab      	beq.n	80009ba <HAL_GPIO_Init+0x4a>
 8000a62:	2b12      	cmp	r3, #18
 8000a64:	d0a9      	beq.n	80009ba <HAL_GPIO_Init+0x4a>
 8000a66:	2b03      	cmp	r3, #3
 8000a68:	d0be      	beq.n	80009e8 <HAL_GPIO_Init+0x78>
 8000a6a:	68c1      	ldr	r1, [r0, #12]
 8000a6c:	400d      	ands	r5, r1
 8000a6e:	f8da 1008 	ldr.w	r1, [sl, #8]
 8000a72:	40b9      	lsls	r1, r7
 8000a74:	4329      	orrs	r1, r5
 8000a76:	00dd      	lsls	r5, r3, #3
 8000a78:	60c1      	str	r1, [r0, #12]
 8000a7a:	d5b5      	bpl.n	80009e8 <HAL_GPIO_Init+0x78>
 8000a7c:	240f      	movs	r4, #15
 8000a7e:	f022 0503 	bic.w	r5, r2, #3
 8000a82:	f105 458c 	add.w	r5, r5, #1174405120	@ 0x46000000
 8000a86:	f002 0103 	and.w	r1, r2, #3
 8000a8a:	f505 3508 	add.w	r5, r5, #139264	@ 0x22000
 8000a8e:	00c9      	lsls	r1, r1, #3
 8000a90:	6e2e      	ldr	r6, [r5, #96]	@ 0x60
 8000a92:	fa04 f701 	lsl.w	r7, r4, r1
 8000a96:	9c03      	ldr	r4, [sp, #12]
 8000a98:	ea26 0607 	bic.w	r6, r6, r7
 8000a9c:	fa04 f101 	lsl.w	r1, r4, r1
 8000aa0:	4331      	orrs	r1, r6
 8000aa2:	6629      	str	r1, [r5, #96]	@ 0x60
 8000aa4:	4974      	ldr	r1, [pc, #464]	@ (8000c78 <HAL_GPIO_Init+0x308>)
 8000aa6:	02dc      	lsls	r4, r3, #11
 8000aa8:	ea6f 050e 	mvn.w	r5, lr
 8000aac:	6809      	ldr	r1, [r1, #0]
 8000aae:	d428      	bmi.n	8000b02 <HAL_GPIO_Init+0x192>
 8000ab0:	4029      	ands	r1, r5
 8000ab2:	4c71      	ldr	r4, [pc, #452]	@ (8000c78 <HAL_GPIO_Init+0x308>)
 8000ab4:	029f      	lsls	r7, r3, #10
 8000ab6:	6021      	str	r1, [r4, #0]
 8000ab8:	6861      	ldr	r1, [r4, #4]
 8000aba:	d41f      	bmi.n	8000afc <HAL_GPIO_Init+0x18c>
 8000abc:	4029      	ands	r1, r5
 8000abe:	4c6e      	ldr	r4, [pc, #440]	@ (8000c78 <HAL_GPIO_Init+0x308>)
 8000ac0:	039e      	lsls	r6, r3, #14
 8000ac2:	6061      	str	r1, [r4, #4]
 8000ac4:	f8d4 1084 	ldr.w	r1, [r4, #132]	@ 0x84
 8000ac8:	d415      	bmi.n	8000af6 <HAL_GPIO_Init+0x186>
 8000aca:	4029      	ands	r1, r5
 8000acc:	4c6a      	ldr	r4, [pc, #424]	@ (8000c78 <HAL_GPIO_Init+0x308>)
 8000ace:	f8c4 1084 	str.w	r1, [r4, #132]	@ 0x84
 8000ad2:	f8d4 1080 	ldr.w	r1, [r4, #128]	@ 0x80
 8000ad6:	03dc      	lsls	r4, r3, #15
 8000ad8:	d40a      	bmi.n	8000af0 <HAL_GPIO_Init+0x180>
 8000ada:	4029      	ands	r1, r5
 8000adc:	4b66      	ldr	r3, [pc, #408]	@ (8000c78 <HAL_GPIO_Init+0x308>)
 8000ade:	3201      	adds	r2, #1
 8000ae0:	f8c3 1080 	str.w	r1, [r3, #128]	@ 0x80
 8000ae4:	fa3b f302 	lsrs.w	r3, fp, r2
 8000ae8:	d182      	bne.n	80009f0 <HAL_GPIO_Init+0x80>
 8000aea:	b005      	add	sp, #20
 8000aec:	e8bd 8ff0 	ldmia.w	sp!, {r4, r5, r6, r7, r8, r9, sl, fp, pc}
 8000af0:	ea41 010e 	orr.w	r1, r1, lr
 8000af4:	e7f2      	b.n	8000adc <HAL_GPIO_Init+0x16c>
 8000af6:	ea41 010e 	orr.w	r1, r1, lr
 8000afa:	e7e7      	b.n	8000acc <HAL_GPIO_Init+0x15c>
 8000afc:	ea41 010e 	orr.w	r1, r1, lr
 8000b00:	e7dd      	b.n	8000abe <HAL_GPIO_Init+0x14e>
 8000b02:	ea4e 0101 	orr.w	r1, lr, r1
 8000b06:	e7d4      	b.n	8000ab2 <HAL_GPIO_Init+0x142>
 8000b08:	2300      	movs	r3, #0
 8000b0a:	2701      	movs	r7, #1
 8000b0c:	4e5a      	ldr	r6, [pc, #360]	@ (8000c78 <HAL_GPIO_Init+0x308>)
 8000b0e:	fa07 f103 	lsl.w	r1, r7, r3
 8000b12:	ea11 050b 	ands.w	r5, r1, fp
 8000b16:	d059      	beq.n	8000bcc <HAL_GPIO_Init+0x25c>
 8000b18:	f04f 090f 	mov.w	r9, #15
 8000b1c:	6804      	ldr	r4, [r0, #0]
 8000b1e:	f8da 2004 	ldr.w	r2, [sl, #4]
 8000b22:	ea24 0401 	bic.w	r4, r4, r1
 8000b26:	4955      	ldr	r1, [pc, #340]	@ (8000c7c <HAL_GPIO_Init+0x30c>)
 8000b28:	f851 c033 	ldr.w	ip, [r1, r3, lsl #3]
 8000b2c:	f002 0101 	and.w	r1, r2, #1
 8000b30:	4099      	lsls	r1, r3
 8000b32:	4321      	orrs	r1, r4
 8000b34:	6001      	str	r1, [r0, #0]
 8000b36:	4952      	ldr	r1, [pc, #328]	@ (8000c80 <HAL_GPIO_Init+0x310>)
 8000b38:	ea4f 0edc 	mov.w	lr, ip, lsr #3
 8000b3c:	f851 1033 	ldr.w	r1, [r1, r3, lsl #3]
 8000b40:	f00c 0407 	and.w	r4, ip, #7
 8000b44:	eb01 0e8e 	add.w	lr, r1, lr, lsl #2
 8000b48:	f8de 8020 	ldr.w	r8, [lr, #32]
 8000b4c:	00a4      	lsls	r4, r4, #2
 8000b4e:	fa09 f904 	lsl.w	r9, r9, r4
 8000b52:	ea28 0809 	bic.w	r8, r8, r9
 8000b56:	f04f 090b 	mov.w	r9, #11
 8000b5a:	fa09 f404 	lsl.w	r4, r9, r4
 8000b5e:	ea44 0408 	orr.w	r4, r4, r8
 8000b62:	f04f 0803 	mov.w	r8, #3
 8000b66:	f8ce 4020 	str.w	r4, [lr, #32]
 8000b6a:	680c      	ldr	r4, [r1, #0]
 8000b6c:	ea4f 0e4c 	mov.w	lr, ip, lsl #1
 8000b70:	fa08 f80e 	lsl.w	r8, r8, lr
 8000b74:	ea24 0908 	bic.w	r9, r4, r8
 8000b78:	2402      	movs	r4, #2
 8000b7a:	fa04 f40e 	lsl.w	r4, r4, lr
 8000b7e:	ea44 0409 	orr.w	r4, r4, r9
 8000b82:	600c      	str	r4, [r1, #0]
 8000b84:	1e54      	subs	r4, r2, #1
 8000b86:	2c01      	cmp	r4, #1
 8000b88:	ea6f 0808 	mvn.w	r8, r8
 8000b8c:	d901      	bls.n	8000b92 <HAL_GPIO_Init+0x222>
 8000b8e:	2a11      	cmp	r2, #17
 8000b90:	d123      	bne.n	8000bda <HAL_GPIO_Init+0x26a>
 8000b92:	688c      	ldr	r4, [r1, #8]
 8000b94:	0912      	lsrs	r2, r2, #4
 8000b96:	fa07 f50c 	lsl.w	r5, r7, ip
 8000b9a:	fa02 f20c 	lsl.w	r2, r2, ip
 8000b9e:	ea08 0c04 	and.w	ip, r8, r4
 8000ba2:	f8da 400c 	ldr.w	r4, [sl, #12]
 8000ba6:	fa04 f40e 	lsl.w	r4, r4, lr
 8000baa:	ea44 040c 	orr.w	r4, r4, ip
 8000bae:	608c      	str	r4, [r1, #8]
 8000bb0:	684c      	ldr	r4, [r1, #4]
 8000bb2:	ea24 0405 	bic.w	r4, r4, r5
 8000bb6:	4322      	orrs	r2, r4
 8000bb8:	604a      	str	r2, [r1, #4]
 8000bba:	68cc      	ldr	r4, [r1, #12]
 8000bbc:	f8da 2008 	ldr.w	r2, [sl, #8]
 8000bc0:	ea08 0404 	and.w	r4, r8, r4
 8000bc4:	fa02 f20e 	lsl.w	r2, r2, lr
 8000bc8:	4322      	orrs	r2, r4
 8000bca:	60ca      	str	r2, [r1, #12]
 8000bcc:	3301      	adds	r3, #1
 8000bce:	fa3b f203 	lsrs.w	r2, fp, r3
 8000bd2:	d19c      	bne.n	8000b0e <HAL_GPIO_Init+0x19e>
 8000bd4:	b005      	add	sp, #20
 8000bd6:	e8bd 8ff0 	ldmia.w	sp!, {r4, r5, r6, r7, r8, r9, sl, fp, pc}
 8000bda:	2a12      	cmp	r2, #18
 8000bdc:	d0d9      	beq.n	8000b92 <HAL_GPIO_Init+0x222>
 8000bde:	2a03      	cmp	r2, #3
 8000be0:	d0f4      	beq.n	8000bcc <HAL_GPIO_Init+0x25c>
 8000be2:	68cc      	ldr	r4, [r1, #12]
 8000be4:	ea08 0804 	and.w	r8, r8, r4
 8000be8:	f8da 4008 	ldr.w	r4, [sl, #8]
 8000bec:	fa04 f40e 	lsl.w	r4, r4, lr
 8000bf0:	ea44 0408 	orr.w	r4, r4, r8
 8000bf4:	60cc      	str	r4, [r1, #12]
 8000bf6:	00d1      	lsls	r1, r2, #3
 8000bf8:	d5e8      	bpl.n	8000bcc <HAL_GPIO_Init+0x25c>
 8000bfa:	f04f 080f 	mov.w	r8, #15
 8000bfe:	f44f 3480 	mov.w	r4, #65536	@ 0x10000
 8000c02:	f023 0103 	bic.w	r1, r3, #3
 8000c06:	f101 418c 	add.w	r1, r1, #1174405120	@ 0x46000000
 8000c0a:	f501 3108 	add.w	r1, r1, #139264	@ 0x22000
 8000c0e:	f003 0c03 	and.w	ip, r3, #3
 8000c12:	f8d1 e060 	ldr.w	lr, [r1, #96]	@ 0x60
 8000c16:	ea4f 0ccc 	mov.w	ip, ip, lsl #3
 8000c1a:	fa08 f80c 	lsl.w	r8, r8, ip
 8000c1e:	ea2e 0e08 	bic.w	lr, lr, r8
 8000c22:	fa04 f40c 	lsl.w	r4, r4, ip
 8000c26:	ea44 040e 	orr.w	r4, r4, lr
 8000c2a:	660c      	str	r4, [r1, #96]	@ 0x60
 8000c2c:	43ec      	mvns	r4, r5
 8000c2e:	6831      	ldr	r1, [r6, #0]
 8000c30:	f412 1f80 	tst.w	r2, #1048576	@ 0x100000
 8000c34:	bf0c      	ite	eq
 8000c36:	4021      	andeq	r1, r4
 8000c38:	4329      	orrne	r1, r5
 8000c3a:	6031      	str	r1, [r6, #0]
 8000c3c:	6871      	ldr	r1, [r6, #4]
 8000c3e:	f412 1f00 	tst.w	r2, #2097152	@ 0x200000
 8000c42:	bf0c      	ite	eq
 8000c44:	4021      	andeq	r1, r4
 8000c46:	4329      	orrne	r1, r5
 8000c48:	6071      	str	r1, [r6, #4]
 8000c4a:	f8d6 1084 	ldr.w	r1, [r6, #132]	@ 0x84
 8000c4e:	f412 3f00 	tst.w	r2, #131072	@ 0x20000
 8000c52:	bf0c      	ite	eq
 8000c54:	4021      	andeq	r1, r4
 8000c56:	4329      	orrne	r1, r5
 8000c58:	f8c6 1084 	str.w	r1, [r6, #132]	@ 0x84
 8000c5c:	f8d6 1080 	ldr.w	r1, [r6, #128]	@ 0x80
 8000c60:	03d2      	lsls	r2, r2, #15
 8000c62:	bf54      	ite	pl
 8000c64:	4021      	andpl	r1, r4
 8000c66:	4329      	orrmi	r1, r5
 8000c68:	f8c6 1080 	str.w	r1, [r6, #128]	@ 0x80
 8000c6c:	e7ae      	b.n	8000bcc <HAL_GPIO_Init+0x25c>
 8000c6e:	bf00      	nop
 8000c70:	46020000 	.word	0x46020000
 8000c74:	002f7f7f 	.word	0x002f7f7f
 8000c78:	46022000 	.word	0x46022000
 8000c7c:	0800218c 	.word	0x0800218c
 8000c80:	08002188 	.word	0x08002188

08000c84 <HAL_GPIO_ReadPin>:
 8000c84:	6903      	ldr	r3, [r0, #16]
 8000c86:	4219      	tst	r1, r3
 8000c88:	bf14      	ite	ne
 8000c8a:	2001      	movne	r0, #1
 8000c8c:	2000      	moveq	r0, #0
 8000c8e:	4770      	bx	lr

08000c90 <HAL_GPIO_WritePin>:
 8000c90:	b10a      	cbz	r2, 8000c96 <HAL_GPIO_WritePin+0x6>
 8000c92:	6181      	str	r1, [r0, #24]
 8000c94:	4770      	bx	lr
 8000c96:	6281      	str	r1, [r0, #40]	@ 0x28
 8000c98:	4770      	bx	lr
 8000c9a:	bf00      	nop

08000c9c <HAL_GPIO_EXTI_Rising_Callback>:
 8000c9c:	4770      	bx	lr
 8000c9e:	bf00      	nop

08000ca0 <HAL_GPIO_EXTI_Falling_Callback>:
 8000ca0:	4770      	bx	lr
 8000ca2:	bf00      	nop

08000ca4 <HAL_GPIO_EXTI_IRQHandler>:
 8000ca4:	4b09      	ldr	r3, [pc, #36]	@ (8000ccc <HAL_GPIO_EXTI_IRQHandler+0x28>)
 8000ca6:	b510      	push	{r4, lr}
 8000ca8:	68da      	ldr	r2, [r3, #12]
 8000caa:	4604      	mov	r4, r0
 8000cac:	4202      	tst	r2, r0
 8000cae:	d109      	bne.n	8000cc4 <HAL_GPIO_EXTI_IRQHandler+0x20>
 8000cb0:	4b06      	ldr	r3, [pc, #24]	@ (8000ccc <HAL_GPIO_EXTI_IRQHandler+0x28>)
 8000cb2:	691a      	ldr	r2, [r3, #16]
 8000cb4:	4214      	tst	r4, r2
 8000cb6:	d100      	bne.n	8000cba <HAL_GPIO_EXTI_IRQHandler+0x16>
 8000cb8:	bd10      	pop	{r4, pc}
 8000cba:	4620      	mov	r0, r4
 8000cbc:	611c      	str	r4, [r3, #16]
 8000cbe:	f7ff ffef 	bl	8000ca0 <HAL_GPIO_EXTI_Falling_Callback>
 8000cc2:	bd10      	pop	{r4, pc}
 8000cc4:	60d8      	str	r0, [r3, #12]
 8000cc6:	f7ff ffe9 	bl	8000c9c <HAL_GPIO_EXTI_Rising_Callback>
 8000cca:	e7f1      	b.n	8000cb0 <HAL_GPIO_EXTI_IRQHandler+0xc>
 8000ccc:	46022000 	.word	0x46022000

08000cd0 <HAL_ICACHE_ConfigAssociativityMode>:
 8000cd0:	4908      	ldr	r1, [pc, #32]	@ (8000cf4 <HAL_ICACHE_ConfigAssociativityMode+0x24>)
 8000cd2:	680b      	ldr	r3, [r1, #0]
 8000cd4:	f013 0301 	ands.w	r3, r3, #1
 8000cd8:	d10a      	bne.n	8000cf0 <HAL_ICACHE_ConfigAssociativityMode+0x20>
 8000cda:	4602      	mov	r2, r0
 8000cdc:	b410      	push	{r4}
 8000cde:	680c      	ldr	r4, [r1, #0]
 8000ce0:	4618      	mov	r0, r3
 8000ce2:	f024 0304 	bic.w	r3, r4, #4
 8000ce6:	4313      	orrs	r3, r2
 8000ce8:	f85d 4b04 	ldr.w	r4, [sp], #4
 8000cec:	600b      	str	r3, [r1, #0]
 8000cee:	4770      	bx	lr
 8000cf0:	2001      	movs	r0, #1
 8000cf2:	4770      	bx	lr
 8000cf4:	40030400 	.word	0x40030400

08000cf8 <HAL_ICACHE_Enable>:
 8000cf8:	4a03      	ldr	r2, [pc, #12]	@ (8000d08 <HAL_ICACHE_Enable+0x10>)
 8000cfa:	2000      	movs	r0, #0
 8000cfc:	6813      	ldr	r3, [r2, #0]
 8000cfe:	f043 0301 	orr.w	r3, r3, #1
 8000d02:	6013      	str	r3, [r2, #0]
 8000d04:	4770      	bx	lr
 8000d06:	bf00      	nop
 8000d08:	40030400 	.word	0x40030400

08000d0c <HAL_PWREx_ControlVoltageScaling>:
 8000d0c:	4a21      	ldr	r2, [pc, #132]	@ (8000d94 <HAL_PWREx_ControlVoltageScaling+0x88>)
 8000d0e:	6bd3      	ldr	r3, [r2, #60]	@ 0x3c
 8000d10:	f403 3340 	and.w	r3, r3, #196608	@ 0x30000
 8000d14:	4283      	cmp	r3, r0
 8000d16:	d034      	beq.n	8000d82 <HAL_PWREx_ControlVoltageScaling+0x76>
 8000d18:	f04f 0c32 	mov.w	ip, #50	@ 0x32
 8000d1c:	68d3      	ldr	r3, [r2, #12]
 8000d1e:	f5b0 3f80 	cmp.w	r0, #65536	@ 0x10000
 8000d22:	f423 23e0 	bic.w	r3, r3, #458752	@ 0x70000
 8000d26:	ea43 0300 	orr.w	r3, r3, r0
 8000d2a:	bf88      	it	hi
 8000d2c:	f443 2380 	orrhi.w	r3, r3, #262144	@ 0x40000
 8000d30:	60d3      	str	r3, [r2, #12]
 8000d32:	4b19      	ldr	r3, [pc, #100]	@ (8000d98 <HAL_PWREx_ControlVoltageScaling+0x8c>)
 8000d34:	4a19      	ldr	r2, [pc, #100]	@ (8000d9c <HAL_PWREx_ControlVoltageScaling+0x90>)
 8000d36:	681b      	ldr	r3, [r3, #0]
 8000d38:	4816      	ldr	r0, [pc, #88]	@ (8000d94 <HAL_PWREx_ControlVoltageScaling+0x88>)
 8000d3a:	fba2 1303 	umull	r1, r3, r2, r3
 8000d3e:	099b      	lsrs	r3, r3, #6
 8000d40:	fb0c f303 	mul.w	r3, ip, r3
 8000d44:	fba2 2303 	umull	r2, r3, r2, r3
 8000d48:	68c1      	ldr	r1, [r0, #12]
 8000d4a:	099b      	lsrs	r3, r3, #6
 8000d4c:	040a      	lsls	r2, r1, #16
 8000d4e:	f103 0301 	add.w	r3, r3, #1
 8000d52:	d407      	bmi.n	8000d64 <HAL_PWREx_ControlVoltageScaling+0x58>
 8000d54:	461a      	mov	r2, r3
 8000d56:	e000      	b.n	8000d5a <HAL_PWREx_ControlVoltageScaling+0x4e>
 8000d58:	b18a      	cbz	r2, 8000d7e <HAL_PWREx_ControlVoltageScaling+0x72>
 8000d5a:	68c1      	ldr	r1, [r0, #12]
 8000d5c:	3a01      	subs	r2, #1
 8000d5e:	0409      	lsls	r1, r1, #16
 8000d60:	d5fa      	bpl.n	8000d58 <HAL_PWREx_ControlVoltageScaling+0x4c>
 8000d62:	b162      	cbz	r2, 8000d7e <HAL_PWREx_ControlVoltageScaling+0x72>
 8000d64:	490b      	ldr	r1, [pc, #44]	@ (8000d94 <HAL_PWREx_ControlVoltageScaling+0x88>)
 8000d66:	6bca      	ldr	r2, [r1, #60]	@ 0x3c
 8000d68:	0410      	lsls	r0, r2, #16
 8000d6a:	d406      	bmi.n	8000d7a <HAL_PWREx_ControlVoltageScaling+0x6e>
 8000d6c:	e000      	b.n	8000d70 <HAL_PWREx_ControlVoltageScaling+0x64>
 8000d6e:	b133      	cbz	r3, 8000d7e <HAL_PWREx_ControlVoltageScaling+0x72>
 8000d70:	6bca      	ldr	r2, [r1, #60]	@ 0x3c
 8000d72:	3b01      	subs	r3, #1
 8000d74:	0412      	lsls	r2, r2, #16
 8000d76:	d5fa      	bpl.n	8000d6e <HAL_PWREx_ControlVoltageScaling+0x62>
 8000d78:	b10b      	cbz	r3, 8000d7e <HAL_PWREx_ControlVoltageScaling+0x72>
 8000d7a:	2000      	movs	r0, #0
 8000d7c:	4770      	bx	lr
 8000d7e:	2003      	movs	r0, #3
 8000d80:	4770      	bx	lr
 8000d82:	f5b3 3f80 	cmp.w	r3, #65536	@ 0x10000
 8000d86:	d9f8      	bls.n	8000d7a <HAL_PWREx_ControlVoltageScaling+0x6e>
 8000d88:	68d3      	ldr	r3, [r2, #12]
 8000d8a:	2000      	movs	r0, #0
 8000d8c:	f443 2380 	orr.w	r3, r3, #262144	@ 0x40000
 8000d90:	60d3      	str	r3, [r2, #12]
 8000d92:	4770      	bx	lr
 8000d94:	46020800 	.word	0x46020800
 8000d98:	20000000 	.word	0x20000000
 8000d9c:	10624dd3 	.word	0x10624dd3

08000da0 <HAL_PWREx_GetVoltageRange>:
 8000da0:	4b02      	ldr	r3, [pc, #8]	@ (8000dac <HAL_PWREx_GetVoltageRange+0xc>)
 8000da2:	6bd8      	ldr	r0, [r3, #60]	@ 0x3c
 8000da4:	f400 3040 	and.w	r0, r0, #196608	@ 0x30000
 8000da8:	4770      	bx	lr
 8000daa:	bf00      	nop
 8000dac:	46020800 	.word	0x46020800

08000db0 <RCC_SetFlashLatencyFromMSIRange>:
 8000db0:	b530      	push	{r4, r5, lr}
 8000db2:	4d2c      	ldr	r5, [pc, #176]	@ (8000e64 <RCC_SetFlashLatencyFromMSIRange+0xb4>)
 8000db4:	4604      	mov	r4, r0
 8000db6:	f8d5 3094 	ldr.w	r3, [r5, #148]	@ 0x94
 8000dba:	b083      	sub	sp, #12
 8000dbc:	075b      	lsls	r3, r3, #29
 8000dbe:	d52b      	bpl.n	8000e18 <RCC_SetFlashLatencyFromMSIRange+0x68>
 8000dc0:	f7ff ffee 	bl	8000da0 <HAL_PWREx_GetVoltageRange>
 8000dc4:	f420 3380 	bic.w	r3, r0, #65536	@ 0x10000
 8000dc8:	f5b3 3f00 	cmp.w	r3, #131072	@ 0x20000
 8000dcc:	d007      	beq.n	8000dde <RCC_SetFlashLatencyFromMSIRange+0x2e>
 8000dce:	f1b4 5f80 	cmp.w	r4, #268435456	@ 0x10000000
 8000dd2:	d217      	bcs.n	8000e04 <RCC_SetFlashLatencyFromMSIRange+0x54>
 8000dd4:	f5b0 3f80 	cmp.w	r0, #65536	@ 0x10000
 8000dd8:	d133      	bne.n	8000e42 <RCC_SetFlashLatencyFromMSIRange+0x92>
 8000dda:	2203      	movs	r2, #3
 8000ddc:	e004      	b.n	8000de8 <RCC_SetFlashLatencyFromMSIRange+0x38>
 8000dde:	f1b4 5f80 	cmp.w	r4, #268435456	@ 0x10000000
 8000de2:	bf2c      	ite	cs
 8000de4:	2200      	movcs	r2, #0
 8000de6:	2201      	movcc	r2, #1
 8000de8:	491f      	ldr	r1, [pc, #124]	@ (8000e68 <RCC_SetFlashLatencyFromMSIRange+0xb8>)
 8000dea:	680b      	ldr	r3, [r1, #0]
 8000dec:	f023 030f 	bic.w	r3, r3, #15
 8000df0:	4313      	orrs	r3, r2
 8000df2:	600b      	str	r3, [r1, #0]
 8000df4:	6808      	ldr	r0, [r1, #0]
 8000df6:	f000 000f 	and.w	r0, r0, #15
 8000dfa:	1a80      	subs	r0, r0, r2
 8000dfc:	bf18      	it	ne
 8000dfe:	2001      	movne	r0, #1
 8000e00:	b003      	add	sp, #12
 8000e02:	bd30      	pop	{r4, r5, pc}
 8000e04:	f1b4 5f00 	cmp.w	r4, #536870912	@ 0x20000000
 8000e08:	d91e      	bls.n	8000e48 <RCC_SetFlashLatencyFromMSIRange+0x98>
 8000e0a:	bb10      	cbnz	r0, 8000e52 <RCC_SetFlashLatencyFromMSIRange+0xa2>
 8000e0c:	f1b4 5f40 	cmp.w	r4, #805306368	@ 0x30000000
 8000e10:	bf8c      	ite	hi
 8000e12:	2200      	movhi	r2, #0
 8000e14:	2201      	movls	r2, #1
 8000e16:	e7e7      	b.n	8000de8 <RCC_SetFlashLatencyFromMSIRange+0x38>
 8000e18:	f8d5 3094 	ldr.w	r3, [r5, #148]	@ 0x94
 8000e1c:	f043 0304 	orr.w	r3, r3, #4
 8000e20:	f8c5 3094 	str.w	r3, [r5, #148]	@ 0x94
 8000e24:	f8d5 3094 	ldr.w	r3, [r5, #148]	@ 0x94
 8000e28:	f003 0304 	and.w	r3, r3, #4
 8000e2c:	9301      	str	r3, [sp, #4]
 8000e2e:	9b01      	ldr	r3, [sp, #4]
 8000e30:	f7ff ffb6 	bl	8000da0 <HAL_PWREx_GetVoltageRange>
 8000e34:	f8d5 3094 	ldr.w	r3, [r5, #148]	@ 0x94
 8000e38:	f023 0304 	bic.w	r3, r3, #4
 8000e3c:	f8c5 3094 	str.w	r3, [r5, #148]	@ 0x94
 8000e40:	e7c0      	b.n	8000dc4 <RCC_SetFlashLatencyFromMSIRange+0x14>
 8000e42:	2001      	movs	r0, #1
 8000e44:	b003      	add	sp, #12
 8000e46:	bd30      	pop	{r4, r5, pc}
 8000e48:	f1b4 5f80 	cmp.w	r4, #268435456	@ 0x10000000
 8000e4c:	d003      	beq.n	8000e56 <RCC_SetFlashLatencyFromMSIRange+0xa6>
 8000e4e:	2201      	movs	r2, #1
 8000e50:	e7ca      	b.n	8000de8 <RCC_SetFlashLatencyFromMSIRange+0x38>
 8000e52:	2200      	movs	r2, #0
 8000e54:	e7c8      	b.n	8000de8 <RCC_SetFlashLatencyFromMSIRange+0x38>
 8000e56:	f5b0 3f80 	cmp.w	r0, #65536	@ 0x10000
 8000e5a:	bf0c      	ite	eq
 8000e5c:	2201      	moveq	r2, #1
 8000e5e:	2202      	movne	r2, #2
 8000e60:	e7c2      	b.n	8000de8 <RCC_SetFlashLatencyFromMSIRange+0x38>
 8000e62:	bf00      	nop
 8000e64:	46020c00 	.word	0x46020c00
 8000e68:	40022000 	.word	0x40022000

08000e6c <HAL_RCC_GetSysClockFreq>:
 8000e6c:	4a41      	ldr	r2, [pc, #260]	@ (8000f74 <HAL_RCC_GetSysClockFreq+0x108>)
 8000e6e:	69d3      	ldr	r3, [r2, #28]
 8000e70:	6a91      	ldr	r1, [r2, #40]	@ 0x28
 8000e72:	f013 030c 	ands.w	r3, r3, #12
 8000e76:	d00b      	beq.n	8000e90 <HAL_RCC_GetSysClockFreq+0x24>
 8000e78:	2b0c      	cmp	r3, #12
 8000e7a:	d05f      	beq.n	8000f3c <HAL_RCC_GetSysClockFreq+0xd0>
 8000e7c:	69d2      	ldr	r2, [r2, #28]
 8000e7e:	483e      	ldr	r0, [pc, #248]	@ (8000f78 <HAL_RCC_GetSysClockFreq+0x10c>)
 8000e80:	f002 020c 	and.w	r2, r2, #12
 8000e84:	2a04      	cmp	r2, #4
 8000e86:	d072      	beq.n	8000f6e <HAL_RCC_GetSysClockFreq+0x102>
 8000e88:	2b08      	cmp	r3, #8
 8000e8a:	bf18      	it	ne
 8000e8c:	2000      	movne	r0, #0
 8000e8e:	4770      	bx	lr
 8000e90:	4a38      	ldr	r2, [pc, #224]	@ (8000f74 <HAL_RCC_GetSysClockFreq+0x108>)
 8000e92:	6891      	ldr	r1, [r2, #8]
 8000e94:	0209      	lsls	r1, r1, #8
 8000e96:	bf54      	ite	pl
 8000e98:	f8d2 20f4 	ldrpl.w	r2, [r2, #244]	@ 0xf4
 8000e9c:	6892      	ldrmi	r2, [r2, #8]
 8000e9e:	4937      	ldr	r1, [pc, #220]	@ (8000f7c <HAL_RCC_GetSysClockFreq+0x110>)
 8000ea0:	bf54      	ite	pl
 8000ea2:	f3c2 3203 	ubfxpl	r2, r2, #12, #4
 8000ea6:	0f12      	lsrmi	r2, r2, #28
 8000ea8:	f851 0022 	ldr.w	r0, [r1, r2, lsl #2]
 8000eac:	2b00      	cmp	r3, #0
 8000eae:	d05f      	beq.n	8000f70 <HAL_RCC_GetSysClockFreq+0x104>
 8000eb0:	4930      	ldr	r1, [pc, #192]	@ (8000f74 <HAL_RCC_GetSysClockFreq+0x108>)
 8000eb2:	b510      	push	{r4, lr}
 8000eb4:	6a8a      	ldr	r2, [r1, #40]	@ 0x28
 8000eb6:	6a8b      	ldr	r3, [r1, #40]	@ 0x28
 8000eb8:	6a8c      	ldr	r4, [r1, #40]	@ 0x28
 8000eba:	f3c3 2303 	ubfx	r3, r3, #8, #4
 8000ebe:	3301      	adds	r3, #1
 8000ec0:	ee07 3a10 	vmov	s14, r3
 8000ec4:	6b8b      	ldr	r3, [r1, #56]	@ 0x38
 8000ec6:	f3c4 1e00 	ubfx	lr, r4, #4, #1
 8000eca:	f3c3 03cc 	ubfx	r3, r3, #3, #13
 8000ece:	fb0e f303 	mul.w	r3, lr, r3
 8000ed2:	ee07 3a90 	vmov	s15, r3
 8000ed6:	f002 0c03 	and.w	ip, r2, #3
 8000eda:	f1bc 0f02 	cmp.w	ip, #2
 8000ede:	eef8 7ae7 	vcvt.f32.s32	s15, s15
 8000ee2:	d002      	beq.n	8000eea <HAL_RCC_GetSysClockFreq+0x7e>
 8000ee4:	f1bc 0f03 	cmp.w	ip, #3
 8000ee8:	d12f      	bne.n	8000f4a <HAL_RCC_GetSysClockFreq+0xde>
 8000eea:	6b4b      	ldr	r3, [r1, #52]	@ 0x34
 8000eec:	eef7 6a00 	vmov.f32	s13, #112	@ 0x3f800000  1.0
 8000ef0:	f3c3 0308 	ubfx	r3, r3, #0, #9
 8000ef4:	ee06 3a10 	vmov	s12, r3
 8000ef8:	eddf 5a21 	vldr	s11, [pc, #132]	@ 8000f80 <HAL_RCC_GetSysClockFreq+0x114>
 8000efc:	eeb8 6ac6 	vcvt.f32.s32	s12, s12
 8000f00:	eeb8 7ac7 	vcvt.f32.s32	s14, s14
 8000f04:	ed9f 5a1f 	vldr	s10, [pc, #124]	@ 8000f84 <HAL_RCC_GetSysClockFreq+0x118>
 8000f08:	ee36 6a26 	vadd.f32	s12, s12, s13
 8000f0c:	eec5 6a07 	vdiv.f32	s13, s10, s14
 8000f10:	eeb0 7a46 	vmov.f32	s14, s12
 8000f14:	4b17      	ldr	r3, [pc, #92]	@ (8000f74 <HAL_RCC_GetSysClockFreq+0x108>)
 8000f16:	eea7 7aa5 	vfma.f32	s14, s15, s11
 8000f1a:	6b5b      	ldr	r3, [r3, #52]	@ 0x34
 8000f1c:	ee26 7a87 	vmul.f32	s14, s13, s14
 8000f20:	f3c3 6306 	ubfx	r3, r3, #24, #7
 8000f24:	3301      	adds	r3, #1
 8000f26:	ee07 3a90 	vmov	s15, r3
 8000f2a:	eef8 7ae7 	vcvt.f32.s32	s15, s15
 8000f2e:	eec7 6a27 	vdiv.f32	s13, s14, s15
 8000f32:	eefc 7ae6 	vcvt.u32.f32	s15, s13
 8000f36:	ee17 0a90 	vmov	r0, s15
 8000f3a:	bd10      	pop	{r4, pc}
 8000f3c:	f001 0103 	and.w	r1, r1, #3
 8000f40:	2901      	cmp	r1, #1
 8000f42:	d0a5      	beq.n	8000e90 <HAL_RCC_GetSysClockFreq+0x24>
 8000f44:	2000      	movs	r0, #0
 8000f46:	69d3      	ldr	r3, [r2, #28]
 8000f48:	e7b2      	b.n	8000eb0 <HAL_RCC_GetSysClockFreq+0x44>
 8000f4a:	6b4b      	ldr	r3, [r1, #52]	@ 0x34
 8000f4c:	ee05 0a90 	vmov	s11, r0
 8000f50:	f3c3 0308 	ubfx	r3, r3, #0, #9
 8000f54:	ee06 3a10 	vmov	s12, r3
 8000f58:	eeb8 5a65 	vcvt.f32.u32	s10, s11
 8000f5c:	eef7 6a00 	vmov.f32	s13, #112	@ 0x3f800000  1.0
 8000f60:	eeb8 6ac6 	vcvt.f32.s32	s12, s12
 8000f64:	eeb8 7ac7 	vcvt.f32.s32	s14, s14
 8000f68:	eddf 5a05 	vldr	s11, [pc, #20]	@ 8000f80 <HAL_RCC_GetSysClockFreq+0x114>
 8000f6c:	e7cc      	b.n	8000f08 <HAL_RCC_GetSysClockFreq+0x9c>
 8000f6e:	4770      	bx	lr
 8000f70:	4770      	bx	lr
 8000f72:	bf00      	nop
 8000f74:	46020c00 	.word	0x46020c00
 8000f78:	00f42400 	.word	0x00f42400
 8000f7c:	08002138 	.word	0x08002138
 8000f80:	39000000 	.word	0x39000000
 8000f84:	4b742400 	.word	0x4b742400

08000f88 <HAL_RCC_ClockConfig>:
 8000f88:	2800      	cmp	r0, #0
 8000f8a:	f000 810e 	beq.w	80011aa <HAL_RCC_ClockConfig+0x222>
 8000f8e:	4a9f      	ldr	r2, [pc, #636]	@ (800120c <HAL_RCC_ClockConfig+0x284>)
 8000f90:	e92d 41f0 	stmdb	sp!, {r4, r5, r6, r7, r8, lr}
 8000f94:	6813      	ldr	r3, [r2, #0]
 8000f96:	4604      	mov	r4, r0
 8000f98:	f003 030f 	and.w	r3, r3, #15
 8000f9c:	428b      	cmp	r3, r1
 8000f9e:	460d      	mov	r5, r1
 8000fa0:	b082      	sub	sp, #8
 8000fa2:	d20d      	bcs.n	8000fc0 <HAL_RCC_ClockConfig+0x38>
 8000fa4:	6813      	ldr	r3, [r2, #0]
 8000fa6:	f023 030f 	bic.w	r3, r3, #15
 8000faa:	430b      	orrs	r3, r1
 8000fac:	6013      	str	r3, [r2, #0]
 8000fae:	6813      	ldr	r3, [r2, #0]
 8000fb0:	f003 030f 	and.w	r3, r3, #15
 8000fb4:	428b      	cmp	r3, r1
 8000fb6:	d003      	beq.n	8000fc0 <HAL_RCC_ClockConfig+0x38>
 8000fb8:	2001      	movs	r0, #1
 8000fba:	b002      	add	sp, #8
 8000fbc:	e8bd 81f0 	ldmia.w	sp!, {r4, r5, r6, r7, r8, pc}
 8000fc0:	6823      	ldr	r3, [r4, #0]
 8000fc2:	06df      	lsls	r7, r3, #27
 8000fc4:	d50b      	bpl.n	8000fde <HAL_RCC_ClockConfig+0x56>
 8000fc6:	4992      	ldr	r1, [pc, #584]	@ (8001210 <HAL_RCC_ClockConfig+0x288>)
 8000fc8:	6960      	ldr	r0, [r4, #20]
 8000fca:	6a4a      	ldr	r2, [r1, #36]	@ 0x24
 8000fcc:	f002 0270 	and.w	r2, r2, #112	@ 0x70
 8000fd0:	4290      	cmp	r0, r2
 8000fd2:	d904      	bls.n	8000fde <HAL_RCC_ClockConfig+0x56>
 8000fd4:	6a4a      	ldr	r2, [r1, #36]	@ 0x24
 8000fd6:	f022 0270 	bic.w	r2, r2, #112	@ 0x70
 8000fda:	4302      	orrs	r2, r0
 8000fdc:	624a      	str	r2, [r1, #36]	@ 0x24
 8000fde:	071e      	lsls	r6, r3, #28
 8000fe0:	d50d      	bpl.n	8000ffe <HAL_RCC_ClockConfig+0x76>
 8000fe2:	498b      	ldr	r1, [pc, #556]	@ (8001210 <HAL_RCC_ClockConfig+0x288>)
 8000fe4:	6920      	ldr	r0, [r4, #16]
 8000fe6:	6a0a      	ldr	r2, [r1, #32]
 8000fe8:	0912      	lsrs	r2, r2, #4
 8000fea:	f002 0270 	and.w	r2, r2, #112	@ 0x70
 8000fee:	4290      	cmp	r0, r2
 8000ff0:	d905      	bls.n	8000ffe <HAL_RCC_ClockConfig+0x76>
 8000ff2:	6a0a      	ldr	r2, [r1, #32]
 8000ff4:	f422 62e0 	bic.w	r2, r2, #1792	@ 0x700
 8000ff8:	ea42 1200 	orr.w	r2, r2, r0, lsl #4
 8000ffc:	620a      	str	r2, [r1, #32]
 8000ffe:	0758      	lsls	r0, r3, #29
 8001000:	d50b      	bpl.n	800101a <HAL_RCC_ClockConfig+0x92>
 8001002:	4983      	ldr	r1, [pc, #524]	@ (8001210 <HAL_RCC_ClockConfig+0x288>)
 8001004:	68e0      	ldr	r0, [r4, #12]
 8001006:	6a0a      	ldr	r2, [r1, #32]
 8001008:	f002 0270 	and.w	r2, r2, #112	@ 0x70
 800100c:	4290      	cmp	r0, r2
 800100e:	d904      	bls.n	800101a <HAL_RCC_ClockConfig+0x92>
 8001010:	6a0a      	ldr	r2, [r1, #32]
 8001012:	f022 0270 	bic.w	r2, r2, #112	@ 0x70
 8001016:	4302      	orrs	r2, r0
 8001018:	620a      	str	r2, [r1, #32]
 800101a:	0799      	lsls	r1, r3, #30
 800101c:	f003 0201 	and.w	r2, r3, #1
 8001020:	d530      	bpl.n	8001084 <HAL_RCC_ClockConfig+0xfc>
 8001022:	4e7b      	ldr	r6, [pc, #492]	@ (8001210 <HAL_RCC_ClockConfig+0x288>)
 8001024:	68a0      	ldr	r0, [r4, #8]
 8001026:	6a31      	ldr	r1, [r6, #32]
 8001028:	f001 010f 	and.w	r1, r1, #15
 800102c:	4288      	cmp	r0, r1
 800102e:	d904      	bls.n	800103a <HAL_RCC_ClockConfig+0xb2>
 8001030:	6a31      	ldr	r1, [r6, #32]
 8001032:	f021 010f 	bic.w	r1, r1, #15
 8001036:	4301      	orrs	r1, r0
 8001038:	6231      	str	r1, [r6, #32]
 800103a:	2a00      	cmp	r2, #0
 800103c:	f000 8081 	beq.w	8001142 <HAL_RCC_ClockConfig+0x1ba>
 8001040:	6863      	ldr	r3, [r4, #4]
 8001042:	2b03      	cmp	r3, #3
 8001044:	f000 80b3 	beq.w	80011ae <HAL_RCC_ClockConfig+0x226>
 8001048:	4a71      	ldr	r2, [pc, #452]	@ (8001210 <HAL_RCC_ClockConfig+0x288>)
 800104a:	2b02      	cmp	r3, #2
 800104c:	6812      	ldr	r2, [r2, #0]
 800104e:	f000 8084 	beq.w	800115a <HAL_RCC_ClockConfig+0x1d2>
 8001052:	2b00      	cmp	r3, #0
 8001054:	f040 80be 	bne.w	80011d4 <HAL_RCC_ClockConfig+0x24c>
 8001058:	0757      	lsls	r7, r2, #29
 800105a:	d5ad      	bpl.n	8000fb8 <HAL_RCC_ClockConfig+0x30>
 800105c:	4e6c      	ldr	r6, [pc, #432]	@ (8001210 <HAL_RCC_ClockConfig+0x288>)
 800105e:	f241 3888 	movw	r8, #5000	@ 0x1388
 8001062:	69f2      	ldr	r2, [r6, #28]
 8001064:	f022 0203 	bic.w	r2, r2, #3
 8001068:	4313      	orrs	r3, r2
 800106a:	61f3      	str	r3, [r6, #28]
 800106c:	f7ff fbb6 	bl	80007dc <HAL_GetTick>
 8001070:	6863      	ldr	r3, [r4, #4]
 8001072:	4607      	mov	r7, r0
 8001074:	2b03      	cmp	r3, #3
 8001076:	d05b      	beq.n	8001130 <HAL_RCC_ClockConfig+0x1a8>
 8001078:	2b02      	cmp	r3, #2
 800107a:	d077      	beq.n	800116c <HAL_RCC_ClockConfig+0x1e4>
 800107c:	2b00      	cmp	r3, #0
 800107e:	f040 808a 	bne.w	8001196 <HAL_RCC_ClockConfig+0x20e>
 8001082:	e07e      	b.n	8001182 <HAL_RCC_ClockConfig+0x1fa>
 8001084:	2a00      	cmp	r2, #0
 8001086:	d1db      	bne.n	8001040 <HAL_RCC_ClockConfig+0xb8>
 8001088:	4960      	ldr	r1, [pc, #384]	@ (800120c <HAL_RCC_ClockConfig+0x284>)
 800108a:	680a      	ldr	r2, [r1, #0]
 800108c:	f002 020f 	and.w	r2, r2, #15
 8001090:	42aa      	cmp	r2, r5
 8001092:	d909      	bls.n	80010a8 <HAL_RCC_ClockConfig+0x120>
 8001094:	680a      	ldr	r2, [r1, #0]
 8001096:	f022 020f 	bic.w	r2, r2, #15
 800109a:	432a      	orrs	r2, r5
 800109c:	600a      	str	r2, [r1, #0]
 800109e:	680a      	ldr	r2, [r1, #0]
 80010a0:	f002 020f 	and.w	r2, r2, #15
 80010a4:	42aa      	cmp	r2, r5
 80010a6:	d187      	bne.n	8000fb8 <HAL_RCC_ClockConfig+0x30>
 80010a8:	0759      	lsls	r1, r3, #29
 80010aa:	d50b      	bpl.n	80010c4 <HAL_RCC_ClockConfig+0x13c>
 80010ac:	4958      	ldr	r1, [pc, #352]	@ (8001210 <HAL_RCC_ClockConfig+0x288>)
 80010ae:	68e0      	ldr	r0, [r4, #12]
 80010b0:	6a0a      	ldr	r2, [r1, #32]
 80010b2:	f002 0270 	and.w	r2, r2, #112	@ 0x70
 80010b6:	4290      	cmp	r0, r2
 80010b8:	d204      	bcs.n	80010c4 <HAL_RCC_ClockConfig+0x13c>
 80010ba:	6a0a      	ldr	r2, [r1, #32]
 80010bc:	f022 0270 	bic.w	r2, r2, #112	@ 0x70
 80010c0:	4302      	orrs	r2, r0
 80010c2:	620a      	str	r2, [r1, #32]
 80010c4:	071a      	lsls	r2, r3, #28
 80010c6:	d50d      	bpl.n	80010e4 <HAL_RCC_ClockConfig+0x15c>
 80010c8:	4951      	ldr	r1, [pc, #324]	@ (8001210 <HAL_RCC_ClockConfig+0x288>)
 80010ca:	6920      	ldr	r0, [r4, #16]
 80010cc:	6a0a      	ldr	r2, [r1, #32]
 80010ce:	0912      	lsrs	r2, r2, #4
 80010d0:	f002 0270 	and.w	r2, r2, #112	@ 0x70
 80010d4:	4290      	cmp	r0, r2
 80010d6:	d205      	bcs.n	80010e4 <HAL_RCC_ClockConfig+0x15c>
 80010d8:	6a0a      	ldr	r2, [r1, #32]
 80010da:	f422 62e0 	bic.w	r2, r2, #1792	@ 0x700
 80010de:	ea42 1200 	orr.w	r2, r2, r0, lsl #4
 80010e2:	620a      	str	r2, [r1, #32]
 80010e4:	06db      	lsls	r3, r3, #27
 80010e6:	d50b      	bpl.n	8001100 <HAL_RCC_ClockConfig+0x178>
 80010e8:	4a49      	ldr	r2, [pc, #292]	@ (8001210 <HAL_RCC_ClockConfig+0x288>)
 80010ea:	6961      	ldr	r1, [r4, #20]
 80010ec:	6a53      	ldr	r3, [r2, #36]	@ 0x24
 80010ee:	f003 0370 	and.w	r3, r3, #112	@ 0x70
 80010f2:	4299      	cmp	r1, r3
 80010f4:	d204      	bcs.n	8001100 <HAL_RCC_ClockConfig+0x178>
 80010f6:	6a53      	ldr	r3, [r2, #36]	@ 0x24
 80010f8:	f023 0370 	bic.w	r3, r3, #112	@ 0x70
 80010fc:	430b      	orrs	r3, r1
 80010fe:	6253      	str	r3, [r2, #36]	@ 0x24
 8001100:	f7ff feb4 	bl	8000e6c <HAL_RCC_GetSysClockFreq>
 8001104:	4603      	mov	r3, r0
 8001106:	4a42      	ldr	r2, [pc, #264]	@ (8001210 <HAL_RCC_ClockConfig+0x288>)
 8001108:	4942      	ldr	r1, [pc, #264]	@ (8001214 <HAL_RCC_ClockConfig+0x28c>)
 800110a:	6a12      	ldr	r2, [r2, #32]
 800110c:	4842      	ldr	r0, [pc, #264]	@ (8001218 <HAL_RCC_ClockConfig+0x290>)
 800110e:	f002 020f 	and.w	r2, r2, #15
 8001112:	5c89      	ldrb	r1, [r1, r2]
 8001114:	6800      	ldr	r0, [r0, #0]
 8001116:	4a41      	ldr	r2, [pc, #260]	@ (800121c <HAL_RCC_ClockConfig+0x294>)
 8001118:	40cb      	lsrs	r3, r1
 800111a:	6013      	str	r3, [r2, #0]
 800111c:	b002      	add	sp, #8
 800111e:	e8bd 41f0 	ldmia.w	sp!, {r4, r5, r6, r7, r8, lr}
 8001122:	f7ff bad3 	b.w	80006cc <HAL_InitTick>
 8001126:	f7ff fb59 	bl	80007dc <HAL_GetTick>
 800112a:	1bc3      	subs	r3, r0, r7
 800112c:	4543      	cmp	r3, r8
 800112e:	d838      	bhi.n	80011a2 <HAL_RCC_ClockConfig+0x21a>
 8001130:	69f3      	ldr	r3, [r6, #28]
 8001132:	f003 030c 	and.w	r3, r3, #12
 8001136:	2b0c      	cmp	r3, #12
 8001138:	d1f5      	bne.n	8001126 <HAL_RCC_ClockConfig+0x19e>
 800113a:	6823      	ldr	r3, [r4, #0]
 800113c:	0798      	lsls	r0, r3, #30
 800113e:	d5a3      	bpl.n	8001088 <HAL_RCC_ClockConfig+0x100>
 8001140:	68a0      	ldr	r0, [r4, #8]
 8001142:	4933      	ldr	r1, [pc, #204]	@ (8001210 <HAL_RCC_ClockConfig+0x288>)
 8001144:	6a0a      	ldr	r2, [r1, #32]
 8001146:	f002 020f 	and.w	r2, r2, #15
 800114a:	4282      	cmp	r2, r0
 800114c:	d99c      	bls.n	8001088 <HAL_RCC_ClockConfig+0x100>
 800114e:	6a0a      	ldr	r2, [r1, #32]
 8001150:	f022 020f 	bic.w	r2, r2, #15
 8001154:	4302      	orrs	r2, r0
 8001156:	620a      	str	r2, [r1, #32]
 8001158:	e796      	b.n	8001088 <HAL_RCC_ClockConfig+0x100>
 800115a:	0392      	lsls	r2, r2, #14
 800115c:	f53f af7e 	bmi.w	800105c <HAL_RCC_ClockConfig+0xd4>
 8001160:	e72a      	b.n	8000fb8 <HAL_RCC_ClockConfig+0x30>
 8001162:	f7ff fb3b 	bl	80007dc <HAL_GetTick>
 8001166:	1bc0      	subs	r0, r0, r7
 8001168:	4540      	cmp	r0, r8
 800116a:	d81a      	bhi.n	80011a2 <HAL_RCC_ClockConfig+0x21a>
 800116c:	69f3      	ldr	r3, [r6, #28]
 800116e:	f003 030c 	and.w	r3, r3, #12
 8001172:	2b08      	cmp	r3, #8
 8001174:	d1f5      	bne.n	8001162 <HAL_RCC_ClockConfig+0x1da>
 8001176:	e7e0      	b.n	800113a <HAL_RCC_ClockConfig+0x1b2>
 8001178:	f7ff fb30 	bl	80007dc <HAL_GetTick>
 800117c:	1bc0      	subs	r0, r0, r7
 800117e:	4540      	cmp	r0, r8
 8001180:	d80f      	bhi.n	80011a2 <HAL_RCC_ClockConfig+0x21a>
 8001182:	69f3      	ldr	r3, [r6, #28]
 8001184:	f013 0f0c 	tst.w	r3, #12
 8001188:	d1f6      	bne.n	8001178 <HAL_RCC_ClockConfig+0x1f0>
 800118a:	e7d6      	b.n	800113a <HAL_RCC_ClockConfig+0x1b2>
 800118c:	f7ff fb26 	bl	80007dc <HAL_GetTick>
 8001190:	1bc0      	subs	r0, r0, r7
 8001192:	4540      	cmp	r0, r8
 8001194:	d805      	bhi.n	80011a2 <HAL_RCC_ClockConfig+0x21a>
 8001196:	69f3      	ldr	r3, [r6, #28]
 8001198:	f003 030c 	and.w	r3, r3, #12
 800119c:	2b04      	cmp	r3, #4
 800119e:	d1f5      	bne.n	800118c <HAL_RCC_ClockConfig+0x204>
 80011a0:	e7cb      	b.n	800113a <HAL_RCC_ClockConfig+0x1b2>
 80011a2:	2003      	movs	r0, #3
 80011a4:	b002      	add	sp, #8
 80011a6:	e8bd 81f0 	ldmia.w	sp!, {r4, r5, r6, r7, r8, pc}
 80011aa:	2001      	movs	r0, #1
 80011ac:	4770      	bx	lr
 80011ae:	4b18      	ldr	r3, [pc, #96]	@ (8001210 <HAL_RCC_ClockConfig+0x288>)
 80011b0:	f8d3 2094 	ldr.w	r2, [r3, #148]	@ 0x94
 80011b4:	0752      	lsls	r2, r2, #29
 80011b6:	d511      	bpl.n	80011dc <HAL_RCC_ClockConfig+0x254>
 80011b8:	f7ff fb10 	bl	80007dc <HAL_GetTick>
 80011bc:	4b18      	ldr	r3, [pc, #96]	@ (8001220 <HAL_RCC_ClockConfig+0x298>)
 80011be:	4606      	mov	r6, r0
 80011c0:	68db      	ldr	r3, [r3, #12]
 80011c2:	035b      	lsls	r3, r3, #13
 80011c4:	d441      	bmi.n	800124a <HAL_RCC_ClockConfig+0x2c2>
 80011c6:	4b12      	ldr	r3, [pc, #72]	@ (8001210 <HAL_RCC_ClockConfig+0x288>)
 80011c8:	681b      	ldr	r3, [r3, #0]
 80011ca:	0199      	lsls	r1, r3, #6
 80011cc:	f57f aef4 	bpl.w	8000fb8 <HAL_RCC_ClockConfig+0x30>
 80011d0:	6863      	ldr	r3, [r4, #4]
 80011d2:	e743      	b.n	800105c <HAL_RCC_ClockConfig+0xd4>
 80011d4:	0556      	lsls	r6, r2, #21
 80011d6:	f57f aeef 	bpl.w	8000fb8 <HAL_RCC_ClockConfig+0x30>
 80011da:	e73f      	b.n	800105c <HAL_RCC_ClockConfig+0xd4>
 80011dc:	f8d3 2094 	ldr.w	r2, [r3, #148]	@ 0x94
 80011e0:	f042 0204 	orr.w	r2, r2, #4
 80011e4:	f8c3 2094 	str.w	r2, [r3, #148]	@ 0x94
 80011e8:	f8d3 3094 	ldr.w	r3, [r3, #148]	@ 0x94
 80011ec:	f003 0304 	and.w	r3, r3, #4
 80011f0:	9301      	str	r3, [sp, #4]
 80011f2:	9b01      	ldr	r3, [sp, #4]
 80011f4:	f7ff faf2 	bl	80007dc <HAL_GetTick>
 80011f8:	4b09      	ldr	r3, [pc, #36]	@ (8001220 <HAL_RCC_ClockConfig+0x298>)
 80011fa:	4606      	mov	r6, r0
 80011fc:	68db      	ldr	r3, [r3, #12]
 80011fe:	035f      	lsls	r7, r3, #13
 8001200:	d51b      	bpl.n	800123a <HAL_RCC_ClockConfig+0x2b2>
 8001202:	f04f 0801 	mov.w	r8, #1
 8001206:	4f06      	ldr	r7, [pc, #24]	@ (8001220 <HAL_RCC_ClockConfig+0x298>)
 8001208:	e011      	b.n	800122e <HAL_RCC_ClockConfig+0x2a6>
 800120a:	bf00      	nop
 800120c:	40022000 	.word	0x40022000
 8001210:	46020c00 	.word	0x46020c00
 8001214:	08002178 	.word	0x08002178
 8001218:	20000008 	.word	0x20000008
 800121c:	20000000 	.word	0x20000000
 8001220:	46020800 	.word	0x46020800
 8001224:	f7ff fada 	bl	80007dc <HAL_GetTick>
 8001228:	1b80      	subs	r0, r0, r6
 800122a:	2802      	cmp	r0, #2
 800122c:	d8b9      	bhi.n	80011a2 <HAL_RCC_ClockConfig+0x21a>
 800122e:	68fb      	ldr	r3, [r7, #12]
 8001230:	0458      	lsls	r0, r3, #17
 8001232:	d5f7      	bpl.n	8001224 <HAL_RCC_ClockConfig+0x29c>
 8001234:	f1b8 0f00 	cmp.w	r8, #0
 8001238:	d0c5      	beq.n	80011c6 <HAL_RCC_ClockConfig+0x23e>
 800123a:	4a05      	ldr	r2, [pc, #20]	@ (8001250 <HAL_RCC_ClockConfig+0x2c8>)
 800123c:	f8d2 3094 	ldr.w	r3, [r2, #148]	@ 0x94
 8001240:	f023 0304 	bic.w	r3, r3, #4
 8001244:	f8c2 3094 	str.w	r3, [r2, #148]	@ 0x94
 8001248:	e7bd      	b.n	80011c6 <HAL_RCC_ClockConfig+0x23e>
 800124a:	f04f 0800 	mov.w	r8, #0
 800124e:	e7da      	b.n	8001206 <HAL_RCC_ClockConfig+0x27e>
 8001250:	46020c00 	.word	0x46020c00

08001254 <HAL_RCC_OscConfig>:
 8001254:	2800      	cmp	r0, #0
 8001256:	f000 82a4 	beq.w	80017a2 <HAL_RCC_OscConfig+0x54e>
 800125a:	e92d 41f0 	stmdb	sp!, {r4, r5, r6, r7, r8, lr}
 800125e:	4aae      	ldr	r2, [pc, #696]	@ (8001518 <HAL_RCC_OscConfig+0x2c4>)
 8001260:	6803      	ldr	r3, [r0, #0]
 8001262:	69d5      	ldr	r5, [r2, #28]
 8001264:	6a96      	ldr	r6, [r2, #40]	@ 0x28
 8001266:	06da      	lsls	r2, r3, #27
 8001268:	4604      	mov	r4, r0
 800126a:	b084      	sub	sp, #16
 800126c:	f005 050c 	and.w	r5, r5, #12
 8001270:	f006 0603 	and.w	r6, r6, #3
 8001274:	d531      	bpl.n	80012da <HAL_RCC_OscConfig+0x86>
 8001276:	2d00      	cmp	r5, #0
 8001278:	f000 81b2 	beq.w	80015e0 <HAL_RCC_OscConfig+0x38c>
 800127c:	2d0c      	cmp	r5, #12
 800127e:	f000 81ac 	beq.w	80015da <HAL_RCC_OscConfig+0x386>
 8001282:	69e3      	ldr	r3, [r4, #28]
 8001284:	4fa4      	ldr	r7, [pc, #656]	@ (8001518 <HAL_RCC_OscConfig+0x2c4>)
 8001286:	2b00      	cmp	r3, #0
 8001288:	f000 822b 	beq.w	80016e2 <HAL_RCC_OscConfig+0x48e>
 800128c:	683b      	ldr	r3, [r7, #0]
 800128e:	f043 0301 	orr.w	r3, r3, #1
 8001292:	603b      	str	r3, [r7, #0]
 8001294:	f7ff faa2 	bl	80007dc <HAL_GetTick>
 8001298:	4680      	mov	r8, r0
 800129a:	e006      	b.n	80012aa <HAL_RCC_OscConfig+0x56>
 800129c:	f7ff fa9e 	bl	80007dc <HAL_GetTick>
 80012a0:	eba0 0008 	sub.w	r0, r0, r8
 80012a4:	2802      	cmp	r0, #2
 80012a6:	f200 820e 	bhi.w	80016c6 <HAL_RCC_OscConfig+0x472>
 80012aa:	683b      	ldr	r3, [r7, #0]
 80012ac:	075a      	lsls	r2, r3, #29
 80012ae:	d5f5      	bpl.n	800129c <HAL_RCC_OscConfig+0x48>
 80012b0:	68bb      	ldr	r3, [r7, #8]
 80012b2:	f443 0300 	orr.w	r3, r3, #8388608	@ 0x800000
 80012b6:	60bb      	str	r3, [r7, #8]
 80012b8:	68bb      	ldr	r3, [r7, #8]
 80012ba:	6a62      	ldr	r2, [r4, #36]	@ 0x24
 80012bc:	f023 4370 	bic.w	r3, r3, #4026531840	@ 0xf0000000
 80012c0:	4313      	orrs	r3, r2
 80012c2:	60bb      	str	r3, [r7, #8]
 80012c4:	f1b2 4f40 	cmp.w	r2, #3221225472	@ 0xc0000000
 80012c8:	6a21      	ldr	r1, [r4, #32]
 80012ca:	68fb      	ldr	r3, [r7, #12]
 80012cc:	f0c0 8367 	bcc.w	800199e <HAL_RCC_OscConfig+0x74a>
 80012d0:	f023 031f 	bic.w	r3, r3, #31
 80012d4:	430b      	orrs	r3, r1
 80012d6:	60fb      	str	r3, [r7, #12]
 80012d8:	6823      	ldr	r3, [r4, #0]
 80012da:	07df      	lsls	r7, r3, #31
 80012dc:	d531      	bpl.n	8001342 <HAL_RCC_OscConfig+0xee>
 80012de:	2d08      	cmp	r5, #8
 80012e0:	6862      	ldr	r2, [r4, #4]
 80012e2:	f000 81bd 	beq.w	8001660 <HAL_RCC_OscConfig+0x40c>
 80012e6:	2d0c      	cmp	r5, #12
 80012e8:	f000 81b7 	beq.w	800165a <HAL_RCC_OscConfig+0x406>
 80012ec:	f5b2 3f80 	cmp.w	r2, #65536	@ 0x10000
 80012f0:	f000 825b 	beq.w	80017aa <HAL_RCC_OscConfig+0x556>
 80012f4:	f5b2 2fa0 	cmp.w	r2, #327680	@ 0x50000
 80012f8:	f000 833c 	beq.w	8001974 <HAL_RCC_OscConfig+0x720>
 80012fc:	f5b2 1fa8 	cmp.w	r2, #1376256	@ 0x150000
 8001300:	f000 82fb 	beq.w	80018fa <HAL_RCC_OscConfig+0x6a6>
 8001304:	4f84      	ldr	r7, [pc, #528]	@ (8001518 <HAL_RCC_OscConfig+0x2c4>)
 8001306:	683b      	ldr	r3, [r7, #0]
 8001308:	f423 3380 	bic.w	r3, r3, #65536	@ 0x10000
 800130c:	603b      	str	r3, [r7, #0]
 800130e:	683b      	ldr	r3, [r7, #0]
 8001310:	f423 2380 	bic.w	r3, r3, #262144	@ 0x40000
 8001314:	603b      	str	r3, [r7, #0]
 8001316:	683b      	ldr	r3, [r7, #0]
 8001318:	f423 1380 	bic.w	r3, r3, #1048576	@ 0x100000
 800131c:	603b      	str	r3, [r7, #0]
 800131e:	2a00      	cmp	r2, #0
 8001320:	f040 8248 	bne.w	80017b4 <HAL_RCC_OscConfig+0x560>
 8001324:	f7ff fa5a 	bl	80007dc <HAL_GetTick>
 8001328:	4680      	mov	r8, r0
 800132a:	e006      	b.n	800133a <HAL_RCC_OscConfig+0xe6>
 800132c:	f7ff fa56 	bl	80007dc <HAL_GetTick>
 8001330:	eba0 0008 	sub.w	r0, r0, r8
 8001334:	2864      	cmp	r0, #100	@ 0x64
 8001336:	f200 81c6 	bhi.w	80016c6 <HAL_RCC_OscConfig+0x472>
 800133a:	683b      	ldr	r3, [r7, #0]
 800133c:	0399      	lsls	r1, r3, #14
 800133e:	d4f5      	bmi.n	800132c <HAL_RCC_OscConfig+0xd8>
 8001340:	6823      	ldr	r3, [r4, #0]
 8001342:	079a      	lsls	r2, r3, #30
 8001344:	d50f      	bpl.n	8001366 <HAL_RCC_OscConfig+0x112>
 8001346:	2d04      	cmp	r5, #4
 8001348:	f040 81c4 	bne.w	80016d4 <HAL_RCC_OscConfig+0x480>
 800134c:	68e3      	ldr	r3, [r4, #12]
 800134e:	2b00      	cmp	r3, #0
 8001350:	f000 817f 	beq.w	8001652 <HAL_RCC_OscConfig+0x3fe>
 8001354:	4a70      	ldr	r2, [pc, #448]	@ (8001518 <HAL_RCC_OscConfig+0x2c4>)
 8001356:	6921      	ldr	r1, [r4, #16]
 8001358:	6913      	ldr	r3, [r2, #16]
 800135a:	f423 13f8 	bic.w	r3, r3, #2031616	@ 0x1f0000
 800135e:	ea43 4301 	orr.w	r3, r3, r1, lsl #16
 8001362:	6113      	str	r3, [r2, #16]
 8001364:	6823      	ldr	r3, [r4, #0]
 8001366:	0718      	lsls	r0, r3, #28
 8001368:	d54d      	bpl.n	8001406 <HAL_RCC_OscConfig+0x1b2>
 800136a:	4b6b      	ldr	r3, [pc, #428]	@ (8001518 <HAL_RCC_OscConfig+0x2c4>)
 800136c:	f8d3 2094 	ldr.w	r2, [r3, #148]	@ 0x94
 8001370:	0751      	lsls	r1, r2, #29
 8001372:	f100 81b4 	bmi.w	80016de <HAL_RCC_OscConfig+0x48a>
 8001376:	2501      	movs	r5, #1
 8001378:	f8d3 2094 	ldr.w	r2, [r3, #148]	@ 0x94
 800137c:	f042 0204 	orr.w	r2, r2, #4
 8001380:	f8c3 2094 	str.w	r2, [r3, #148]	@ 0x94
 8001384:	f8d3 3094 	ldr.w	r3, [r3, #148]	@ 0x94
 8001388:	f003 0304 	and.w	r3, r3, #4
 800138c:	9301      	str	r3, [sp, #4]
 800138e:	9b01      	ldr	r3, [sp, #4]
 8001390:	4e62      	ldr	r6, [pc, #392]	@ (800151c <HAL_RCC_OscConfig+0x2c8>)
 8001392:	6ab3      	ldr	r3, [r6, #40]	@ 0x28
 8001394:	07da      	lsls	r2, r3, #31
 8001396:	f140 8186 	bpl.w	80016a6 <HAL_RCC_OscConfig+0x452>
 800139a:	6963      	ldr	r3, [r4, #20]
 800139c:	2b00      	cmp	r3, #0
 800139e:	f000 825d 	beq.w	800185c <HAL_RCC_OscConfig+0x608>
 80013a2:	4e5d      	ldr	r6, [pc, #372]	@ (8001518 <HAL_RCC_OscConfig+0x2c4>)
 80013a4:	69a2      	ldr	r2, [r4, #24]
 80013a6:	f8d6 30f0 	ldr.w	r3, [r6, #240]	@ 0xf0
 80013aa:	f003 5180 	and.w	r1, r3, #268435456	@ 0x10000000
 80013ae:	428a      	cmp	r2, r1
 80013b0:	d010      	beq.n	80013d4 <HAL_RCC_OscConfig+0x180>
 80013b2:	f003 6140 	and.w	r1, r3, #201326592	@ 0xc000000
 80013b6:	f1b1 6f00 	cmp.w	r1, #134217728	@ 0x8000000
 80013ba:	f000 814a 	beq.w	8001652 <HAL_RCC_OscConfig+0x3fe>
 80013be:	0158      	lsls	r0, r3, #5
 80013c0:	f100 82b1 	bmi.w	8001926 <HAL_RCC_OscConfig+0x6d2>
 80013c4:	4954      	ldr	r1, [pc, #336]	@ (8001518 <HAL_RCC_OscConfig+0x2c4>)
 80013c6:	f8d1 30f0 	ldr.w	r3, [r1, #240]	@ 0xf0
 80013ca:	f023 5380 	bic.w	r3, r3, #268435456	@ 0x10000000
 80013ce:	4313      	orrs	r3, r2
 80013d0:	f8c1 30f0 	str.w	r3, [r1, #240]	@ 0xf0
 80013d4:	4e50      	ldr	r6, [pc, #320]	@ (8001518 <HAL_RCC_OscConfig+0x2c4>)
 80013d6:	f8d6 30f0 	ldr.w	r3, [r6, #240]	@ 0xf0
 80013da:	f043 6380 	orr.w	r3, r3, #67108864	@ 0x4000000
 80013de:	f8c6 30f0 	str.w	r3, [r6, #240]	@ 0xf0
 80013e2:	f7ff f9fb 	bl	80007dc <HAL_GetTick>
 80013e6:	4607      	mov	r7, r0
 80013e8:	e005      	b.n	80013f6 <HAL_RCC_OscConfig+0x1a2>
 80013ea:	f7ff f9f7 	bl	80007dc <HAL_GetTick>
 80013ee:	1bc0      	subs	r0, r0, r7
 80013f0:	2805      	cmp	r0, #5
 80013f2:	f200 8168 	bhi.w	80016c6 <HAL_RCC_OscConfig+0x472>
 80013f6:	f8d6 30f0 	ldr.w	r3, [r6, #240]	@ 0xf0
 80013fa:	011a      	lsls	r2, r3, #4
 80013fc:	d5f5      	bpl.n	80013ea <HAL_RCC_OscConfig+0x196>
 80013fe:	2d00      	cmp	r5, #0
 8001400:	f040 8289 	bne.w	8001916 <HAL_RCC_OscConfig+0x6c2>
 8001404:	6823      	ldr	r3, [r4, #0]
 8001406:	075d      	lsls	r5, r3, #29
 8001408:	d55e      	bpl.n	80014c8 <HAL_RCC_OscConfig+0x274>
 800140a:	4b43      	ldr	r3, [pc, #268]	@ (8001518 <HAL_RCC_OscConfig+0x2c4>)
 800140c:	f8d3 2094 	ldr.w	r2, [r3, #148]	@ 0x94
 8001410:	0750      	lsls	r0, r2, #29
 8001412:	f100 81c8 	bmi.w	80017a6 <HAL_RCC_OscConfig+0x552>
 8001416:	2501      	movs	r5, #1
 8001418:	f8d3 2094 	ldr.w	r2, [r3, #148]	@ 0x94
 800141c:	f042 0204 	orr.w	r2, r2, #4
 8001420:	f8c3 2094 	str.w	r2, [r3, #148]	@ 0x94
 8001424:	f8d3 3094 	ldr.w	r3, [r3, #148]	@ 0x94
 8001428:	f003 0304 	and.w	r3, r3, #4
 800142c:	9302      	str	r3, [sp, #8]
 800142e:	9b02      	ldr	r3, [sp, #8]
 8001430:	4e3a      	ldr	r6, [pc, #232]	@ (800151c <HAL_RCC_OscConfig+0x2c8>)
 8001432:	6ab3      	ldr	r3, [r6, #40]	@ 0x28
 8001434:	07d9      	lsls	r1, r3, #31
 8001436:	f140 828c 	bpl.w	8001952 <HAL_RCC_OscConfig+0x6fe>
 800143a:	68a3      	ldr	r3, [r4, #8]
 800143c:	07da      	lsls	r2, r3, #31
 800143e:	f140 81d3 	bpl.w	80017e8 <HAL_RCC_OscConfig+0x594>
 8001442:	075e      	lsls	r6, r3, #29
 8001444:	f140 8251 	bpl.w	80018ea <HAL_RCC_OscConfig+0x696>
 8001448:	4b33      	ldr	r3, [pc, #204]	@ (8001518 <HAL_RCC_OscConfig+0x2c4>)
 800144a:	f8d3 20f0 	ldr.w	r2, [r3, #240]	@ 0xf0
 800144e:	f042 0204 	orr.w	r2, r2, #4
 8001452:	f8c3 20f0 	str.w	r2, [r3, #240]	@ 0xf0
 8001456:	f8d3 20f0 	ldr.w	r2, [r3, #240]	@ 0xf0
 800145a:	f042 0201 	orr.w	r2, r2, #1
 800145e:	f8c3 20f0 	str.w	r2, [r3, #240]	@ 0xf0
 8001462:	f7ff f9bb 	bl	80007dc <HAL_GetTick>
 8001466:	f241 3888 	movw	r8, #5000	@ 0x1388
 800146a:	4606      	mov	r6, r0
 800146c:	4f2a      	ldr	r7, [pc, #168]	@ (8001518 <HAL_RCC_OscConfig+0x2c4>)
 800146e:	e005      	b.n	800147c <HAL_RCC_OscConfig+0x228>
 8001470:	f7ff f9b4 	bl	80007dc <HAL_GetTick>
 8001474:	1b80      	subs	r0, r0, r6
 8001476:	4540      	cmp	r0, r8
 8001478:	f200 8125 	bhi.w	80016c6 <HAL_RCC_OscConfig+0x472>
 800147c:	f8d7 30f0 	ldr.w	r3, [r7, #240]	@ 0xf0
 8001480:	0798      	lsls	r0, r3, #30
 8001482:	d5f5      	bpl.n	8001470 <HAL_RCC_OscConfig+0x21c>
 8001484:	68a3      	ldr	r3, [r4, #8]
 8001486:	f013 0f80 	tst.w	r3, #128	@ 0x80
 800148a:	f8d7 30f0 	ldr.w	r3, [r7, #240]	@ 0xf0
 800148e:	f000 82c7 	beq.w	8001a20 <HAL_RCC_OscConfig+0x7cc>
 8001492:	f043 0380 	orr.w	r3, r3, #128	@ 0x80
 8001496:	f8c7 30f0 	str.w	r3, [r7, #240]	@ 0xf0
 800149a:	f241 3888 	movw	r8, #5000	@ 0x1388
 800149e:	4f1e      	ldr	r7, [pc, #120]	@ (8001518 <HAL_RCC_OscConfig+0x2c4>)
 80014a0:	e005      	b.n	80014ae <HAL_RCC_OscConfig+0x25a>
 80014a2:	f7ff f99b 	bl	80007dc <HAL_GetTick>
 80014a6:	1b80      	subs	r0, r0, r6
 80014a8:	4540      	cmp	r0, r8
 80014aa:	f200 810c 	bhi.w	80016c6 <HAL_RCC_OscConfig+0x472>
 80014ae:	f8d7 30f0 	ldr.w	r3, [r7, #240]	@ 0xf0
 80014b2:	0519      	lsls	r1, r3, #20
 80014b4:	d5f5      	bpl.n	80014a2 <HAL_RCC_OscConfig+0x24e>
 80014b6:	b135      	cbz	r5, 80014c6 <HAL_RCC_OscConfig+0x272>
 80014b8:	4a17      	ldr	r2, [pc, #92]	@ (8001518 <HAL_RCC_OscConfig+0x2c4>)
 80014ba:	f8d2 3094 	ldr.w	r3, [r2, #148]	@ 0x94
 80014be:	f023 0304 	bic.w	r3, r3, #4
 80014c2:	f8c2 3094 	str.w	r3, [r2, #148]	@ 0x94
 80014c6:	6823      	ldr	r3, [r4, #0]
 80014c8:	069a      	lsls	r2, r3, #26
 80014ca:	d516      	bpl.n	80014fa <HAL_RCC_OscConfig+0x2a6>
 80014cc:	6ae3      	ldr	r3, [r4, #44]	@ 0x2c
 80014ce:	4d12      	ldr	r5, [pc, #72]	@ (8001518 <HAL_RCC_OscConfig+0x2c4>)
 80014d0:	2b00      	cmp	r3, #0
 80014d2:	f000 81dc 	beq.w	800188e <HAL_RCC_OscConfig+0x63a>
 80014d6:	682b      	ldr	r3, [r5, #0]
 80014d8:	f443 5380 	orr.w	r3, r3, #4096	@ 0x1000
 80014dc:	602b      	str	r3, [r5, #0]
 80014de:	f7ff f97d 	bl	80007dc <HAL_GetTick>
 80014e2:	4606      	mov	r6, r0
 80014e4:	e005      	b.n	80014f2 <HAL_RCC_OscConfig+0x29e>
 80014e6:	f7ff f979 	bl	80007dc <HAL_GetTick>
 80014ea:	1b80      	subs	r0, r0, r6
 80014ec:	2802      	cmp	r0, #2
 80014ee:	f200 80ea 	bhi.w	80016c6 <HAL_RCC_OscConfig+0x472>
 80014f2:	682b      	ldr	r3, [r5, #0]
 80014f4:	049b      	lsls	r3, r3, #18
 80014f6:	d5f6      	bpl.n	80014e6 <HAL_RCC_OscConfig+0x292>
 80014f8:	6823      	ldr	r3, [r4, #0]
 80014fa:	061d      	lsls	r5, r3, #24
 80014fc:	d51a      	bpl.n	8001534 <HAL_RCC_OscConfig+0x2e0>
 80014fe:	6b23      	ldr	r3, [r4, #48]	@ 0x30
 8001500:	4d05      	ldr	r5, [pc, #20]	@ (8001518 <HAL_RCC_OscConfig+0x2c4>)
 8001502:	2b00      	cmp	r3, #0
 8001504:	f000 81df 	beq.w	80018c6 <HAL_RCC_OscConfig+0x672>
 8001508:	682b      	ldr	r3, [r5, #0]
 800150a:	f443 4380 	orr.w	r3, r3, #16384	@ 0x4000
 800150e:	602b      	str	r3, [r5, #0]
 8001510:	f7ff f964 	bl	80007dc <HAL_GetTick>
 8001514:	4606      	mov	r6, r0
 8001516:	e009      	b.n	800152c <HAL_RCC_OscConfig+0x2d8>
 8001518:	46020c00 	.word	0x46020c00
 800151c:	46020800 	.word	0x46020800
 8001520:	f7ff f95c 	bl	80007dc <HAL_GetTick>
 8001524:	1b80      	subs	r0, r0, r6
 8001526:	2802      	cmp	r0, #2
 8001528:	f200 80cd 	bhi.w	80016c6 <HAL_RCC_OscConfig+0x472>
 800152c:	682b      	ldr	r3, [r5, #0]
 800152e:	0418      	lsls	r0, r3, #16
 8001530:	d5f6      	bpl.n	8001520 <HAL_RCC_OscConfig+0x2cc>
 8001532:	6823      	ldr	r3, [r4, #0]
 8001534:	065a      	lsls	r2, r3, #25
 8001536:	d52b      	bpl.n	8001590 <HAL_RCC_OscConfig+0x33c>
 8001538:	6b63      	ldr	r3, [r4, #52]	@ 0x34
 800153a:	2b00      	cmp	r3, #0
 800153c:	f000 8257 	beq.w	80019ee <HAL_RCC_OscConfig+0x79a>
 8001540:	4ba5      	ldr	r3, [pc, #660]	@ (80017d8 <HAL_RCC_OscConfig+0x584>)
 8001542:	689a      	ldr	r2, [r3, #8]
 8001544:	f442 0200 	orr.w	r2, r2, #8388608	@ 0x800000
 8001548:	609a      	str	r2, [r3, #8]
 800154a:	689a      	ldr	r2, [r3, #8]
 800154c:	6aa1      	ldr	r1, [r4, #40]	@ 0x28
 800154e:	f022 6270 	bic.w	r2, r2, #251658240	@ 0xf000000
 8001552:	430a      	orrs	r2, r1
 8001554:	609a      	str	r2, [r3, #8]
 8001556:	e9d4 1208 	ldrd	r1, r2, [r4, #32]
 800155a:	f1b2 4f40 	cmp.w	r2, #3221225472	@ 0xc0000000
 800155e:	f0c0 8235 	bcc.w	80019cc <HAL_RCC_OscConfig+0x778>
 8001562:	68da      	ldr	r2, [r3, #12]
 8001564:	f022 021f 	bic.w	r2, r2, #31
 8001568:	430a      	orrs	r2, r1
 800156a:	60da      	str	r2, [r3, #12]
 800156c:	4d9a      	ldr	r5, [pc, #616]	@ (80017d8 <HAL_RCC_OscConfig+0x584>)
 800156e:	682b      	ldr	r3, [r5, #0]
 8001570:	f043 0310 	orr.w	r3, r3, #16
 8001574:	602b      	str	r3, [r5, #0]
 8001576:	f7ff f931 	bl	80007dc <HAL_GetTick>
 800157a:	4606      	mov	r6, r0
 800157c:	e005      	b.n	800158a <HAL_RCC_OscConfig+0x336>
 800157e:	f7ff f92d 	bl	80007dc <HAL_GetTick>
 8001582:	1b80      	subs	r0, r0, r6
 8001584:	2802      	cmp	r0, #2
 8001586:	f200 809e 	bhi.w	80016c6 <HAL_RCC_OscConfig+0x472>
 800158a:	682b      	ldr	r3, [r5, #0]
 800158c:	069b      	lsls	r3, r3, #26
 800158e:	d5f6      	bpl.n	800157e <HAL_RCC_OscConfig+0x32a>
 8001590:	6ba3      	ldr	r3, [r4, #56]	@ 0x38
 8001592:	b303      	cbz	r3, 80015d6 <HAL_RCC_OscConfig+0x382>
 8001594:	4d90      	ldr	r5, [pc, #576]	@ (80017d8 <HAL_RCC_OscConfig+0x584>)
 8001596:	69ea      	ldr	r2, [r5, #28]
 8001598:	f002 020c 	and.w	r2, r2, #12
 800159c:	2a0c      	cmp	r2, #12
 800159e:	f000 8255 	beq.w	8001a4c <HAL_RCC_OscConfig+0x7f8>
 80015a2:	2b02      	cmp	r3, #2
 80015a4:	682b      	ldr	r3, [r5, #0]
 80015a6:	f023 7380 	bic.w	r3, r3, #16777216	@ 0x1000000
 80015aa:	602b      	str	r3, [r5, #0]
 80015ac:	f000 82a6 	beq.w	8001afc <HAL_RCC_OscConfig+0x8a8>
 80015b0:	f7ff f914 	bl	80007dc <HAL_GetTick>
 80015b4:	4604      	mov	r4, r0
 80015b6:	e005      	b.n	80015c4 <HAL_RCC_OscConfig+0x370>
 80015b8:	f7ff f910 	bl	80007dc <HAL_GetTick>
 80015bc:	1b00      	subs	r0, r0, r4
 80015be:	2802      	cmp	r0, #2
 80015c0:	f200 8081 	bhi.w	80016c6 <HAL_RCC_OscConfig+0x472>
 80015c4:	682b      	ldr	r3, [r5, #0]
 80015c6:	0199      	lsls	r1, r3, #6
 80015c8:	d4f6      	bmi.n	80015b8 <HAL_RCC_OscConfig+0x364>
 80015ca:	6aab      	ldr	r3, [r5, #40]	@ 0x28
 80015cc:	f423 23e0 	bic.w	r3, r3, #458752	@ 0x70000
 80015d0:	f023 0303 	bic.w	r3, r3, #3
 80015d4:	62ab      	str	r3, [r5, #40]	@ 0x28
 80015d6:	2000      	movs	r0, #0
 80015d8:	e03c      	b.n	8001654 <HAL_RCC_OscConfig+0x400>
 80015da:	2e01      	cmp	r6, #1
 80015dc:	f47f ae51 	bne.w	8001282 <HAL_RCC_OscConfig+0x2e>
 80015e0:	69e3      	ldr	r3, [r4, #28]
 80015e2:	2b00      	cmp	r3, #0
 80015e4:	d035      	beq.n	8001652 <HAL_RCC_OscConfig+0x3fe>
 80015e6:	4b7c      	ldr	r3, [pc, #496]	@ (80017d8 <HAL_RCC_OscConfig+0x584>)
 80015e8:	6a60      	ldr	r0, [r4, #36]	@ 0x24
 80015ea:	689a      	ldr	r2, [r3, #8]
 80015ec:	0217      	lsls	r7, r2, #8
 80015ee:	bf56      	itet	pl
 80015f0:	f8d3 30f4 	ldrpl.w	r3, [r3, #244]	@ 0xf4
 80015f4:	689b      	ldrmi	r3, [r3, #8]
 80015f6:	041b      	lslpl	r3, r3, #16
 80015f8:	f003 4370 	and.w	r3, r3, #4026531840	@ 0xf0000000
 80015fc:	4298      	cmp	r0, r3
 80015fe:	f240 8083 	bls.w	8001708 <HAL_RCC_OscConfig+0x4b4>
 8001602:	2d00      	cmp	r5, #0
 8001604:	f000 81c4 	beq.w	8001990 <HAL_RCC_OscConfig+0x73c>
 8001608:	4b73      	ldr	r3, [pc, #460]	@ (80017d8 <HAL_RCC_OscConfig+0x584>)
 800160a:	f1b0 4f40 	cmp.w	r0, #3221225472	@ 0xc0000000
 800160e:	689a      	ldr	r2, [r3, #8]
 8001610:	f442 0200 	orr.w	r2, r2, #8388608	@ 0x800000
 8001614:	609a      	str	r2, [r3, #8]
 8001616:	689a      	ldr	r2, [r3, #8]
 8001618:	f022 4270 	bic.w	r2, r2, #4026531840	@ 0xf0000000
 800161c:	ea42 0200 	orr.w	r2, r2, r0
 8001620:	609a      	str	r2, [r3, #8]
 8001622:	6a21      	ldr	r1, [r4, #32]
 8001624:	68da      	ldr	r2, [r3, #12]
 8001626:	f080 8149 	bcs.w	80018bc <HAL_RCC_OscConfig+0x668>
 800162a:	2800      	cmp	r0, #0
 800162c:	f2c0 81f2 	blt.w	8001a14 <HAL_RCC_OscConfig+0x7c0>
 8001630:	f1b0 4f80 	cmp.w	r0, #1073741824	@ 0x40000000
 8001634:	bf2b      	itete	cs
 8001636:	f422 42f8 	biccs.w	r2, r2, #31744	@ 0x7c00
 800163a:	f422 2278 	biccc.w	r2, r2, #1015808	@ 0xf8000
 800163e:	ea42 2281 	orrcs.w	r2, r2, r1, lsl #10
 8001642:	ea42 32c1 	orrcc.w	r2, r2, r1, lsl #15
 8001646:	60da      	str	r2, [r3, #12]
 8001648:	e081      	b.n	800174e <HAL_RCC_OscConfig+0x4fa>
 800164a:	f7ff fbb1 	bl	8000db0 <RCC_SetFlashLatencyFromMSIRange>
 800164e:	2800      	cmp	r0, #0
 8001650:	d07d      	beq.n	800174e <HAL_RCC_OscConfig+0x4fa>
 8001652:	2001      	movs	r0, #1
 8001654:	b004      	add	sp, #16
 8001656:	e8bd 81f0 	ldmia.w	sp!, {r4, r5, r6, r7, r8, pc}
 800165a:	2e03      	cmp	r6, #3
 800165c:	f47f ae46 	bne.w	80012ec <HAL_RCC_OscConfig+0x98>
 8001660:	2a00      	cmp	r2, #0
 8001662:	d0f6      	beq.n	8001652 <HAL_RCC_OscConfig+0x3fe>
 8001664:	079d      	lsls	r5, r3, #30
 8001666:	f57f ae7e 	bpl.w	8001366 <HAL_RCC_OscConfig+0x112>
 800166a:	68e3      	ldr	r3, [r4, #12]
 800166c:	4d5a      	ldr	r5, [pc, #360]	@ (80017d8 <HAL_RCC_OscConfig+0x584>)
 800166e:	2b00      	cmp	r3, #0
 8001670:	f000 8085 	beq.w	800177e <HAL_RCC_OscConfig+0x52a>
 8001674:	682b      	ldr	r3, [r5, #0]
 8001676:	f443 7380 	orr.w	r3, r3, #256	@ 0x100
 800167a:	602b      	str	r3, [r5, #0]
 800167c:	f7ff f8ae 	bl	80007dc <HAL_GetTick>
 8001680:	4606      	mov	r6, r0
 8001682:	e004      	b.n	800168e <HAL_RCC_OscConfig+0x43a>
 8001684:	f7ff f8aa 	bl	80007dc <HAL_GetTick>
 8001688:	1b80      	subs	r0, r0, r6
 800168a:	2802      	cmp	r0, #2
 800168c:	d81b      	bhi.n	80016c6 <HAL_RCC_OscConfig+0x472>
 800168e:	682b      	ldr	r3, [r5, #0]
 8001690:	055b      	lsls	r3, r3, #21
 8001692:	d5f7      	bpl.n	8001684 <HAL_RCC_OscConfig+0x430>
 8001694:	692b      	ldr	r3, [r5, #16]
 8001696:	6922      	ldr	r2, [r4, #16]
 8001698:	f423 13f8 	bic.w	r3, r3, #2031616	@ 0x1f0000
 800169c:	ea43 4302 	orr.w	r3, r3, r2, lsl #16
 80016a0:	612b      	str	r3, [r5, #16]
 80016a2:	6823      	ldr	r3, [r4, #0]
 80016a4:	e65f      	b.n	8001366 <HAL_RCC_OscConfig+0x112>
 80016a6:	6ab3      	ldr	r3, [r6, #40]	@ 0x28
 80016a8:	f043 0301 	orr.w	r3, r3, #1
 80016ac:	62b3      	str	r3, [r6, #40]	@ 0x28
 80016ae:	f7ff f895 	bl	80007dc <HAL_GetTick>
 80016b2:	4607      	mov	r7, r0
 80016b4:	6ab3      	ldr	r3, [r6, #40]	@ 0x28
 80016b6:	07db      	lsls	r3, r3, #31
 80016b8:	f53f ae6f 	bmi.w	800139a <HAL_RCC_OscConfig+0x146>
 80016bc:	f7ff f88e 	bl	80007dc <HAL_GetTick>
 80016c0:	1bc0      	subs	r0, r0, r7
 80016c2:	2802      	cmp	r0, #2
 80016c4:	d9f6      	bls.n	80016b4 <HAL_RCC_OscConfig+0x460>
 80016c6:	2003      	movs	r0, #3
 80016c8:	b004      	add	sp, #16
 80016ca:	e8bd 81f0 	ldmia.w	sp!, {r4, r5, r6, r7, r8, pc}
 80016ce:	079a      	lsls	r2, r3, #30
 80016d0:	f57f ae49 	bpl.w	8001366 <HAL_RCC_OscConfig+0x112>
 80016d4:	2d0c      	cmp	r5, #12
 80016d6:	d1c8      	bne.n	800166a <HAL_RCC_OscConfig+0x416>
 80016d8:	2e02      	cmp	r6, #2
 80016da:	d1c6      	bne.n	800166a <HAL_RCC_OscConfig+0x416>
 80016dc:	e636      	b.n	800134c <HAL_RCC_OscConfig+0xf8>
 80016de:	2500      	movs	r5, #0
 80016e0:	e656      	b.n	8001390 <HAL_RCC_OscConfig+0x13c>
 80016e2:	683b      	ldr	r3, [r7, #0]
 80016e4:	f023 0301 	bic.w	r3, r3, #1
 80016e8:	603b      	str	r3, [r7, #0]
 80016ea:	f7ff f877 	bl	80007dc <HAL_GetTick>
 80016ee:	4680      	mov	r8, r0
 80016f0:	e005      	b.n	80016fe <HAL_RCC_OscConfig+0x4aa>
 80016f2:	f7ff f873 	bl	80007dc <HAL_GetTick>
 80016f6:	eba0 0008 	sub.w	r0, r0, r8
 80016fa:	2802      	cmp	r0, #2
 80016fc:	d8e3      	bhi.n	80016c6 <HAL_RCC_OscConfig+0x472>
 80016fe:	683b      	ldr	r3, [r7, #0]
 8001700:	075b      	lsls	r3, r3, #29
 8001702:	d4f6      	bmi.n	80016f2 <HAL_RCC_OscConfig+0x49e>
 8001704:	6823      	ldr	r3, [r4, #0]
 8001706:	e5e8      	b.n	80012da <HAL_RCC_OscConfig+0x86>
 8001708:	4b33      	ldr	r3, [pc, #204]	@ (80017d8 <HAL_RCC_OscConfig+0x584>)
 800170a:	f1b0 4f40 	cmp.w	r0, #3221225472	@ 0xc0000000
 800170e:	689a      	ldr	r2, [r3, #8]
 8001710:	f442 0200 	orr.w	r2, r2, #8388608	@ 0x800000
 8001714:	609a      	str	r2, [r3, #8]
 8001716:	689a      	ldr	r2, [r3, #8]
 8001718:	f022 4270 	bic.w	r2, r2, #4026531840	@ 0xf0000000
 800171c:	ea42 0200 	orr.w	r2, r2, r0
 8001720:	609a      	str	r2, [r3, #8]
 8001722:	6a21      	ldr	r1, [r4, #32]
 8001724:	68da      	ldr	r2, [r3, #12]
 8001726:	f080 80c4 	bcs.w	80018b2 <HAL_RCC_OscConfig+0x65e>
 800172a:	2800      	cmp	r0, #0
 800172c:	f2c0 8148 	blt.w	80019c0 <HAL_RCC_OscConfig+0x76c>
 8001730:	f1b0 4f80 	cmp.w	r0, #1073741824	@ 0x40000000
 8001734:	bf2b      	itete	cs
 8001736:	f422 42f8 	biccs.w	r2, r2, #31744	@ 0x7c00
 800173a:	f422 2278 	biccc.w	r2, r2, #1015808	@ 0xf8000
 800173e:	ea42 2281 	orrcs.w	r2, r2, r1, lsl #10
 8001742:	ea42 32c1 	orrcc.w	r2, r2, r1, lsl #15
 8001746:	60da      	str	r2, [r3, #12]
 8001748:	2d00      	cmp	r5, #0
 800174a:	f43f af7e 	beq.w	800164a <HAL_RCC_OscConfig+0x3f6>
 800174e:	f7ff fb8d 	bl	8000e6c <HAL_RCC_GetSysClockFreq>
 8001752:	4603      	mov	r3, r0
 8001754:	4a20      	ldr	r2, [pc, #128]	@ (80017d8 <HAL_RCC_OscConfig+0x584>)
 8001756:	4921      	ldr	r1, [pc, #132]	@ (80017dc <HAL_RCC_OscConfig+0x588>)
 8001758:	6a12      	ldr	r2, [r2, #32]
 800175a:	f002 020f 	and.w	r2, r2, #15
 800175e:	5c89      	ldrb	r1, [r1, r2]
 8001760:	4a1f      	ldr	r2, [pc, #124]	@ (80017e0 <HAL_RCC_OscConfig+0x58c>)
 8001762:	40cb      	lsrs	r3, r1
 8001764:	6810      	ldr	r0, [r2, #0]
 8001766:	4a1f      	ldr	r2, [pc, #124]	@ (80017e4 <HAL_RCC_OscConfig+0x590>)
 8001768:	6013      	str	r3, [r2, #0]
 800176a:	f7fe ffaf 	bl	80006cc <HAL_InitTick>
 800176e:	2800      	cmp	r0, #0
 8001770:	f47f af70 	bne.w	8001654 <HAL_RCC_OscConfig+0x400>
 8001774:	6823      	ldr	r3, [r4, #0]
 8001776:	07d9      	lsls	r1, r3, #31
 8001778:	d5a9      	bpl.n	80016ce <HAL_RCC_OscConfig+0x47a>
 800177a:	6862      	ldr	r2, [r4, #4]
 800177c:	e5b3      	b.n	80012e6 <HAL_RCC_OscConfig+0x92>
 800177e:	682b      	ldr	r3, [r5, #0]
 8001780:	f423 7380 	bic.w	r3, r3, #256	@ 0x100
 8001784:	602b      	str	r3, [r5, #0]
 8001786:	f7ff f829 	bl	80007dc <HAL_GetTick>
 800178a:	4606      	mov	r6, r0
 800178c:	e004      	b.n	8001798 <HAL_RCC_OscConfig+0x544>
 800178e:	f7ff f825 	bl	80007dc <HAL_GetTick>
 8001792:	1b80      	subs	r0, r0, r6
 8001794:	2802      	cmp	r0, #2
 8001796:	d896      	bhi.n	80016c6 <HAL_RCC_OscConfig+0x472>
 8001798:	682b      	ldr	r3, [r5, #0]
 800179a:	055f      	lsls	r7, r3, #21
 800179c:	d4f7      	bmi.n	800178e <HAL_RCC_OscConfig+0x53a>
 800179e:	6823      	ldr	r3, [r4, #0]
 80017a0:	e5e1      	b.n	8001366 <HAL_RCC_OscConfig+0x112>
 80017a2:	2001      	movs	r0, #1
 80017a4:	4770      	bx	lr
 80017a6:	2500      	movs	r5, #0
 80017a8:	e642      	b.n	8001430 <HAL_RCC_OscConfig+0x1dc>
 80017aa:	4a0b      	ldr	r2, [pc, #44]	@ (80017d8 <HAL_RCC_OscConfig+0x584>)
 80017ac:	6813      	ldr	r3, [r2, #0]
 80017ae:	f443 3380 	orr.w	r3, r3, #65536	@ 0x10000
 80017b2:	6013      	str	r3, [r2, #0]
 80017b4:	f7ff f812 	bl	80007dc <HAL_GetTick>
 80017b8:	f8df 801c 	ldr.w	r8, [pc, #28]	@ 80017d8 <HAL_RCC_OscConfig+0x584>
 80017bc:	4607      	mov	r7, r0
 80017be:	e005      	b.n	80017cc <HAL_RCC_OscConfig+0x578>
 80017c0:	f7ff f80c 	bl	80007dc <HAL_GetTick>
 80017c4:	1bc0      	subs	r0, r0, r7
 80017c6:	2864      	cmp	r0, #100	@ 0x64
 80017c8:	f63f af7d 	bhi.w	80016c6 <HAL_RCC_OscConfig+0x472>
 80017cc:	f8d8 3000 	ldr.w	r3, [r8]
 80017d0:	0398      	lsls	r0, r3, #14
 80017d2:	d5f5      	bpl.n	80017c0 <HAL_RCC_OscConfig+0x56c>
 80017d4:	e5b4      	b.n	8001340 <HAL_RCC_OscConfig+0xec>
 80017d6:	bf00      	nop
 80017d8:	46020c00 	.word	0x46020c00
 80017dc:	08002178 	.word	0x08002178
 80017e0:	20000008 	.word	0x20000008
 80017e4:	20000000 	.word	0x20000000
 80017e8:	4e97      	ldr	r6, [pc, #604]	@ (8001a48 <HAL_RCC_OscConfig+0x7f4>)
 80017ea:	f8d6 20f0 	ldr.w	r2, [r6, #240]	@ 0xf0
 80017ee:	f022 0201 	bic.w	r2, r2, #1
 80017f2:	f8c6 20f0 	str.w	r2, [r6, #240]	@ 0xf0
 80017f6:	f8d6 20f0 	ldr.w	r2, [r6, #240]	@ 0xf0
 80017fa:	f022 0204 	bic.w	r2, r2, #4
 80017fe:	f8c6 20f0 	str.w	r2, [r6, #240]	@ 0xf0
 8001802:	2b00      	cmp	r3, #0
 8001804:	f47f ae2d 	bne.w	8001462 <HAL_RCC_OscConfig+0x20e>
 8001808:	f7fe ffe8 	bl	80007dc <HAL_GetTick>
 800180c:	f241 3888 	movw	r8, #5000	@ 0x1388
 8001810:	4607      	mov	r7, r0
 8001812:	e005      	b.n	8001820 <HAL_RCC_OscConfig+0x5cc>
 8001814:	f7fe ffe2 	bl	80007dc <HAL_GetTick>
 8001818:	1bc0      	subs	r0, r0, r7
 800181a:	4540      	cmp	r0, r8
 800181c:	f63f af53 	bhi.w	80016c6 <HAL_RCC_OscConfig+0x472>
 8001820:	f8d6 30f0 	ldr.w	r3, [r6, #240]	@ 0xf0
 8001824:	079b      	lsls	r3, r3, #30
 8001826:	d4f5      	bmi.n	8001814 <HAL_RCC_OscConfig+0x5c0>
 8001828:	f8d6 30f0 	ldr.w	r3, [r6, #240]	@ 0xf0
 800182c:	0618      	lsls	r0, r3, #24
 800182e:	f57f ae42 	bpl.w	80014b6 <HAL_RCC_OscConfig+0x262>
 8001832:	f8d6 30f0 	ldr.w	r3, [r6, #240]	@ 0xf0
 8001836:	f241 3888 	movw	r8, #5000	@ 0x1388
 800183a:	f023 0380 	bic.w	r3, r3, #128	@ 0x80
 800183e:	f8c6 30f0 	str.w	r3, [r6, #240]	@ 0xf0
 8001842:	4e81      	ldr	r6, [pc, #516]	@ (8001a48 <HAL_RCC_OscConfig+0x7f4>)
 8001844:	e005      	b.n	8001852 <HAL_RCC_OscConfig+0x5fe>
 8001846:	f7fe ffc9 	bl	80007dc <HAL_GetTick>
 800184a:	1bc0      	subs	r0, r0, r7
 800184c:	4540      	cmp	r0, r8
 800184e:	f63f af3a 	bhi.w	80016c6 <HAL_RCC_OscConfig+0x472>
 8001852:	f8d6 30f0 	ldr.w	r3, [r6, #240]	@ 0xf0
 8001856:	0519      	lsls	r1, r3, #20
 8001858:	d4f5      	bmi.n	8001846 <HAL_RCC_OscConfig+0x5f2>
 800185a:	e62c      	b.n	80014b6 <HAL_RCC_OscConfig+0x262>
 800185c:	4e7a      	ldr	r6, [pc, #488]	@ (8001a48 <HAL_RCC_OscConfig+0x7f4>)
 800185e:	f8d6 30f0 	ldr.w	r3, [r6, #240]	@ 0xf0
 8001862:	f023 53a0 	bic.w	r3, r3, #335544320	@ 0x14000000
 8001866:	f8c6 30f0 	str.w	r3, [r6, #240]	@ 0xf0
 800186a:	f7fe ffb7 	bl	80007dc <HAL_GetTick>
 800186e:	4607      	mov	r7, r0
 8001870:	e005      	b.n	800187e <HAL_RCC_OscConfig+0x62a>
 8001872:	f7fe ffb3 	bl	80007dc <HAL_GetTick>
 8001876:	1bc0      	subs	r0, r0, r7
 8001878:	2805      	cmp	r0, #5
 800187a:	f63f af24 	bhi.w	80016c6 <HAL_RCC_OscConfig+0x472>
 800187e:	f8d6 30f0 	ldr.w	r3, [r6, #240]	@ 0xf0
 8001882:	011b      	lsls	r3, r3, #4
 8001884:	d4f5      	bmi.n	8001872 <HAL_RCC_OscConfig+0x61e>
 8001886:	2d00      	cmp	r5, #0
 8001888:	f43f adbc 	beq.w	8001404 <HAL_RCC_OscConfig+0x1b0>
 800188c:	e043      	b.n	8001916 <HAL_RCC_OscConfig+0x6c2>
 800188e:	682b      	ldr	r3, [r5, #0]
 8001890:	f423 5380 	bic.w	r3, r3, #4096	@ 0x1000
 8001894:	602b      	str	r3, [r5, #0]
 8001896:	f7fe ffa1 	bl	80007dc <HAL_GetTick>
 800189a:	4606      	mov	r6, r0
 800189c:	e005      	b.n	80018aa <HAL_RCC_OscConfig+0x656>
 800189e:	f7fe ff9d 	bl	80007dc <HAL_GetTick>
 80018a2:	1b80      	subs	r0, r0, r6
 80018a4:	2802      	cmp	r0, #2
 80018a6:	f63f af0e 	bhi.w	80016c6 <HAL_RCC_OscConfig+0x472>
 80018aa:	682b      	ldr	r3, [r5, #0]
 80018ac:	049f      	lsls	r7, r3, #18
 80018ae:	d4f6      	bmi.n	800189e <HAL_RCC_OscConfig+0x64a>
 80018b0:	e622      	b.n	80014f8 <HAL_RCC_OscConfig+0x2a4>
 80018b2:	f022 021f 	bic.w	r2, r2, #31
 80018b6:	430a      	orrs	r2, r1
 80018b8:	60da      	str	r2, [r3, #12]
 80018ba:	e745      	b.n	8001748 <HAL_RCC_OscConfig+0x4f4>
 80018bc:	f022 021f 	bic.w	r2, r2, #31
 80018c0:	430a      	orrs	r2, r1
 80018c2:	60da      	str	r2, [r3, #12]
 80018c4:	e743      	b.n	800174e <HAL_RCC_OscConfig+0x4fa>
 80018c6:	682b      	ldr	r3, [r5, #0]
 80018c8:	f423 4380 	bic.w	r3, r3, #16384	@ 0x4000
 80018cc:	602b      	str	r3, [r5, #0]
 80018ce:	f7fe ff85 	bl	80007dc <HAL_GetTick>
 80018d2:	4606      	mov	r6, r0
 80018d4:	e005      	b.n	80018e2 <HAL_RCC_OscConfig+0x68e>
 80018d6:	f7fe ff81 	bl	80007dc <HAL_GetTick>
 80018da:	1b80      	subs	r0, r0, r6
 80018dc:	2802      	cmp	r0, #2
 80018de:	f63f aef2 	bhi.w	80016c6 <HAL_RCC_OscConfig+0x472>
 80018e2:	682b      	ldr	r3, [r5, #0]
 80018e4:	0419      	lsls	r1, r3, #16
 80018e6:	d4f6      	bmi.n	80018d6 <HAL_RCC_OscConfig+0x682>
 80018e8:	e623      	b.n	8001532 <HAL_RCC_OscConfig+0x2de>
 80018ea:	4a57      	ldr	r2, [pc, #348]	@ (8001a48 <HAL_RCC_OscConfig+0x7f4>)
 80018ec:	f8d2 30f0 	ldr.w	r3, [r2, #240]	@ 0xf0
 80018f0:	f043 0301 	orr.w	r3, r3, #1
 80018f4:	f8c2 30f0 	str.w	r3, [r2, #240]	@ 0xf0
 80018f8:	e5b3      	b.n	8001462 <HAL_RCC_OscConfig+0x20e>
 80018fa:	4b53      	ldr	r3, [pc, #332]	@ (8001a48 <HAL_RCC_OscConfig+0x7f4>)
 80018fc:	681a      	ldr	r2, [r3, #0]
 80018fe:	f442 2280 	orr.w	r2, r2, #262144	@ 0x40000
 8001902:	601a      	str	r2, [r3, #0]
 8001904:	681a      	ldr	r2, [r3, #0]
 8001906:	f442 1280 	orr.w	r2, r2, #1048576	@ 0x100000
 800190a:	601a      	str	r2, [r3, #0]
 800190c:	681a      	ldr	r2, [r3, #0]
 800190e:	f442 3280 	orr.w	r2, r2, #65536	@ 0x10000
 8001912:	601a      	str	r2, [r3, #0]
 8001914:	e74e      	b.n	80017b4 <HAL_RCC_OscConfig+0x560>
 8001916:	4a4c      	ldr	r2, [pc, #304]	@ (8001a48 <HAL_RCC_OscConfig+0x7f4>)
 8001918:	f8d2 3094 	ldr.w	r3, [r2, #148]	@ 0x94
 800191c:	f023 0304 	bic.w	r3, r3, #4
 8001920:	f8c2 3094 	str.w	r3, [r2, #148]	@ 0x94
 8001924:	e56e      	b.n	8001404 <HAL_RCC_OscConfig+0x1b0>
 8001926:	f8d6 30f0 	ldr.w	r3, [r6, #240]	@ 0xf0
 800192a:	f023 53a0 	bic.w	r3, r3, #335544320	@ 0x14000000
 800192e:	f8c6 30f0 	str.w	r3, [r6, #240]	@ 0xf0
 8001932:	f7fe ff53 	bl	80007dc <HAL_GetTick>
 8001936:	4607      	mov	r7, r0
 8001938:	e005      	b.n	8001946 <HAL_RCC_OscConfig+0x6f2>
 800193a:	f7fe ff4f 	bl	80007dc <HAL_GetTick>
 800193e:	1bc0      	subs	r0, r0, r7
 8001940:	2805      	cmp	r0, #5
 8001942:	f63f aec0 	bhi.w	80016c6 <HAL_RCC_OscConfig+0x472>
 8001946:	f8d6 30f0 	ldr.w	r3, [r6, #240]	@ 0xf0
 800194a:	0119      	lsls	r1, r3, #4
 800194c:	d4f5      	bmi.n	800193a <HAL_RCC_OscConfig+0x6e6>
 800194e:	69a2      	ldr	r2, [r4, #24]
 8001950:	e538      	b.n	80013c4 <HAL_RCC_OscConfig+0x170>
 8001952:	6ab3      	ldr	r3, [r6, #40]	@ 0x28
 8001954:	f043 0301 	orr.w	r3, r3, #1
 8001958:	62b3      	str	r3, [r6, #40]	@ 0x28
 800195a:	f7fe ff3f 	bl	80007dc <HAL_GetTick>
 800195e:	4607      	mov	r7, r0
 8001960:	6ab3      	ldr	r3, [r6, #40]	@ 0x28
 8001962:	07db      	lsls	r3, r3, #31
 8001964:	f53f ad69 	bmi.w	800143a <HAL_RCC_OscConfig+0x1e6>
 8001968:	f7fe ff38 	bl	80007dc <HAL_GetTick>
 800196c:	1bc0      	subs	r0, r0, r7
 800196e:	2802      	cmp	r0, #2
 8001970:	d9f6      	bls.n	8001960 <HAL_RCC_OscConfig+0x70c>
 8001972:	e6a8      	b.n	80016c6 <HAL_RCC_OscConfig+0x472>
 8001974:	4b34      	ldr	r3, [pc, #208]	@ (8001a48 <HAL_RCC_OscConfig+0x7f4>)
 8001976:	681a      	ldr	r2, [r3, #0]
 8001978:	f442 2280 	orr.w	r2, r2, #262144	@ 0x40000
 800197c:	601a      	str	r2, [r3, #0]
 800197e:	681a      	ldr	r2, [r3, #0]
 8001980:	f422 1280 	bic.w	r2, r2, #1048576	@ 0x100000
 8001984:	601a      	str	r2, [r3, #0]
 8001986:	681a      	ldr	r2, [r3, #0]
 8001988:	f442 3280 	orr.w	r2, r2, #65536	@ 0x10000
 800198c:	601a      	str	r2, [r3, #0]
 800198e:	e711      	b.n	80017b4 <HAL_RCC_OscConfig+0x560>
 8001990:	f7ff fa0e 	bl	8000db0 <RCC_SetFlashLatencyFromMSIRange>
 8001994:	2800      	cmp	r0, #0
 8001996:	f47f ae5c 	bne.w	8001652 <HAL_RCC_OscConfig+0x3fe>
 800199a:	6a60      	ldr	r0, [r4, #36]	@ 0x24
 800199c:	e634      	b.n	8001608 <HAL_RCC_OscConfig+0x3b4>
 800199e:	2a00      	cmp	r2, #0
 80019a0:	f2c0 80a4 	blt.w	8001aec <HAL_RCC_OscConfig+0x898>
 80019a4:	f1b2 4f80 	cmp.w	r2, #1073741824	@ 0x40000000
 80019a8:	bf2b      	itete	cs
 80019aa:	f423 43f8 	biccs.w	r3, r3, #31744	@ 0x7c00
 80019ae:	f423 2378 	biccc.w	r3, r3, #1015808	@ 0xf8000
 80019b2:	ea43 2381 	orrcs.w	r3, r3, r1, lsl #10
 80019b6:	ea43 33c1 	orrcc.w	r3, r3, r1, lsl #15
 80019ba:	60fb      	str	r3, [r7, #12]
 80019bc:	6823      	ldr	r3, [r4, #0]
 80019be:	e48c      	b.n	80012da <HAL_RCC_OscConfig+0x86>
 80019c0:	f422 7278 	bic.w	r2, r2, #992	@ 0x3e0
 80019c4:	ea42 1241 	orr.w	r2, r2, r1, lsl #5
 80019c8:	60da      	str	r2, [r3, #12]
 80019ca:	e6bd      	b.n	8001748 <HAL_RCC_OscConfig+0x4f4>
 80019cc:	2a00      	cmp	r2, #0
 80019ce:	f2c0 811e 	blt.w	8001c0e <HAL_RCC_OscConfig+0x9ba>
 80019d2:	f1b2 4f80 	cmp.w	r2, #1073741824	@ 0x40000000
 80019d6:	68da      	ldr	r2, [r3, #12]
 80019d8:	bf2b      	itete	cs
 80019da:	f422 42f8 	biccs.w	r2, r2, #31744	@ 0x7c00
 80019de:	f422 2278 	biccc.w	r2, r2, #1015808	@ 0xf8000
 80019e2:	ea42 2281 	orrcs.w	r2, r2, r1, lsl #10
 80019e6:	ea42 32c1 	orrcc.w	r2, r2, r1, lsl #15
 80019ea:	60da      	str	r2, [r3, #12]
 80019ec:	e5be      	b.n	800156c <HAL_RCC_OscConfig+0x318>
 80019ee:	4d16      	ldr	r5, [pc, #88]	@ (8001a48 <HAL_RCC_OscConfig+0x7f4>)
 80019f0:	682b      	ldr	r3, [r5, #0]
 80019f2:	f023 0310 	bic.w	r3, r3, #16
 80019f6:	602b      	str	r3, [r5, #0]
 80019f8:	f7fe fef0 	bl	80007dc <HAL_GetTick>
 80019fc:	4606      	mov	r6, r0
 80019fe:	e005      	b.n	8001a0c <HAL_RCC_OscConfig+0x7b8>
 8001a00:	f7fe feec 	bl	80007dc <HAL_GetTick>
 8001a04:	1b80      	subs	r0, r0, r6
 8001a06:	2802      	cmp	r0, #2
 8001a08:	f63f ae5d 	bhi.w	80016c6 <HAL_RCC_OscConfig+0x472>
 8001a0c:	682b      	ldr	r3, [r5, #0]
 8001a0e:	069f      	lsls	r7, r3, #26
 8001a10:	d4f6      	bmi.n	8001a00 <HAL_RCC_OscConfig+0x7ac>
 8001a12:	e5bd      	b.n	8001590 <HAL_RCC_OscConfig+0x33c>
 8001a14:	f422 7278 	bic.w	r2, r2, #992	@ 0x3e0
 8001a18:	ea42 1241 	orr.w	r2, r2, r1, lsl #5
 8001a1c:	60da      	str	r2, [r3, #12]
 8001a1e:	e696      	b.n	800174e <HAL_RCC_OscConfig+0x4fa>
 8001a20:	f023 0380 	bic.w	r3, r3, #128	@ 0x80
 8001a24:	f8c7 30f0 	str.w	r3, [r7, #240]	@ 0xf0
 8001a28:	f241 3888 	movw	r8, #5000	@ 0x1388
 8001a2c:	4f06      	ldr	r7, [pc, #24]	@ (8001a48 <HAL_RCC_OscConfig+0x7f4>)
 8001a2e:	e005      	b.n	8001a3c <HAL_RCC_OscConfig+0x7e8>
 8001a30:	f7fe fed4 	bl	80007dc <HAL_GetTick>
 8001a34:	1b80      	subs	r0, r0, r6
 8001a36:	4540      	cmp	r0, r8
 8001a38:	f63f ae45 	bhi.w	80016c6 <HAL_RCC_OscConfig+0x472>
 8001a3c:	f8d7 30f0 	ldr.w	r3, [r7, #240]	@ 0xf0
 8001a40:	051a      	lsls	r2, r3, #20
 8001a42:	d4f5      	bmi.n	8001a30 <HAL_RCC_OscConfig+0x7dc>
 8001a44:	e537      	b.n	80014b6 <HAL_RCC_OscConfig+0x262>
 8001a46:	bf00      	nop
 8001a48:	46020c00 	.word	0x46020c00
 8001a4c:	2b01      	cmp	r3, #1
 8001a4e:	6aaa      	ldr	r2, [r5, #40]	@ 0x28
 8001a50:	6b68      	ldr	r0, [r5, #52]	@ 0x34
 8001a52:	f43f adfe 	beq.w	8001652 <HAL_RCC_OscConfig+0x3fe>
 8001a56:	6be3      	ldr	r3, [r4, #60]	@ 0x3c
 8001a58:	f002 0103 	and.w	r1, r2, #3
 8001a5c:	4299      	cmp	r1, r3
 8001a5e:	f47f adf8 	bne.w	8001652 <HAL_RCC_OscConfig+0x3fe>
 8001a62:	6c23      	ldr	r3, [r4, #64]	@ 0x40
 8001a64:	f3c2 2103 	ubfx	r1, r2, #8, #4
 8001a68:	3b01      	subs	r3, #1
 8001a6a:	4299      	cmp	r1, r3
 8001a6c:	f47f adf1 	bne.w	8001652 <HAL_RCC_OscConfig+0x3fe>
 8001a70:	6c63      	ldr	r3, [r4, #68]	@ 0x44
 8001a72:	f402 4270 	and.w	r2, r2, #61440	@ 0xf000
 8001a76:	429a      	cmp	r2, r3
 8001a78:	f47f adeb 	bne.w	8001652 <HAL_RCC_OscConfig+0x3fe>
 8001a7c:	6ca3      	ldr	r3, [r4, #72]	@ 0x48
 8001a7e:	f3c0 0208 	ubfx	r2, r0, #0, #9
 8001a82:	3b01      	subs	r3, #1
 8001a84:	429a      	cmp	r2, r3
 8001a86:	f47f ade4 	bne.w	8001652 <HAL_RCC_OscConfig+0x3fe>
 8001a8a:	6ce3      	ldr	r3, [r4, #76]	@ 0x4c
 8001a8c:	f3c0 2246 	ubfx	r2, r0, #9, #7
 8001a90:	3b01      	subs	r3, #1
 8001a92:	429a      	cmp	r2, r3
 8001a94:	f47f addd 	bne.w	8001652 <HAL_RCC_OscConfig+0x3fe>
 8001a98:	6d23      	ldr	r3, [r4, #80]	@ 0x50
 8001a9a:	f3c0 4206 	ubfx	r2, r0, #16, #7
 8001a9e:	3b01      	subs	r3, #1
 8001aa0:	429a      	cmp	r2, r3
 8001aa2:	f47f add6 	bne.w	8001652 <HAL_RCC_OscConfig+0x3fe>
 8001aa6:	6d63      	ldr	r3, [r4, #84]	@ 0x54
 8001aa8:	f3c0 6006 	ubfx	r0, r0, #24, #7
 8001aac:	3b01      	subs	r3, #1
 8001aae:	4298      	cmp	r0, r3
 8001ab0:	f47f adcf 	bne.w	8001652 <HAL_RCC_OscConfig+0x3fe>
 8001ab4:	4b59      	ldr	r3, [pc, #356]	@ (8001c1c <HAL_RCC_OscConfig+0x9c8>)
 8001ab6:	6de1      	ldr	r1, [r4, #92]	@ 0x5c
 8001ab8:	6b9a      	ldr	r2, [r3, #56]	@ 0x38
 8001aba:	f3c2 02cc 	ubfx	r2, r2, #3, #13
 8001abe:	428a      	cmp	r2, r1
 8001ac0:	f43f ad89 	beq.w	80015d6 <HAL_RCC_OscConfig+0x382>
 8001ac4:	6a9a      	ldr	r2, [r3, #40]	@ 0x28
 8001ac6:	f022 0210 	bic.w	r2, r2, #16
 8001aca:	629a      	str	r2, [r3, #40]	@ 0x28
 8001acc:	f7fe fe86 	bl	80007dc <HAL_GetTick>
 8001ad0:	4605      	mov	r5, r0
 8001ad2:	f7fe fe83 	bl	80007dc <HAL_GetTick>
 8001ad6:	42a8      	cmp	r0, r5
 8001ad8:	d0fb      	beq.n	8001ad2 <HAL_RCC_OscConfig+0x87e>
 8001ada:	6de2      	ldr	r2, [r4, #92]	@ 0x5c
 8001adc:	4b4f      	ldr	r3, [pc, #316]	@ (8001c1c <HAL_RCC_OscConfig+0x9c8>)
 8001ade:	00d2      	lsls	r2, r2, #3
 8001ae0:	639a      	str	r2, [r3, #56]	@ 0x38
 8001ae2:	6a9a      	ldr	r2, [r3, #40]	@ 0x28
 8001ae4:	f042 0210 	orr.w	r2, r2, #16
 8001ae8:	629a      	str	r2, [r3, #40]	@ 0x28
 8001aea:	e574      	b.n	80015d6 <HAL_RCC_OscConfig+0x382>
 8001aec:	f423 7378 	bic.w	r3, r3, #992	@ 0x3e0
 8001af0:	ea43 1341 	orr.w	r3, r3, r1, lsl #5
 8001af4:	60fb      	str	r3, [r7, #12]
 8001af6:	6823      	ldr	r3, [r4, #0]
 8001af8:	f7ff bbef 	b.w	80012da <HAL_RCC_OscConfig+0x86>
 8001afc:	f7fe fe6e 	bl	80007dc <HAL_GetTick>
 8001b00:	4606      	mov	r6, r0
 8001b02:	e005      	b.n	8001b10 <HAL_RCC_OscConfig+0x8bc>
 8001b04:	f7fe fe6a 	bl	80007dc <HAL_GetTick>
 8001b08:	1b80      	subs	r0, r0, r6
 8001b0a:	2802      	cmp	r0, #2
 8001b0c:	f63f addb 	bhi.w	80016c6 <HAL_RCC_OscConfig+0x472>
 8001b10:	682b      	ldr	r3, [r5, #0]
 8001b12:	f013 7300 	ands.w	r3, r3, #33554432	@ 0x2000000
 8001b16:	d1f5      	bne.n	8001b04 <HAL_RCC_OscConfig+0x8b0>
 8001b18:	f8d5 2094 	ldr.w	r2, [r5, #148]	@ 0x94
 8001b1c:	0756      	lsls	r6, r2, #29
 8001b1e:	d40c      	bmi.n	8001b3a <HAL_RCC_OscConfig+0x8e6>
 8001b20:	2301      	movs	r3, #1
 8001b22:	f8d5 2094 	ldr.w	r2, [r5, #148]	@ 0x94
 8001b26:	f042 0204 	orr.w	r2, r2, #4
 8001b2a:	f8c5 2094 	str.w	r2, [r5, #148]	@ 0x94
 8001b2e:	f8d5 2094 	ldr.w	r2, [r5, #148]	@ 0x94
 8001b32:	f002 0204 	and.w	r2, r2, #4
 8001b36:	9203      	str	r2, [sp, #12]
 8001b38:	9a03      	ldr	r2, [sp, #12]
 8001b3a:	4d39      	ldr	r5, [pc, #228]	@ (8001c20 <HAL_RCC_OscConfig+0x9cc>)
 8001b3c:	4937      	ldr	r1, [pc, #220]	@ (8001c1c <HAL_RCC_OscConfig+0x9c8>)
 8001b3e:	68ee      	ldr	r6, [r5, #12]
 8001b40:	68ea      	ldr	r2, [r5, #12]
 8001b42:	f8df c0e0 	ldr.w	ip, [pc, #224]	@ 8001c24 <HAL_RCC_OscConfig+0x9d0>
 8001b46:	f422 2280 	bic.w	r2, r2, #262144	@ 0x40000
 8001b4a:	60ea      	str	r2, [r5, #12]
 8001b4c:	6a88      	ldr	r0, [r1, #40]	@ 0x28
 8001b4e:	6c67      	ldr	r7, [r4, #68]	@ 0x44
 8001b50:	6be2      	ldr	r2, [r4, #60]	@ 0x3c
 8001b52:	f420 407f 	bic.w	r0, r0, #65280	@ 0xff00
 8001b56:	f020 0003 	bic.w	r0, r0, #3
 8001b5a:	433a      	orrs	r2, r7
 8001b5c:	4302      	orrs	r2, r0
 8001b5e:	6c20      	ldr	r0, [r4, #64]	@ 0x40
 8001b60:	3801      	subs	r0, #1
 8001b62:	ea42 2200 	orr.w	r2, r2, r0, lsl #8
 8001b66:	628a      	str	r2, [r1, #40]	@ 0x28
 8001b68:	6ce0      	ldr	r0, [r4, #76]	@ 0x4c
 8001b6a:	6ca2      	ldr	r2, [r4, #72]	@ 0x48
 8001b6c:	f8d1 e034 	ldr.w	lr, [r1, #52]	@ 0x34
 8001b70:	1e47      	subs	r7, r0, #1
 8001b72:	6d20      	ldr	r0, [r4, #80]	@ 0x50
 8001b74:	3a01      	subs	r2, #1
 8001b76:	f3c2 0208 	ubfx	r2, r2, #0, #9
 8001b7a:	027f      	lsls	r7, r7, #9
 8001b7c:	3801      	subs	r0, #1
 8001b7e:	ea0e 0c0c 	and.w	ip, lr, ip
 8001b82:	b2bf      	uxth	r7, r7
 8001b84:	0400      	lsls	r0, r0, #16
 8001b86:	ea42 020c 	orr.w	r2, r2, ip
 8001b8a:	f400 00fe 	and.w	r0, r0, #8323072	@ 0x7f0000
 8001b8e:	433a      	orrs	r2, r7
 8001b90:	4302      	orrs	r2, r0
 8001b92:	6d60      	ldr	r0, [r4, #84]	@ 0x54
 8001b94:	3801      	subs	r0, #1
 8001b96:	0600      	lsls	r0, r0, #24
 8001b98:	f000 40fe 	and.w	r0, r0, #2130706432	@ 0x7f000000
 8001b9c:	4302      	orrs	r2, r0
 8001b9e:	634a      	str	r2, [r1, #52]	@ 0x34
 8001ba0:	6a8a      	ldr	r2, [r1, #40]	@ 0x28
 8001ba2:	f022 0210 	bic.w	r2, r2, #16
 8001ba6:	628a      	str	r2, [r1, #40]	@ 0x28
 8001ba8:	6de2      	ldr	r2, [r4, #92]	@ 0x5c
 8001baa:	00d2      	lsls	r2, r2, #3
 8001bac:	638a      	str	r2, [r1, #56]	@ 0x38
 8001bae:	6a8a      	ldr	r2, [r1, #40]	@ 0x28
 8001bb0:	f042 0210 	orr.w	r2, r2, #16
 8001bb4:	628a      	str	r2, [r1, #40]	@ 0x28
 8001bb6:	6a8a      	ldr	r2, [r1, #40]	@ 0x28
 8001bb8:	6da0      	ldr	r0, [r4, #88]	@ 0x58
 8001bba:	f022 020c 	bic.w	r2, r2, #12
 8001bbe:	4302      	orrs	r2, r0
 8001bc0:	0374      	lsls	r4, r6, #13
 8001bc2:	628a      	str	r2, [r1, #40]	@ 0x28
 8001bc4:	d41e      	bmi.n	8001c04 <HAL_RCC_OscConfig+0x9b0>
 8001bc6:	b133      	cbz	r3, 8001bd6 <HAL_RCC_OscConfig+0x982>
 8001bc8:	4a14      	ldr	r2, [pc, #80]	@ (8001c1c <HAL_RCC_OscConfig+0x9c8>)
 8001bca:	f8d2 3094 	ldr.w	r3, [r2, #148]	@ 0x94
 8001bce:	f023 0304 	bic.w	r3, r3, #4
 8001bd2:	f8c2 3094 	str.w	r3, [r2, #148]	@ 0x94
 8001bd6:	4c11      	ldr	r4, [pc, #68]	@ (8001c1c <HAL_RCC_OscConfig+0x9c8>)
 8001bd8:	6823      	ldr	r3, [r4, #0]
 8001bda:	f043 7380 	orr.w	r3, r3, #16777216	@ 0x1000000
 8001bde:	6023      	str	r3, [r4, #0]
 8001be0:	f7fe fdfc 	bl	80007dc <HAL_GetTick>
 8001be4:	4605      	mov	r5, r0
 8001be6:	e005      	b.n	8001bf4 <HAL_RCC_OscConfig+0x9a0>
 8001be8:	f7fe fdf8 	bl	80007dc <HAL_GetTick>
 8001bec:	1b40      	subs	r0, r0, r5
 8001bee:	2802      	cmp	r0, #2
 8001bf0:	f63f ad69 	bhi.w	80016c6 <HAL_RCC_OscConfig+0x472>
 8001bf4:	6823      	ldr	r3, [r4, #0]
 8001bf6:	0198      	lsls	r0, r3, #6
 8001bf8:	d5f6      	bpl.n	8001be8 <HAL_RCC_OscConfig+0x994>
 8001bfa:	6aa3      	ldr	r3, [r4, #40]	@ 0x28
 8001bfc:	f443 2380 	orr.w	r3, r3, #262144	@ 0x40000
 8001c00:	62a3      	str	r3, [r4, #40]	@ 0x28
 8001c02:	e4e8      	b.n	80015d6 <HAL_RCC_OscConfig+0x382>
 8001c04:	68ea      	ldr	r2, [r5, #12]
 8001c06:	f442 2280 	orr.w	r2, r2, #262144	@ 0x40000
 8001c0a:	60ea      	str	r2, [r5, #12]
 8001c0c:	e7db      	b.n	8001bc6 <HAL_RCC_OscConfig+0x972>
 8001c0e:	68da      	ldr	r2, [r3, #12]
 8001c10:	f422 7278 	bic.w	r2, r2, #992	@ 0x3e0
 8001c14:	ea42 1241 	orr.w	r2, r2, r1, lsl #5
 8001c18:	60da      	str	r2, [r3, #12]
 8001c1a:	e4a7      	b.n	800156c <HAL_RCC_OscConfig+0x318>
 8001c1c:	46020c00 	.word	0x46020c00
 8001c20:	46020800 	.word	0x46020800
 8001c24:	80800000 	.word	0x80800000

08001c28 <HAL_TIM_Base_Init>:
 8001c28:	2800      	cmp	r0, #0
 8001c2a:	f000 80a8 	beq.w	8001d7e <HAL_TIM_Base_Init+0x156>
 8001c2e:	b538      	push	{r3, r4, r5, lr}
 8001c30:	f890 303d 	ldrb.w	r3, [r0, #61]	@ 0x3d
 8001c34:	4604      	mov	r4, r0
 8001c36:	f003 02ff 	and.w	r2, r3, #255	@ 0xff
 8001c3a:	2b00      	cmp	r3, #0
 8001c3c:	f000 809a 	beq.w	8001d74 <HAL_TIM_Base_Init+0x14c>
 8001c40:	2202      	movs	r2, #2
 8001c42:	6823      	ldr	r3, [r4, #0]
 8001c44:	495d      	ldr	r1, [pc, #372]	@ (8001dbc <HAL_TIM_Base_Init+0x194>)
 8001c46:	f884 203d 	strb.w	r2, [r4, #61]	@ 0x3d
 8001c4a:	428b      	cmp	r3, r1
 8001c4c:	681a      	ldr	r2, [r3, #0]
 8001c4e:	d048      	beq.n	8001ce2 <HAL_TIM_Base_Init+0xba>
 8001c50:	f101 5180 	add.w	r1, r1, #268435456	@ 0x10000000
 8001c54:	428b      	cmp	r3, r1
 8001c56:	d044      	beq.n	8001ce2 <HAL_TIM_Base_Init+0xba>
 8001c58:	f1b3 4f80 	cmp.w	r3, #1073741824	@ 0x40000000
 8001c5c:	d078      	beq.n	8001d50 <HAL_TIM_Base_Init+0x128>
 8001c5e:	f1b3 4fa0 	cmp.w	r3, #1342177280	@ 0x50000000
 8001c62:	d075      	beq.n	8001d50 <HAL_TIM_Base_Init+0x128>
 8001c64:	4956      	ldr	r1, [pc, #344]	@ (8001dc0 <HAL_TIM_Base_Init+0x198>)
 8001c66:	428b      	cmp	r3, r1
 8001c68:	d072      	beq.n	8001d50 <HAL_TIM_Base_Init+0x128>
 8001c6a:	f101 5180 	add.w	r1, r1, #268435456	@ 0x10000000
 8001c6e:	428b      	cmp	r3, r1
 8001c70:	d06e      	beq.n	8001d50 <HAL_TIM_Base_Init+0x128>
 8001c72:	4954      	ldr	r1, [pc, #336]	@ (8001dc4 <HAL_TIM_Base_Init+0x19c>)
 8001c74:	428b      	cmp	r3, r1
 8001c76:	d06b      	beq.n	8001d50 <HAL_TIM_Base_Init+0x128>
 8001c78:	f101 5180 	add.w	r1, r1, #268435456	@ 0x10000000
 8001c7c:	428b      	cmp	r3, r1
 8001c7e:	d067      	beq.n	8001d50 <HAL_TIM_Base_Init+0x128>
 8001c80:	4951      	ldr	r1, [pc, #324]	@ (8001dc8 <HAL_TIM_Base_Init+0x1a0>)
 8001c82:	428b      	cmp	r3, r1
 8001c84:	d064      	beq.n	8001d50 <HAL_TIM_Base_Init+0x128>
 8001c86:	f101 5180 	add.w	r1, r1, #268435456	@ 0x10000000
 8001c8a:	428b      	cmp	r3, r1
 8001c8c:	d07f      	beq.n	8001d8e <HAL_TIM_Base_Init+0x166>
 8001c8e:	494f      	ldr	r1, [pc, #316]	@ (8001dcc <HAL_TIM_Base_Init+0x1a4>)
 8001c90:	428b      	cmp	r3, r1
 8001c92:	f000 8081 	beq.w	8001d98 <HAL_TIM_Base_Init+0x170>
 8001c96:	f101 5180 	add.w	r1, r1, #268435456	@ 0x10000000
 8001c9a:	428b      	cmp	r3, r1
 8001c9c:	d021      	beq.n	8001ce2 <HAL_TIM_Base_Init+0xba>
 8001c9e:	494c      	ldr	r1, [pc, #304]	@ (8001dd0 <HAL_TIM_Base_Init+0x1a8>)
 8001ca0:	428b      	cmp	r3, r1
 8001ca2:	d059      	beq.n	8001d58 <HAL_TIM_Base_Init+0x130>
 8001ca4:	494b      	ldr	r1, [pc, #300]	@ (8001dd4 <HAL_TIM_Base_Init+0x1ac>)
 8001ca6:	428b      	cmp	r3, r1
 8001ca8:	d06b      	beq.n	8001d82 <HAL_TIM_Base_Init+0x15a>
 8001caa:	f101 5180 	add.w	r1, r1, #268435456	@ 0x10000000
 8001cae:	428b      	cmp	r3, r1
 8001cb0:	d067      	beq.n	8001d82 <HAL_TIM_Base_Init+0x15a>
 8001cb2:	4949      	ldr	r1, [pc, #292]	@ (8001dd8 <HAL_TIM_Base_Init+0x1b0>)
 8001cb4:	428b      	cmp	r3, r1
 8001cb6:	d064      	beq.n	8001d82 <HAL_TIM_Base_Init+0x15a>
 8001cb8:	f101 5180 	add.w	r1, r1, #268435456	@ 0x10000000
 8001cbc:	428b      	cmp	r3, r1
 8001cbe:	d060      	beq.n	8001d82 <HAL_TIM_Base_Init+0x15a>
 8001cc0:	4946      	ldr	r1, [pc, #280]	@ (8001ddc <HAL_TIM_Base_Init+0x1b4>)
 8001cc2:	428b      	cmp	r3, r1
 8001cc4:	d05d      	beq.n	8001d82 <HAL_TIM_Base_Init+0x15a>
 8001cc6:	f101 5180 	add.w	r1, r1, #268435456	@ 0x10000000
 8001cca:	428b      	cmp	r3, r1
 8001ccc:	d059      	beq.n	8001d82 <HAL_TIM_Base_Init+0x15a>
 8001cce:	69a5      	ldr	r5, [r4, #24]
 8001cd0:	6861      	ldr	r1, [r4, #4]
 8001cd2:	68e0      	ldr	r0, [r4, #12]
 8001cd4:	f022 0280 	bic.w	r2, r2, #128	@ 0x80
 8001cd8:	432a      	orrs	r2, r5
 8001cda:	601a      	str	r2, [r3, #0]
 8001cdc:	62d8      	str	r0, [r3, #44]	@ 0x2c
 8001cde:	6299      	str	r1, [r3, #40]	@ 0x28
 8001ce0:	e012      	b.n	8001d08 <HAL_TIM_Base_Init+0xe0>
 8001ce2:	68a0      	ldr	r0, [r4, #8]
 8001ce4:	f022 0270 	bic.w	r2, r2, #112	@ 0x70
 8001ce8:	6921      	ldr	r1, [r4, #16]
 8001cea:	4302      	orrs	r2, r0
 8001cec:	f422 7240 	bic.w	r2, r2, #768	@ 0x300
 8001cf0:	430a      	orrs	r2, r1
 8001cf2:	69a1      	ldr	r1, [r4, #24]
 8001cf4:	f022 0280 	bic.w	r2, r2, #128	@ 0x80
 8001cf8:	430a      	orrs	r2, r1
 8001cfa:	601a      	str	r2, [r3, #0]
 8001cfc:	68e2      	ldr	r2, [r4, #12]
 8001cfe:	62da      	str	r2, [r3, #44]	@ 0x2c
 8001d00:	6862      	ldr	r2, [r4, #4]
 8001d02:	629a      	str	r2, [r3, #40]	@ 0x28
 8001d04:	6962      	ldr	r2, [r4, #20]
 8001d06:	631a      	str	r2, [r3, #48]	@ 0x30
 8001d08:	2201      	movs	r2, #1
 8001d0a:	615a      	str	r2, [r3, #20]
 8001d0c:	691a      	ldr	r2, [r3, #16]
 8001d0e:	07d2      	lsls	r2, r2, #31
 8001d10:	d503      	bpl.n	8001d1a <HAL_TIM_Base_Init+0xf2>
 8001d12:	691a      	ldr	r2, [r3, #16]
 8001d14:	f022 0201 	bic.w	r2, r2, #1
 8001d18:	611a      	str	r2, [r3, #16]
 8001d1a:	2301      	movs	r3, #1
 8001d1c:	f884 3048 	strb.w	r3, [r4, #72]	@ 0x48
 8001d20:	f884 303e 	strb.w	r3, [r4, #62]	@ 0x3e
 8001d24:	f884 303f 	strb.w	r3, [r4, #63]	@ 0x3f
 8001d28:	f884 3040 	strb.w	r3, [r4, #64]	@ 0x40
 8001d2c:	f884 3041 	strb.w	r3, [r4, #65]	@ 0x41
 8001d30:	f884 3042 	strb.w	r3, [r4, #66]	@ 0x42
 8001d34:	f884 3043 	strb.w	r3, [r4, #67]	@ 0x43
 8001d38:	f884 3044 	strb.w	r3, [r4, #68]	@ 0x44
 8001d3c:	f884 3045 	strb.w	r3, [r4, #69]	@ 0x45
 8001d40:	f884 3046 	strb.w	r3, [r4, #70]	@ 0x46
 8001d44:	f884 3047 	strb.w	r3, [r4, #71]	@ 0x47
 8001d48:	f884 303d 	strb.w	r3, [r4, #61]	@ 0x3d
 8001d4c:	2000      	movs	r0, #0
 8001d4e:	bd38      	pop	{r3, r4, r5, pc}
 8001d50:	68a1      	ldr	r1, [r4, #8]
 8001d52:	f022 0270 	bic.w	r2, r2, #112	@ 0x70
 8001d56:	430a      	orrs	r2, r1
 8001d58:	6920      	ldr	r0, [r4, #16]
 8001d5a:	f422 7240 	bic.w	r2, r2, #768	@ 0x300
 8001d5e:	69a1      	ldr	r1, [r4, #24]
 8001d60:	4302      	orrs	r2, r0
 8001d62:	f022 0280 	bic.w	r2, r2, #128	@ 0x80
 8001d66:	68e0      	ldr	r0, [r4, #12]
 8001d68:	430a      	orrs	r2, r1
 8001d6a:	6861      	ldr	r1, [r4, #4]
 8001d6c:	601a      	str	r2, [r3, #0]
 8001d6e:	62d8      	str	r0, [r3, #44]	@ 0x2c
 8001d70:	6299      	str	r1, [r3, #40]	@ 0x28
 8001d72:	e7c9      	b.n	8001d08 <HAL_TIM_Base_Init+0xe0>
 8001d74:	f880 203c 	strb.w	r2, [r0, #60]	@ 0x3c
 8001d78:	f7fe fc12 	bl	80005a0 <HAL_TIM_Base_MspInit>
 8001d7c:	e760      	b.n	8001c40 <HAL_TIM_Base_Init+0x18>
 8001d7e:	2001      	movs	r0, #1
 8001d80:	4770      	bx	lr
 8001d82:	6920      	ldr	r0, [r4, #16]
 8001d84:	f422 7240 	bic.w	r2, r2, #768	@ 0x300
 8001d88:	69a1      	ldr	r1, [r4, #24]
 8001d8a:	4302      	orrs	r2, r0
 8001d8c:	e7b2      	b.n	8001cf4 <HAL_TIM_Base_Init+0xcc>
 8001d8e:	68a1      	ldr	r1, [r4, #8]
 8001d90:	f022 0270 	bic.w	r2, r2, #112	@ 0x70
 8001d94:	430a      	orrs	r2, r1
 8001d96:	e782      	b.n	8001c9e <HAL_TIM_Base_Init+0x76>
 8001d98:	68a0      	ldr	r0, [r4, #8]
 8001d9a:	f022 0270 	bic.w	r2, r2, #112	@ 0x70
 8001d9e:	6921      	ldr	r1, [r4, #16]
 8001da0:	4302      	orrs	r2, r0
 8001da2:	f422 7240 	bic.w	r2, r2, #768	@ 0x300
 8001da6:	69a0      	ldr	r0, [r4, #24]
 8001da8:	430a      	orrs	r2, r1
 8001daa:	f022 0280 	bic.w	r2, r2, #128	@ 0x80
 8001dae:	4302      	orrs	r2, r0
 8001db0:	68e1      	ldr	r1, [r4, #12]
 8001db2:	601a      	str	r2, [r3, #0]
 8001db4:	6862      	ldr	r2, [r4, #4]
 8001db6:	62d9      	str	r1, [r3, #44]	@ 0x2c
 8001db8:	629a      	str	r2, [r3, #40]	@ 0x28
 8001dba:	e7a3      	b.n	8001d04 <HAL_TIM_Base_Init+0xdc>
 8001dbc:	40012c00 	.word	0x40012c00
 8001dc0:	40000400 	.word	0x40000400
 8001dc4:	40000800 	.word	0x40000800
 8001dc8:	40000c00 	.word	0x40000c00
 8001dcc:	40013400 	.word	0x40013400
 8001dd0:	50000c00 	.word	0x50000c00
 8001dd4:	40014000 	.word	0x40014000
 8001dd8:	40014400 	.word	0x40014400
 8001ddc:	40014800 	.word	0x40014800

08001de0 <HAL_TIM_Base_Start>:
 8001de0:	f890 303d 	ldrb.w	r3, [r0, #61]	@ 0x3d
 8001de4:	2b01      	cmp	r3, #1
 8001de6:	d141      	bne.n	8001e6c <HAL_TIM_Base_Start+0x8c>
 8001de8:	2102      	movs	r1, #2
 8001dea:	6803      	ldr	r3, [r0, #0]
 8001dec:	4a20      	ldr	r2, [pc, #128]	@ (8001e70 <HAL_TIM_Base_Start+0x90>)
 8001dee:	f880 103d 	strb.w	r1, [r0, #61]	@ 0x3d
 8001df2:	4293      	cmp	r3, r2
 8001df4:	d02c      	beq.n	8001e50 <HAL_TIM_Base_Start+0x70>
 8001df6:	f102 5280 	add.w	r2, r2, #268435456	@ 0x10000000
 8001dfa:	4293      	cmp	r3, r2
 8001dfc:	d028      	beq.n	8001e50 <HAL_TIM_Base_Start+0x70>
 8001dfe:	f1b3 4f80 	cmp.w	r3, #1073741824	@ 0x40000000
 8001e02:	d025      	beq.n	8001e50 <HAL_TIM_Base_Start+0x70>
 8001e04:	f1b3 4fa0 	cmp.w	r3, #1342177280	@ 0x50000000
 8001e08:	d022      	beq.n	8001e50 <HAL_TIM_Base_Start+0x70>
 8001e0a:	4a1a      	ldr	r2, [pc, #104]	@ (8001e74 <HAL_TIM_Base_Start+0x94>)
 8001e0c:	4293      	cmp	r3, r2
 8001e0e:	d01f      	beq.n	8001e50 <HAL_TIM_Base_Start+0x70>
 8001e10:	f102 5280 	add.w	r2, r2, #268435456	@ 0x10000000
 8001e14:	4293      	cmp	r3, r2
 8001e16:	d01b      	beq.n	8001e50 <HAL_TIM_Base_Start+0x70>
 8001e18:	4a17      	ldr	r2, [pc, #92]	@ (8001e78 <HAL_TIM_Base_Start+0x98>)
 8001e1a:	4293      	cmp	r3, r2
 8001e1c:	d018      	beq.n	8001e50 <HAL_TIM_Base_Start+0x70>
 8001e1e:	f102 5280 	add.w	r2, r2, #268435456	@ 0x10000000
 8001e22:	4293      	cmp	r3, r2
 8001e24:	d014      	beq.n	8001e50 <HAL_TIM_Base_Start+0x70>
 8001e26:	4a15      	ldr	r2, [pc, #84]	@ (8001e7c <HAL_TIM_Base_Start+0x9c>)
 8001e28:	4293      	cmp	r3, r2
 8001e2a:	d011      	beq.n	8001e50 <HAL_TIM_Base_Start+0x70>
 8001e2c:	f102 5280 	add.w	r2, r2, #268435456	@ 0x10000000
 8001e30:	4293      	cmp	r3, r2
 8001e32:	d00d      	beq.n	8001e50 <HAL_TIM_Base_Start+0x70>
 8001e34:	4a12      	ldr	r2, [pc, #72]	@ (8001e80 <HAL_TIM_Base_Start+0xa0>)
 8001e36:	4293      	cmp	r3, r2
 8001e38:	d00a      	beq.n	8001e50 <HAL_TIM_Base_Start+0x70>
 8001e3a:	f102 5280 	add.w	r2, r2, #268435456	@ 0x10000000
 8001e3e:	4293      	cmp	r3, r2
 8001e40:	d006      	beq.n	8001e50 <HAL_TIM_Base_Start+0x70>
 8001e42:	4a10      	ldr	r2, [pc, #64]	@ (8001e84 <HAL_TIM_Base_Start+0xa4>)
 8001e44:	4293      	cmp	r3, r2
 8001e46:	d003      	beq.n	8001e50 <HAL_TIM_Base_Start+0x70>
 8001e48:	f102 5280 	add.w	r2, r2, #268435456	@ 0x10000000
 8001e4c:	4293      	cmp	r3, r2
 8001e4e:	d107      	bne.n	8001e60 <HAL_TIM_Base_Start+0x80>
 8001e50:	6899      	ldr	r1, [r3, #8]
 8001e52:	4a0d      	ldr	r2, [pc, #52]	@ (8001e88 <HAL_TIM_Base_Start+0xa8>)
 8001e54:	400a      	ands	r2, r1
 8001e56:	2a06      	cmp	r2, #6
 8001e58:	d006      	beq.n	8001e68 <HAL_TIM_Base_Start+0x88>
 8001e5a:	f5b2 3f80 	cmp.w	r2, #65536	@ 0x10000
 8001e5e:	d003      	beq.n	8001e68 <HAL_TIM_Base_Start+0x88>
 8001e60:	681a      	ldr	r2, [r3, #0]
 8001e62:	f042 0201 	orr.w	r2, r2, #1
 8001e66:	601a      	str	r2, [r3, #0]
 8001e68:	2000      	movs	r0, #0
 8001e6a:	4770      	bx	lr
 8001e6c:	2001      	movs	r0, #1
 8001e6e:	4770      	bx	lr
 8001e70:	40012c00 	.word	0x40012c00
 8001e74:	40000400 	.word	0x40000400
 8001e78:	40000800 	.word	0x40000800
 8001e7c:	40000c00 	.word	0x40000c00
 8001e80:	40013400 	.word	0x40013400
 8001e84:	40014000 	.word	0x40014000
 8001e88:	00010007 	.word	0x00010007

08001e8c <HAL_TIM_ConfigClockSource>:
 8001e8c:	f890 203c 	ldrb.w	r2, [r0, #60]	@ 0x3c
 8001e90:	2a01      	cmp	r2, #1
 8001e92:	d075      	beq.n	8001f80 <HAL_TIM_ConfigClockSource+0xf4>
 8001e94:	4603      	mov	r3, r0
 8001e96:	b430      	push	{r4, r5}
 8001e98:	2001      	movs	r0, #1
 8001e9a:	2502      	movs	r5, #2
 8001e9c:	681a      	ldr	r2, [r3, #0]
 8001e9e:	f883 003c 	strb.w	r0, [r3, #60]	@ 0x3c
 8001ea2:	f883 503d 	strb.w	r5, [r3, #61]	@ 0x3d
 8001ea6:	6895      	ldr	r5, [r2, #8]
 8001ea8:	4c5e      	ldr	r4, [pc, #376]	@ (8002024 <HAL_TIM_ConfigClockSource+0x198>)
 8001eaa:	402c      	ands	r4, r5
 8001eac:	6094      	str	r4, [r2, #8]
 8001eae:	680c      	ldr	r4, [r1, #0]
 8001eb0:	2c70      	cmp	r4, #112	@ 0x70
 8001eb2:	f000 8091 	beq.w	8001fd8 <HAL_TIM_ConfigClockSource+0x14c>
 8001eb6:	d827      	bhi.n	8001f08 <HAL_TIM_ConfigClockSource+0x7c>
 8001eb8:	2c50      	cmp	r4, #80	@ 0x50
 8001eba:	d063      	beq.n	8001f84 <HAL_TIM_ConfigClockSource+0xf8>
 8001ebc:	d82d      	bhi.n	8001f1a <HAL_TIM_ConfigClockSource+0x8e>
 8001ebe:	2c40      	cmp	r4, #64	@ 0x40
 8001ec0:	f040 809a 	bne.w	8001ff8 <HAL_TIM_ConfigClockSource+0x16c>
 8001ec4:	6848      	ldr	r0, [r1, #4]
 8001ec6:	68cc      	ldr	r4, [r1, #12]
 8001ec8:	6a11      	ldr	r1, [r2, #32]
 8001eca:	f021 010a 	bic.w	r1, r1, #10
 8001ece:	4308      	orrs	r0, r1
 8001ed0:	6a11      	ldr	r1, [r2, #32]
 8001ed2:	f021 0101 	bic.w	r1, r1, #1
 8001ed6:	6211      	str	r1, [r2, #32]
 8001ed8:	6991      	ldr	r1, [r2, #24]
 8001eda:	f021 01f0 	bic.w	r1, r1, #240	@ 0xf0
 8001ede:	ea41 1104 	orr.w	r1, r1, r4, lsl #4
 8001ee2:	6191      	str	r1, [r2, #24]
 8001ee4:	6210      	str	r0, [r2, #32]
 8001ee6:	6891      	ldr	r1, [r2, #8]
 8001ee8:	f421 1140 	bic.w	r1, r1, #3145728	@ 0x300000
 8001eec:	f021 0170 	bic.w	r1, r1, #112	@ 0x70
 8001ef0:	f041 0147 	orr.w	r1, r1, #71	@ 0x47
 8001ef4:	6091      	str	r1, [r2, #8]
 8001ef6:	2000      	movs	r0, #0
 8001ef8:	2101      	movs	r1, #1
 8001efa:	2200      	movs	r2, #0
 8001efc:	f883 103d 	strb.w	r1, [r3, #61]	@ 0x3d
 8001f00:	f883 203c 	strb.w	r2, [r3, #60]	@ 0x3c
 8001f04:	bc30      	pop	{r4, r5}
 8001f06:	4770      	bx	lr
 8001f08:	f5b4 5f00 	cmp.w	r4, #8192	@ 0x2000
 8001f0c:	d054      	beq.n	8001fb8 <HAL_TIM_ConfigClockSource+0x12c>
 8001f0e:	d821      	bhi.n	8001f54 <HAL_TIM_ConfigClockSource+0xc8>
 8001f10:	f5b4 5080 	subs.w	r0, r4, #4096	@ 0x1000
 8001f14:	bf18      	it	ne
 8001f16:	2001      	movne	r0, #1
 8001f18:	e7ee      	b.n	8001ef8 <HAL_TIM_ConfigClockSource+0x6c>
 8001f1a:	2c60      	cmp	r4, #96	@ 0x60
 8001f1c:	d1ec      	bne.n	8001ef8 <HAL_TIM_ConfigClockSource+0x6c>
 8001f1e:	6848      	ldr	r0, [r1, #4]
 8001f20:	68cc      	ldr	r4, [r1, #12]
 8001f22:	6a11      	ldr	r1, [r2, #32]
 8001f24:	f021 01a0 	bic.w	r1, r1, #160	@ 0xa0
 8001f28:	ea41 1100 	orr.w	r1, r1, r0, lsl #4
 8001f2c:	6a10      	ldr	r0, [r2, #32]
 8001f2e:	f020 0010 	bic.w	r0, r0, #16
 8001f32:	6210      	str	r0, [r2, #32]
 8001f34:	6990      	ldr	r0, [r2, #24]
 8001f36:	f420 4070 	bic.w	r0, r0, #61440	@ 0xf000
 8001f3a:	ea40 3004 	orr.w	r0, r0, r4, lsl #12
 8001f3e:	6190      	str	r0, [r2, #24]
 8001f40:	6211      	str	r1, [r2, #32]
 8001f42:	6891      	ldr	r1, [r2, #8]
 8001f44:	f421 1140 	bic.w	r1, r1, #3145728	@ 0x300000
 8001f48:	f021 0170 	bic.w	r1, r1, #112	@ 0x70
 8001f4c:	f041 0167 	orr.w	r1, r1, #103	@ 0x67
 8001f50:	6091      	str	r1, [r2, #8]
 8001f52:	e7d0      	b.n	8001ef6 <HAL_TIM_ConfigClockSource+0x6a>
 8001f54:	4934      	ldr	r1, [pc, #208]	@ (8002028 <HAL_TIM_ConfigClockSource+0x19c>)
 8001f56:	428c      	cmp	r4, r1
 8001f58:	d008      	beq.n	8001f6c <HAL_TIM_ConfigClockSource+0xe0>
 8001f5a:	d857      	bhi.n	800200c <HAL_TIM_ConfigClockSource+0x180>
 8001f5c:	f024 0110 	bic.w	r1, r4, #16
 8001f60:	f5b1 1f80 	cmp.w	r1, #1048576	@ 0x100000
 8001f64:	d002      	beq.n	8001f6c <HAL_TIM_ConfigClockSource+0xe0>
 8001f66:	4931      	ldr	r1, [pc, #196]	@ (800202c <HAL_TIM_ConfigClockSource+0x1a0>)
 8001f68:	428c      	cmp	r4, r1
 8001f6a:	d1c5      	bne.n	8001ef8 <HAL_TIM_ConfigClockSource+0x6c>
 8001f6c:	6891      	ldr	r1, [r2, #8]
 8001f6e:	f421 1140 	bic.w	r1, r1, #3145728	@ 0x300000
 8001f72:	f021 0170 	bic.w	r1, r1, #112	@ 0x70
 8001f76:	4321      	orrs	r1, r4
 8001f78:	f041 0107 	orr.w	r1, r1, #7
 8001f7c:	6091      	str	r1, [r2, #8]
 8001f7e:	e7ba      	b.n	8001ef6 <HAL_TIM_ConfigClockSource+0x6a>
 8001f80:	2002      	movs	r0, #2
 8001f82:	4770      	bx	lr
 8001f84:	6848      	ldr	r0, [r1, #4]
 8001f86:	68cc      	ldr	r4, [r1, #12]
 8001f88:	6a11      	ldr	r1, [r2, #32]
 8001f8a:	f021 010a 	bic.w	r1, r1, #10
 8001f8e:	4308      	orrs	r0, r1
 8001f90:	6a11      	ldr	r1, [r2, #32]
 8001f92:	f021 0101 	bic.w	r1, r1, #1
 8001f96:	6211      	str	r1, [r2, #32]
 8001f98:	6991      	ldr	r1, [r2, #24]
 8001f9a:	f021 01f0 	bic.w	r1, r1, #240	@ 0xf0
 8001f9e:	ea41 1104 	orr.w	r1, r1, r4, lsl #4
 8001fa2:	6191      	str	r1, [r2, #24]
 8001fa4:	6210      	str	r0, [r2, #32]
 8001fa6:	6891      	ldr	r1, [r2, #8]
 8001fa8:	f421 1140 	bic.w	r1, r1, #3145728	@ 0x300000
 8001fac:	f021 0170 	bic.w	r1, r1, #112	@ 0x70
 8001fb0:	f041 0157 	orr.w	r1, r1, #87	@ 0x57
 8001fb4:	6091      	str	r1, [r2, #8]
 8001fb6:	e79e      	b.n	8001ef6 <HAL_TIM_ConfigClockSource+0x6a>
 8001fb8:	e9d1 5001 	ldrd	r5, r0, [r1, #4]
 8001fbc:	6894      	ldr	r4, [r2, #8]
 8001fbe:	4328      	orrs	r0, r5
 8001fc0:	68cd      	ldr	r5, [r1, #12]
 8001fc2:	f424 417f 	bic.w	r1, r4, #65280	@ 0xff00
 8001fc6:	ea40 2005 	orr.w	r0, r0, r5, lsl #8
 8001fca:	4308      	orrs	r0, r1
 8001fcc:	6090      	str	r0, [r2, #8]
 8001fce:	6891      	ldr	r1, [r2, #8]
 8001fd0:	f441 4180 	orr.w	r1, r1, #16384	@ 0x4000
 8001fd4:	6091      	str	r1, [r2, #8]
 8001fd6:	e78e      	b.n	8001ef6 <HAL_TIM_ConfigClockSource+0x6a>
 8001fd8:	e9d1 5001 	ldrd	r5, r0, [r1, #4]
 8001fdc:	6894      	ldr	r4, [r2, #8]
 8001fde:	4328      	orrs	r0, r5
 8001fe0:	68cd      	ldr	r5, [r1, #12]
 8001fe2:	f424 417f 	bic.w	r1, r4, #65280	@ 0xff00
 8001fe6:	ea40 2005 	orr.w	r0, r0, r5, lsl #8
 8001fea:	4308      	orrs	r0, r1
 8001fec:	6090      	str	r0, [r2, #8]
 8001fee:	6891      	ldr	r1, [r2, #8]
 8001ff0:	f041 0177 	orr.w	r1, r1, #119	@ 0x77
 8001ff4:	6091      	str	r1, [r2, #8]
 8001ff6:	e77e      	b.n	8001ef6 <HAL_TIM_ConfigClockSource+0x6a>
 8001ff8:	f63f af7e 	bhi.w	8001ef8 <HAL_TIM_ConfigClockSource+0x6c>
 8001ffc:	2c20      	cmp	r4, #32
 8001ffe:	d0b5      	beq.n	8001f6c <HAL_TIM_ConfigClockSource+0xe0>
 8002000:	d80c      	bhi.n	800201c <HAL_TIM_ConfigClockSource+0x190>
 8002002:	f034 0110 	bics.w	r1, r4, #16
 8002006:	f47f af77 	bne.w	8001ef8 <HAL_TIM_ConfigClockSource+0x6c>
 800200a:	e7af      	b.n	8001f6c <HAL_TIM_ConfigClockSource+0xe0>
 800200c:	4908      	ldr	r1, [pc, #32]	@ (8002030 <HAL_TIM_ConfigClockSource+0x1a4>)
 800200e:	428c      	cmp	r4, r1
 8002010:	d0ac      	beq.n	8001f6c <HAL_TIM_ConfigClockSource+0xe0>
 8002012:	3130      	adds	r1, #48	@ 0x30
 8002014:	428c      	cmp	r4, r1
 8002016:	f47f af6f 	bne.w	8001ef8 <HAL_TIM_ConfigClockSource+0x6c>
 800201a:	e7a7      	b.n	8001f6c <HAL_TIM_ConfigClockSource+0xe0>
 800201c:	2c30      	cmp	r4, #48	@ 0x30
 800201e:	d0a5      	beq.n	8001f6c <HAL_TIM_ConfigClockSource+0xe0>
 8002020:	2001      	movs	r0, #1
 8002022:	e769      	b.n	8001ef8 <HAL_TIM_ConfigClockSource+0x6c>
 8002024:	ffce0088 	.word	0xffce0088
 8002028:	00100030 	.word	0x00100030
 800202c:	00100020 	.word	0x00100020
 8002030:	00100040 	.word	0x00100040

08002034 <HAL_TIMEx_MasterConfigSynchronization>:
 8002034:	f890 303c 	ldrb.w	r3, [r0, #60]	@ 0x3c
 8002038:	2b01      	cmp	r3, #1
 800203a:	d062      	beq.n	8002102 <HAL_TIMEx_MasterConfigSynchronization+0xce>
 800203c:	2302      	movs	r3, #2
 800203e:	b430      	push	{r4, r5}
 8002040:	6802      	ldr	r2, [r0, #0]
 8002042:	4d31      	ldr	r5, [pc, #196]	@ (8002108 <HAL_TIMEx_MasterConfigSynchronization+0xd4>)
 8002044:	f880 303d 	strb.w	r3, [r0, #61]	@ 0x3d
 8002048:	42aa      	cmp	r2, r5
 800204a:	4684      	mov	ip, r0
 800204c:	6853      	ldr	r3, [r2, #4]
 800204e:	680c      	ldr	r4, [r1, #0]
 8002050:	6890      	ldr	r0, [r2, #8]
 8002052:	d040      	beq.n	80020d6 <HAL_TIMEx_MasterConfigSynchronization+0xa2>
 8002054:	f105 5580 	add.w	r5, r5, #268435456	@ 0x10000000
 8002058:	42aa      	cmp	r2, r5
 800205a:	d047      	beq.n	80020ec <HAL_TIMEx_MasterConfigSynchronization+0xb8>
 800205c:	4d2b      	ldr	r5, [pc, #172]	@ (800210c <HAL_TIMEx_MasterConfigSynchronization+0xd8>)
 800205e:	42aa      	cmp	r2, r5
 8002060:	d039      	beq.n	80020d6 <HAL_TIMEx_MasterConfigSynchronization+0xa2>
 8002062:	f105 5580 	add.w	r5, r5, #268435456	@ 0x10000000
 8002066:	42aa      	cmp	r2, r5
 8002068:	d035      	beq.n	80020d6 <HAL_TIMEx_MasterConfigSynchronization+0xa2>
 800206a:	f023 7300 	bic.w	r3, r3, #33554432	@ 0x2000000
 800206e:	f023 0370 	bic.w	r3, r3, #112	@ 0x70
 8002072:	4323      	orrs	r3, r4
 8002074:	f1b2 4f80 	cmp.w	r2, #1073741824	@ 0x40000000
 8002078:	6053      	str	r3, [r2, #4]
 800207a:	d01e      	beq.n	80020ba <HAL_TIMEx_MasterConfigSynchronization+0x86>
 800207c:	f1b2 4fa0 	cmp.w	r2, #1342177280	@ 0x50000000
 8002080:	d01b      	beq.n	80020ba <HAL_TIMEx_MasterConfigSynchronization+0x86>
 8002082:	4b23      	ldr	r3, [pc, #140]	@ (8002110 <HAL_TIMEx_MasterConfigSynchronization+0xdc>)
 8002084:	429a      	cmp	r2, r3
 8002086:	d018      	beq.n	80020ba <HAL_TIMEx_MasterConfigSynchronization+0x86>
 8002088:	f103 5380 	add.w	r3, r3, #268435456	@ 0x10000000
 800208c:	429a      	cmp	r2, r3
 800208e:	d014      	beq.n	80020ba <HAL_TIMEx_MasterConfigSynchronization+0x86>
 8002090:	4b20      	ldr	r3, [pc, #128]	@ (8002114 <HAL_TIMEx_MasterConfigSynchronization+0xe0>)
 8002092:	429a      	cmp	r2, r3
 8002094:	d011      	beq.n	80020ba <HAL_TIMEx_MasterConfigSynchronization+0x86>
 8002096:	f103 5380 	add.w	r3, r3, #268435456	@ 0x10000000
 800209a:	429a      	cmp	r2, r3
 800209c:	d00d      	beq.n	80020ba <HAL_TIMEx_MasterConfigSynchronization+0x86>
 800209e:	4b1e      	ldr	r3, [pc, #120]	@ (8002118 <HAL_TIMEx_MasterConfigSynchronization+0xe4>)
 80020a0:	429a      	cmp	r2, r3
 80020a2:	d00a      	beq.n	80020ba <HAL_TIMEx_MasterConfigSynchronization+0x86>
 80020a4:	f103 5380 	add.w	r3, r3, #268435456	@ 0x10000000
 80020a8:	429a      	cmp	r2, r3
 80020aa:	d006      	beq.n	80020ba <HAL_TIMEx_MasterConfigSynchronization+0x86>
 80020ac:	4b1b      	ldr	r3, [pc, #108]	@ (800211c <HAL_TIMEx_MasterConfigSynchronization+0xe8>)
 80020ae:	429a      	cmp	r2, r3
 80020b0:	d003      	beq.n	80020ba <HAL_TIMEx_MasterConfigSynchronization+0x86>
 80020b2:	f103 5380 	add.w	r3, r3, #268435456	@ 0x10000000
 80020b6:	429a      	cmp	r2, r3
 80020b8:	d104      	bne.n	80020c4 <HAL_TIMEx_MasterConfigSynchronization+0x90>
 80020ba:	688b      	ldr	r3, [r1, #8]
 80020bc:	f020 0080 	bic.w	r0, r0, #128	@ 0x80
 80020c0:	4318      	orrs	r0, r3
 80020c2:	6090      	str	r0, [r2, #8]
 80020c4:	2300      	movs	r3, #0
 80020c6:	2201      	movs	r2, #1
 80020c8:	f88c 303c 	strb.w	r3, [ip, #60]	@ 0x3c
 80020cc:	f88c 203d 	strb.w	r2, [ip, #61]	@ 0x3d
 80020d0:	4618      	mov	r0, r3
 80020d2:	bc30      	pop	{r4, r5}
 80020d4:	4770      	bx	lr
 80020d6:	684d      	ldr	r5, [r1, #4]
 80020d8:	f423 0370 	bic.w	r3, r3, #15728640	@ 0xf00000
 80020dc:	432b      	orrs	r3, r5
 80020de:	f023 7300 	bic.w	r3, r3, #33554432	@ 0x2000000
 80020e2:	f023 0370 	bic.w	r3, r3, #112	@ 0x70
 80020e6:	4323      	orrs	r3, r4
 80020e8:	6053      	str	r3, [r2, #4]
 80020ea:	e7e6      	b.n	80020ba <HAL_TIMEx_MasterConfigSynchronization+0x86>
 80020ec:	684d      	ldr	r5, [r1, #4]
 80020ee:	f423 0370 	bic.w	r3, r3, #15728640	@ 0xf00000
 80020f2:	432b      	orrs	r3, r5
 80020f4:	f023 7300 	bic.w	r3, r3, #33554432	@ 0x2000000
 80020f8:	f023 0370 	bic.w	r3, r3, #112	@ 0x70
 80020fc:	431c      	orrs	r4, r3
 80020fe:	6054      	str	r4, [r2, #4]
 8002100:	e7db      	b.n	80020ba <HAL_TIMEx_MasterConfigSynchronization+0x86>
 8002102:	2002      	movs	r0, #2
 8002104:	4770      	bx	lr
 8002106:	bf00      	nop
 8002108:	40012c00 	.word	0x40012c00
 800210c:	40013400 	.word	0x40013400
 8002110:	40000400 	.word	0x40000400
 8002114:	40000800 	.word	0x40000800
 8002118:	40000c00 	.word	0x40000c00
 800211c:	40014000 	.word	0x40014000

08002120 <_init>:
 8002120:	b5f8      	push	{r3, r4, r5, r6, r7, lr}
 8002122:	bf00      	nop
 8002124:	bcf8      	pop	{r3, r4, r5, r6, r7}
 8002126:	bc08      	pop	{r3}
 8002128:	469e      	mov	lr, r3
 800212a:	4770      	bx	lr

0800212c <_fini>:
 800212c:	b5f8      	push	{r3, r4, r5, r6, r7, lr}
 800212e:	bf00      	nop
 8002130:	bcf8      	pop	{r3, r4, r5, r6, r7}
 8002132:	bc08      	pop	{r3}
 8002134:	469e      	mov	lr, r3
 8002136:	4770      	bx	lr
