
usart.elf:     file format elf32-littlearm

Sections:
Idx Name          Size      VMA       LMA       File off  Algn
  0 .isr_vector   00000238  08000000  08000000  00001000  2**0
                  CONTENTS, ALLOC, LOAD, READONLY, DATA
  1 .text         00004774  08000238  08000238  00001238  2**2
                  CONTENTS, ALLOC, LOAD, READONLY, CODE
  2 .rodata       00000100  080049ac  080049ac  000059ac  2**2
                  CONTENTS, ALLOC, LOAD, READONLY, DATA
  3 .ARM          00000008  08004aac  08004aac  00005aac  2**2
                  CONTENTS, ALLOC, LOAD, READONLY, DATA
  4 .init_array   00000004  08004ab4  08004ab4  00005ab4  2**2
                  CONTENTS, ALLOC, LOAD, READONLY, DATA
  5 .fini_array   00000004  08004ab8  08004ab8  00005ab8  2**2
                  CONTENTS, ALLOC, LOAD, READONLY, DATA
  6 .data         0000004c  20000000  08004abc  00006000  2**2
                  CONTENTS, ALLOC, LOAD, DATA
  7 .bss          00000220  2000004c  08004b08  0000604c  2**2
                  ALLOC
  8 ._user_heap_stack 00000604  2000026c  08004b08  0000626c  2**0
                  ALLOC
  9 .ARM.attributes 00000036  00000000  00000000  0000604c  2**0
                  CONTENTS, READONLY
 10 .comment      00000026  00000000  00000000  00006082  2**0
                  CONTENTS, READONLY
 11 .debug_info   00000995  00000000  00000000  000060a8  2**0
                  CONTENTS, READONLY, DEBUGGING, OCTETS
 12 .debug_abbrev 00000324  00000000  00000000  00006a3d  2**0
                  CONTENTS, READONLY, DEBUGGING, OCTETS
 13 .debug_loclists 00000b66  00000000  00000000  00006d61  2**0
                  CONTENTS, READONLY, DEBUGGING, OCTETS
 14 .debug_aranges 000000a0  00000000  00000000  000078c8  2**3
                  CONTENTS, READONLY, DEBUGGING, OCTETS
 15 .debug_line   000008d5  00000000  00000000  00007968  2**0
                  CONTENTS, READONLY, DEBUGGING, OCTETS
 16 .debug_str    0000088e  00000000  00000000  0000823d  2**0
                  CONTENTS, READONLY, DEBUGGING, OCTETS
 17 .debug_frame  000000bc  00000000  00000000  00008acc  2**2
                  CONTENTS, READONLY, DEBUGGING, OCTETS
 18 .debug_line_str 000000a7  00000000  00000000  00008b88  2**0
                  CONTENTS, READONLY, DEBUGGING, OCTETS
 19 .debug_rnglists 00000075  00000000  00000000  00008c2f  2**0
                  CONTENTS, READONLY, DEBUGGING, OCTETS

Disassembly of section .text:

08000238 <deregister_tm_clones>:
 8000238:	4803      	ldr	r0, [pc, #12]	@ (8000248 <deregister_tm_clones+0x10>)
 800023a:	4b04      	ldr	r3, [pc, #16]	@ (800024c <deregister_tm_clones+0x14>)
 800023c:	4283      	cmp	r3, r0
 800023e:	d002      	beq.n	8000246 <deregister_tm_clones+0xe>
 8000240:	4b03      	ldr	r3, [pc, #12]	@ (8000250 <deregister_tm_clones+0x18>)
 8000242:	b103      	cbz	r3, 8000246 <deregister_tm_clones+0xe>
 8000244:	4718      	bx	r3
 8000246:	4770      	bx	lr
 8000248:	2000004c 	.word	0x2000004c
 800024c:	2000004c 	.word	0x2000004c
 8000250:	00000000 	.word	0x00000000

08000254 <register_tm_clones>:
 8000254:	4b06      	ldr	r3, [pc, #24]	@ (8000270 <register_tm_clones+0x1c>)
 8000256:	4907      	ldr	r1, [pc, #28]	@ (8000274 <register_tm_clones+0x20>)
 8000258:	1ac9      	subs	r1, r1, r3
 800025a:	1089      	asrs	r1, r1, #2
 800025c:	bf48      	it	mi
 800025e:	3101      	addmi	r1, #1
 8000260:	1049      	asrs	r1, r1, #1
 8000262:	d003      	beq.n	800026c <register_tm_clones+0x18>
 8000264:	4b04      	ldr	r3, [pc, #16]	@ (8000278 <register_tm_clones+0x24>)
 8000266:	b10b      	cbz	r3, 800026c <register_tm_clones+0x18>
 8000268:	4801      	ldr	r0, [pc, #4]	@ (8000270 <register_tm_clones+0x1c>)
 800026a:	4718      	bx	r3
 800026c:	4770      	bx	lr
 800026e:	bf00      	nop
 8000270:	2000004c 	.word	0x2000004c
 8000274:	2000004c 	.word	0x2000004c
 8000278:	00000000 	.word	0x00000000

0800027c <__do_global_dtors_aux>:
 800027c:	b510      	push	{r4, lr}
 800027e:	4c06      	ldr	r4, [pc, #24]	@ (8000298 <__do_global_dtors_aux+0x1c>)
 8000280:	7823      	ldrb	r3, [r4, #0]
 8000282:	b943      	cbnz	r3, 8000296 <__do_global_dtors_aux+0x1a>
 8000284:	f7ff ffd8 	bl	8000238 <deregister_tm_clones>
 8000288:	4b04      	ldr	r3, [pc, #16]	@ (800029c <__do_global_dtors_aux+0x20>)
 800028a:	b113      	cbz	r3, 8000292 <__do_global_dtors_aux+0x16>
 800028c:	4804      	ldr	r0, [pc, #16]	@ (80002a0 <__do_global_dtors_aux+0x24>)
 800028e:	f3af 8000 	nop.w
 8000292:	2301      	movs	r3, #1
 8000294:	7023      	strb	r3, [r4, #0]
 8000296:	bd10      	pop	{r4, pc}
 8000298:	2000004c 	.word	0x2000004c
 800029c:	00000000 	.word	0x00000000
 80002a0:	08004994 	.word	0x08004994

080002a4 <frame_dummy>:
 80002a4:	b508      	push	{r3, lr}
 80002a6:	4b04      	ldr	r3, [pc, #16]	@ (80002b8 <frame_dummy+0x14>)
 80002a8:	b11b      	cbz	r3, 80002b2 <frame_dummy+0xe>
 80002aa:	4904      	ldr	r1, [pc, #16]	@ (80002bc <frame_dummy+0x18>)
 80002ac:	4804      	ldr	r0, [pc, #16]	@ (80002c0 <frame_dummy+0x1c>)
 80002ae:	f3af 8000 	nop.w
 80002b2:	e8bd 4008 	ldmia.w	sp!, {r3, lr}
 80002b6:	e7cd      	b.n	8000254 <register_tm_clones>
 80002b8:	00000000 	.word	0x00000000
 80002bc:	20000050 	.word	0x20000050
 80002c0:	08004994 	.word	0x08004994

080002c4 <__libc_init_array>:
 80002c4:	4b0f      	ldr	r3, [pc, #60]	@ (8000304 <__libc_init_array+0x40>)
 80002c6:	b570      	push	{r4, r5, r6, lr}
 80002c8:	4d0f      	ldr	r5, [pc, #60]	@ (8000308 <__libc_init_array+0x44>)
 80002ca:	42ab      	cmp	r3, r5
 80002cc:	eba3 0605 	sub.w	r6, r3, r5
 80002d0:	d007      	beq.n	80002e2 <__libc_init_array+0x1e>
 80002d2:	10b6      	asrs	r6, r6, #2
 80002d4:	2400      	movs	r4, #0
 80002d6:	3401      	adds	r4, #1
 80002d8:	f855 3b04 	ldr.w	r3, [r5], #4
 80002dc:	4798      	blx	r3
 80002de:	42a6      	cmp	r6, r4
 80002e0:	d8f9      	bhi.n	80002d6 <__libc_init_array+0x12>
 80002e2:	4d0a      	ldr	r5, [pc, #40]	@ (800030c <__libc_init_array+0x48>)
 80002e4:	f004 fb56 	bl	8004994 <_init>
 80002e8:	4b09      	ldr	r3, [pc, #36]	@ (8000310 <__libc_init_array+0x4c>)
 80002ea:	1b5e      	subs	r6, r3, r5
 80002ec:	42ab      	cmp	r3, r5
 80002ee:	ea4f 06a6 	mov.w	r6, r6, asr #2
 80002f2:	d006      	beq.n	8000302 <__libc_init_array+0x3e>
 80002f4:	2400      	movs	r4, #0
 80002f6:	3401      	adds	r4, #1
 80002f8:	f855 3b04 	ldr.w	r3, [r5], #4
 80002fc:	4798      	blx	r3
 80002fe:	42a6      	cmp	r6, r4
 8000300:	d8f9      	bhi.n	80002f6 <__libc_init_array+0x32>
 8000302:	bd70      	pop	{r4, r5, r6, pc}
 8000304:	08004ab4 	.word	0x08004ab4
 8000308:	08004ab4 	.word	0x08004ab4
 800030c:	08004ab4 	.word	0x08004ab4
 8000310:	08004ab8 	.word	0x08004ab8

08000314 <memset>:
 8000314:	b570      	push	{r4, r5, r6, lr}
 8000316:	0786      	lsls	r6, r0, #30
 8000318:	d047      	beq.n	80003aa <memset+0x96>
 800031a:	1e54      	subs	r4, r2, #1
 800031c:	2a00      	cmp	r2, #0
 800031e:	d03e      	beq.n	800039e <memset+0x8a>
 8000320:	b2ca      	uxtb	r2, r1
 8000322:	4603      	mov	r3, r0
 8000324:	e001      	b.n	800032a <memset+0x16>
 8000326:	3c01      	subs	r4, #1
 8000328:	d339      	bcc.n	800039e <memset+0x8a>
 800032a:	f803 2b01 	strb.w	r2, [r3], #1
 800032e:	079d      	lsls	r5, r3, #30
 8000330:	d1f9      	bne.n	8000326 <memset+0x12>
 8000332:	2c03      	cmp	r4, #3
 8000334:	d92c      	bls.n	8000390 <memset+0x7c>
 8000336:	b2cd      	uxtb	r5, r1
 8000338:	2c0f      	cmp	r4, #15
 800033a:	eb05 2505 	add.w	r5, r5, r5, lsl #8
 800033e:	eb05 4505 	add.w	r5, r5, r5, lsl #16
 8000342:	d935      	bls.n	80003b0 <memset+0x9c>
 8000344:	f1a4 0c10 	sub.w	ip, r4, #16
 8000348:	f103 0e10 	add.w	lr, r3, #16
 800034c:	461a      	mov	r2, r3
 800034e:	f02c 060f 	bic.w	r6, ip, #15
 8000352:	ea4f 1c1c 	mov.w	ip, ip, lsr #4
 8000356:	44b6      	add	lr, r6
 8000358:	e9c2 5500 	strd	r5, r5, [r2]
 800035c:	e9c2 5502 	strd	r5, r5, [r2, #8]
 8000360:	3210      	adds	r2, #16
 8000362:	4572      	cmp	r2, lr
 8000364:	d1f8      	bne.n	8000358 <memset+0x44>
 8000366:	f10c 0201 	add.w	r2, ip, #1
 800036a:	f014 0f0c 	tst.w	r4, #12
 800036e:	f004 0c0f 	and.w	ip, r4, #15
 8000372:	eb03 1202 	add.w	r2, r3, r2, lsl #4
 8000376:	d013      	beq.n	80003a0 <memset+0x8c>
 8000378:	f1ac 0304 	sub.w	r3, ip, #4
 800037c:	f023 0303 	bic.w	r3, r3, #3
 8000380:	3304      	adds	r3, #4
 8000382:	4413      	add	r3, r2
 8000384:	f842 5b04 	str.w	r5, [r2], #4
 8000388:	4293      	cmp	r3, r2
 800038a:	d1fb      	bne.n	8000384 <memset+0x70>
 800038c:	f00c 0403 	and.w	r4, ip, #3
 8000390:	b12c      	cbz	r4, 800039e <memset+0x8a>
 8000392:	b2c9      	uxtb	r1, r1
 8000394:	441c      	add	r4, r3
 8000396:	f803 1b01 	strb.w	r1, [r3], #1
 800039a:	42a3      	cmp	r3, r4
 800039c:	d1fb      	bne.n	8000396 <memset+0x82>
 800039e:	bd70      	pop	{r4, r5, r6, pc}
 80003a0:	4664      	mov	r4, ip
 80003a2:	4613      	mov	r3, r2
 80003a4:	2c00      	cmp	r4, #0
 80003a6:	d1f4      	bne.n	8000392 <memset+0x7e>
 80003a8:	e7f9      	b.n	800039e <memset+0x8a>
 80003aa:	4603      	mov	r3, r0
 80003ac:	4614      	mov	r4, r2
 80003ae:	e7c0      	b.n	8000332 <memset+0x1e>
 80003b0:	461a      	mov	r2, r3
 80003b2:	46a4      	mov	ip, r4
 80003b4:	e7e0      	b.n	8000378 <memset+0x64>
 80003b6:	bf00      	nop

080003b8 <__aeabi_uldivmod>:
 80003b8:	b953      	cbnz	r3, 80003d0 <__aeabi_uldivmod+0x18>
 80003ba:	b94a      	cbnz	r2, 80003d0 <__aeabi_uldivmod+0x18>
 80003bc:	2900      	cmp	r1, #0
 80003be:	bf08      	it	eq
 80003c0:	2800      	cmpeq	r0, #0
 80003c2:	bf1c      	itt	ne
 80003c4:	f04f 31ff 	movne.w	r1, #4294967295	@ 0xffffffff
 80003c8:	f04f 30ff 	movne.w	r0, #4294967295	@ 0xffffffff
 80003cc:	f000 b98c 	b.w	80006e8 <__aeabi_idiv0>
 80003d0:	f1ad 0c08 	sub.w	ip, sp, #8
 80003d4:	e96d ce04 	strd	ip, lr, [sp, #-16]!
 80003d8:	f000 f806 	bl	80003e8 <__udivmoddi4>
 80003dc:	f8dd e004 	ldr.w	lr, [sp, #4]
 80003e0:	e9dd 2302 	ldrd	r2, r3, [sp, #8]
 80003e4:	b004      	add	sp, #16
 80003e6:	4770      	bx	lr

080003e8 <__udivmoddi4>:
 80003e8:	e92d 4ff0 	stmdb	sp!, {r4, r5, r6, r7, r8, r9, sl, fp, lr}
 80003ec:	9d09      	ldr	r5, [sp, #36]	@ 0x24
 80003ee:	460e      	mov	r6, r1
 80003f0:	4604      	mov	r4, r0
 80003f2:	460f      	mov	r7, r1
 80003f4:	2b00      	cmp	r3, #0
 80003f6:	d147      	bne.n	8000488 <__udivmoddi4+0xa0>
 80003f8:	428a      	cmp	r2, r1
 80003fa:	4694      	mov	ip, r2
 80003fc:	fab2 f382 	clz	r3, r2
 8000400:	d95a      	bls.n	80004b8 <__udivmoddi4+0xd0>
 8000402:	b143      	cbz	r3, 8000416 <__udivmoddi4+0x2e>
 8000404:	fa02 fc03 	lsl.w	ip, r2, r3
 8000408:	f1c3 0220 	rsb	r2, r3, #32
 800040c:	409f      	lsls	r7, r3
 800040e:	409c      	lsls	r4, r3
 8000410:	fa20 f202 	lsr.w	r2, r0, r2
 8000414:	4317      	orrs	r7, r2
 8000416:	ea4f 461c 	mov.w	r6, ip, lsr #16
 800041a:	fa1f fe8c 	uxth.w	lr, ip
 800041e:	0c22      	lsrs	r2, r4, #16
 8000420:	fbb7 f1f6 	udiv	r1, r7, r6
 8000424:	fb06 7711 	mls	r7, r6, r1, r7
 8000428:	fb01 f00e 	mul.w	r0, r1, lr
 800042c:	ea42 4207 	orr.w	r2, r2, r7, lsl #16
 8000430:	4290      	cmp	r0, r2
 8000432:	d908      	bls.n	8000446 <__udivmoddi4+0x5e>
 8000434:	eb1c 0202 	adds.w	r2, ip, r2
 8000438:	f101 37ff 	add.w	r7, r1, #4294967295	@ 0xffffffff
 800043c:	d202      	bcs.n	8000444 <__udivmoddi4+0x5c>
 800043e:	4290      	cmp	r0, r2
 8000440:	f200 813c 	bhi.w	80006bc <__udivmoddi4+0x2d4>
 8000444:	4639      	mov	r1, r7
 8000446:	1a12      	subs	r2, r2, r0
 8000448:	b2a4      	uxth	r4, r4
 800044a:	fbb2 f0f6 	udiv	r0, r2, r6
 800044e:	fb06 2210 	mls	r2, r6, r0, r2
 8000452:	fb00 fe0e 	mul.w	lr, r0, lr
 8000456:	ea44 4402 	orr.w	r4, r4, r2, lsl #16
 800045a:	45a6      	cmp	lr, r4
 800045c:	d908      	bls.n	8000470 <__udivmoddi4+0x88>
 800045e:	eb1c 0404 	adds.w	r4, ip, r4
 8000462:	f100 32ff 	add.w	r2, r0, #4294967295	@ 0xffffffff
 8000466:	d202      	bcs.n	800046e <__udivmoddi4+0x86>
 8000468:	45a6      	cmp	lr, r4
 800046a:	f200 812a 	bhi.w	80006c2 <__udivmoddi4+0x2da>
 800046e:	4610      	mov	r0, r2
 8000470:	ea40 4001 	orr.w	r0, r0, r1, lsl #16
 8000474:	eba4 040e 	sub.w	r4, r4, lr
 8000478:	2100      	movs	r1, #0
 800047a:	b11d      	cbz	r5, 8000484 <__udivmoddi4+0x9c>
 800047c:	40dc      	lsrs	r4, r3
 800047e:	2300      	movs	r3, #0
 8000480:	e9c5 4300 	strd	r4, r3, [r5]
 8000484:	e8bd 8ff0 	ldmia.w	sp!, {r4, r5, r6, r7, r8, r9, sl, fp, pc}
 8000488:	428b      	cmp	r3, r1
 800048a:	d905      	bls.n	8000498 <__udivmoddi4+0xb0>
 800048c:	b10d      	cbz	r5, 8000492 <__udivmoddi4+0xaa>
 800048e:	e9c5 0100 	strd	r0, r1, [r5]
 8000492:	2100      	movs	r1, #0
 8000494:	4608      	mov	r0, r1
 8000496:	e7f5      	b.n	8000484 <__udivmoddi4+0x9c>
 8000498:	fab3 f183 	clz	r1, r3
 800049c:	2900      	cmp	r1, #0
 800049e:	d14f      	bne.n	8000540 <__udivmoddi4+0x158>
 80004a0:	42b3      	cmp	r3, r6
 80004a2:	f0c0 8102 	bcc.w	80006aa <__udivmoddi4+0x2c2>
 80004a6:	4282      	cmp	r2, r0
 80004a8:	f240 80ff 	bls.w	80006aa <__udivmoddi4+0x2c2>
 80004ac:	4608      	mov	r0, r1
 80004ae:	2d00      	cmp	r5, #0
 80004b0:	d0e8      	beq.n	8000484 <__udivmoddi4+0x9c>
 80004b2:	e9c5 4700 	strd	r4, r7, [r5]
 80004b6:	e7e5      	b.n	8000484 <__udivmoddi4+0x9c>
 80004b8:	2b00      	cmp	r3, #0
 80004ba:	f040 80af 	bne.w	800061c <__udivmoddi4+0x234>
 80004be:	1a8a      	subs	r2, r1, r2
 80004c0:	ea4f 4e1c 	mov.w	lr, ip, lsr #16
 80004c4:	fa1f f78c 	uxth.w	r7, ip
 80004c8:	2101      	movs	r1, #1
 80004ca:	fbb2 f6fe 	udiv	r6, r2, lr
 80004ce:	fb0e 2016 	mls	r0, lr, r6, r2
 80004d2:	0c22      	lsrs	r2, r4, #16
 80004d4:	ea42 4200 	orr.w	r2, r2, r0, lsl #16
 80004d8:	fb07 f006 	mul.w	r0, r7, r6
 80004dc:	4290      	cmp	r0, r2
 80004de:	d90f      	bls.n	8000500 <__udivmoddi4+0x118>
 80004e0:	eb1c 0202 	adds.w	r2, ip, r2
 80004e4:	f106 38ff 	add.w	r8, r6, #4294967295	@ 0xffffffff
 80004e8:	bf2c      	ite	cs
 80004ea:	f04f 0901 	movcs.w	r9, #1
 80004ee:	f04f 0900 	movcc.w	r9, #0
 80004f2:	4290      	cmp	r0, r2
 80004f4:	d903      	bls.n	80004fe <__udivmoddi4+0x116>
 80004f6:	f1b9 0f00 	cmp.w	r9, #0
 80004fa:	f000 80dc 	beq.w	80006b6 <__udivmoddi4+0x2ce>
 80004fe:	4646      	mov	r6, r8
 8000500:	1a12      	subs	r2, r2, r0
 8000502:	b2a4      	uxth	r4, r4
 8000504:	fbb2 f0fe 	udiv	r0, r2, lr
 8000508:	fb0e 2210 	mls	r2, lr, r0, r2
 800050c:	fb00 f707 	mul.w	r7, r0, r7
 8000510:	ea44 4402 	orr.w	r4, r4, r2, lsl #16
 8000514:	42a7      	cmp	r7, r4
 8000516:	d90f      	bls.n	8000538 <__udivmoddi4+0x150>
 8000518:	eb1c 0404 	adds.w	r4, ip, r4
 800051c:	f100 32ff 	add.w	r2, r0, #4294967295	@ 0xffffffff
 8000520:	bf2c      	ite	cs
 8000522:	f04f 0e01 	movcs.w	lr, #1
 8000526:	f04f 0e00 	movcc.w	lr, #0
 800052a:	42a7      	cmp	r7, r4
 800052c:	d903      	bls.n	8000536 <__udivmoddi4+0x14e>
 800052e:	f1be 0f00 	cmp.w	lr, #0
 8000532:	f000 80c9 	beq.w	80006c8 <__udivmoddi4+0x2e0>
 8000536:	4610      	mov	r0, r2
 8000538:	1be4      	subs	r4, r4, r7
 800053a:	ea40 4006 	orr.w	r0, r0, r6, lsl #16
 800053e:	e79c      	b.n	800047a <__udivmoddi4+0x92>
 8000540:	f1c1 0420 	rsb	r4, r1, #32
 8000544:	408b      	lsls	r3, r1
 8000546:	fa06 fc01 	lsl.w	ip, r6, r1
 800054a:	fa00 fe01 	lsl.w	lr, r0, r1
 800054e:	fa22 f704 	lsr.w	r7, r2, r4
 8000552:	40e6      	lsrs	r6, r4
 8000554:	408a      	lsls	r2, r1
 8000556:	431f      	orrs	r7, r3
 8000558:	fa20 f304 	lsr.w	r3, r0, r4
 800055c:	ea4f 4817 	mov.w	r8, r7, lsr #16
 8000560:	ea43 030c 	orr.w	r3, r3, ip
 8000564:	fa1f fc87 	uxth.w	ip, r7
 8000568:	ea4f 4913 	mov.w	r9, r3, lsr #16
 800056c:	fbb6 f0f8 	udiv	r0, r6, r8
 8000570:	fb08 6610 	mls	r6, r8, r0, r6
 8000574:	ea49 4606 	orr.w	r6, r9, r6, lsl #16
 8000578:	fb00 f90c 	mul.w	r9, r0, ip
 800057c:	45b1      	cmp	r9, r6
 800057e:	d90e      	bls.n	800059e <__udivmoddi4+0x1b6>
 8000580:	19be      	adds	r6, r7, r6
 8000582:	f100 3aff 	add.w	sl, r0, #4294967295	@ 0xffffffff
 8000586:	bf2c      	ite	cs
 8000588:	f04f 0b01 	movcs.w	fp, #1
 800058c:	f04f 0b00 	movcc.w	fp, #0
 8000590:	45b1      	cmp	r9, r6
 8000592:	d903      	bls.n	800059c <__udivmoddi4+0x1b4>
 8000594:	f1bb 0f00 	cmp.w	fp, #0
 8000598:	f000 80a2 	beq.w	80006e0 <__udivmoddi4+0x2f8>
 800059c:	4650      	mov	r0, sl
 800059e:	eba6 0609 	sub.w	r6, r6, r9
 80005a2:	fa1f f983 	uxth.w	r9, r3
 80005a6:	fbb6 f3f8 	udiv	r3, r6, r8
 80005aa:	fb08 6613 	mls	r6, r8, r3, r6
 80005ae:	fb03 fc0c 	mul.w	ip, r3, ip
 80005b2:	ea49 4606 	orr.w	r6, r9, r6, lsl #16
 80005b6:	45b4      	cmp	ip, r6
 80005b8:	d90e      	bls.n	80005d8 <__udivmoddi4+0x1f0>
 80005ba:	19be      	adds	r6, r7, r6
 80005bc:	f103 38ff 	add.w	r8, r3, #4294967295	@ 0xffffffff
 80005c0:	bf2c      	ite	cs
 80005c2:	f04f 0901 	movcs.w	r9, #1
 80005c6:	f04f 0900 	movcc.w	r9, #0
 80005ca:	45b4      	cmp	ip, r6
 80005cc:	d903      	bls.n	80005d6 <__udivmoddi4+0x1ee>
 80005ce:	f1b9 0f00 	cmp.w	r9, #0
 80005d2:	f000 8082 	beq.w	80006da <__udivmoddi4+0x2f2>
 80005d6:	4643      	mov	r3, r8
 80005d8:	ea43 4000 	orr.w	r0, r3, r0, lsl #16
 80005dc:	eba6 060c 	sub.w	r6, r6, ip
 80005e0:	fba0 8c02 	umull	r8, ip, r0, r2
 80005e4:	4566      	cmp	r6, ip
 80005e6:	4643      	mov	r3, r8
 80005e8:	46e1      	mov	r9, ip
 80005ea:	d302      	bcc.n	80005f2 <__udivmoddi4+0x20a>
 80005ec:	d107      	bne.n	80005fe <__udivmoddi4+0x216>
 80005ee:	45c6      	cmp	lr, r8
 80005f0:	d205      	bcs.n	80005fe <__udivmoddi4+0x216>
 80005f2:	ebb8 0302 	subs.w	r3, r8, r2
 80005f6:	eb6c 0c07 	sbc.w	ip, ip, r7
 80005fa:	3801      	subs	r0, #1
 80005fc:	46e1      	mov	r9, ip
 80005fe:	b15d      	cbz	r5, 8000618 <__udivmoddi4+0x230>
 8000600:	ebbe 0203 	subs.w	r2, lr, r3
 8000604:	eb66 0609 	sbc.w	r6, r6, r9
 8000608:	fa06 f404 	lsl.w	r4, r6, r4
 800060c:	fa22 f301 	lsr.w	r3, r2, r1
 8000610:	40ce      	lsrs	r6, r1
 8000612:	431c      	orrs	r4, r3
 8000614:	e9c5 4600 	strd	r4, r6, [r5]
 8000618:	2100      	movs	r1, #0
 800061a:	e733      	b.n	8000484 <__udivmoddi4+0x9c>
 800061c:	fa02 fc03 	lsl.w	ip, r2, r3
 8000620:	f1c3 0220 	rsb	r2, r3, #32
 8000624:	4099      	lsls	r1, r3
 8000626:	409c      	lsls	r4, r3
 8000628:	40d6      	lsrs	r6, r2
 800062a:	ea4f 4e1c 	mov.w	lr, ip, lsr #16
 800062e:	fa20 f202 	lsr.w	r2, r0, r2
 8000632:	fa1f f78c 	uxth.w	r7, ip
 8000636:	fbb6 f0fe 	udiv	r0, r6, lr
 800063a:	430a      	orrs	r2, r1
 800063c:	fb0e 6610 	mls	r6, lr, r0, r6
 8000640:	0c11      	lsrs	r1, r2, #16
 8000642:	ea41 4106 	orr.w	r1, r1, r6, lsl #16
 8000646:	fb00 f607 	mul.w	r6, r0, r7
 800064a:	428e      	cmp	r6, r1
 800064c:	d90e      	bls.n	800066c <__udivmoddi4+0x284>
 800064e:	eb1c 0101 	adds.w	r1, ip, r1
 8000652:	f100 38ff 	add.w	r8, r0, #4294967295	@ 0xffffffff
 8000656:	bf2c      	ite	cs
 8000658:	f04f 0901 	movcs.w	r9, #1
 800065c:	f04f 0900 	movcc.w	r9, #0
 8000660:	428e      	cmp	r6, r1
 8000662:	d902      	bls.n	800066a <__udivmoddi4+0x282>
 8000664:	f1b9 0f00 	cmp.w	r9, #0
 8000668:	d034      	beq.n	80006d4 <__udivmoddi4+0x2ec>
 800066a:	4640      	mov	r0, r8
 800066c:	1b89      	subs	r1, r1, r6
 800066e:	b292      	uxth	r2, r2
 8000670:	fbb1 f6fe 	udiv	r6, r1, lr
 8000674:	fb0e 1116 	mls	r1, lr, r6, r1
 8000678:	ea42 4201 	orr.w	r2, r2, r1, lsl #16
 800067c:	fb06 f107 	mul.w	r1, r6, r7
 8000680:	4291      	cmp	r1, r2
 8000682:	d90e      	bls.n	80006a2 <__udivmoddi4+0x2ba>
 8000684:	eb1c 0202 	adds.w	r2, ip, r2
 8000688:	f106 38ff 	add.w	r8, r6, #4294967295	@ 0xffffffff
 800068c:	bf2c      	ite	cs
 800068e:	f04f 0901 	movcs.w	r9, #1
 8000692:	f04f 0900 	movcc.w	r9, #0
 8000696:	4291      	cmp	r1, r2
 8000698:	d902      	bls.n	80006a0 <__udivmoddi4+0x2b8>
 800069a:	f1b9 0f00 	cmp.w	r9, #0
 800069e:	d016      	beq.n	80006ce <__udivmoddi4+0x2e6>
 80006a0:	4646      	mov	r6, r8
 80006a2:	1a52      	subs	r2, r2, r1
 80006a4:	ea46 4100 	orr.w	r1, r6, r0, lsl #16
 80006a8:	e70f      	b.n	80004ca <__udivmoddi4+0xe2>
 80006aa:	1a84      	subs	r4, r0, r2
 80006ac:	eb66 0203 	sbc.w	r2, r6, r3
 80006b0:	2001      	movs	r0, #1
 80006b2:	4617      	mov	r7, r2
 80006b4:	e6fb      	b.n	80004ae <__udivmoddi4+0xc6>
 80006b6:	3e02      	subs	r6, #2
 80006b8:	4462      	add	r2, ip
 80006ba:	e721      	b.n	8000500 <__udivmoddi4+0x118>
 80006bc:	3902      	subs	r1, #2
 80006be:	4462      	add	r2, ip
 80006c0:	e6c1      	b.n	8000446 <__udivmoddi4+0x5e>
 80006c2:	4464      	add	r4, ip
 80006c4:	3802      	subs	r0, #2
 80006c6:	e6d3      	b.n	8000470 <__udivmoddi4+0x88>
 80006c8:	4464      	add	r4, ip
 80006ca:	3802      	subs	r0, #2
 80006cc:	e734      	b.n	8000538 <__udivmoddi4+0x150>
 80006ce:	3e02      	subs	r6, #2
 80006d0:	4462      	add	r2, ip
 80006d2:	e7e6      	b.n	80006a2 <__udivmoddi4+0x2ba>
 80006d4:	3802      	subs	r0, #2
 80006d6:	4461      	add	r1, ip
 80006d8:	e7c8      	b.n	800066c <__udivmoddi4+0x284>
 80006da:	3b02      	subs	r3, #2
 80006dc:	443e      	add	r6, r7
 80006de:	e77b      	b.n	80005d8 <__udivmoddi4+0x1f0>
 80006e0:	3802      	subs	r0, #2
 80006e2:	443e      	add	r6, r7
 80006e4:	e75b      	b.n	800059e <__udivmoddi4+0x1b6>
 80006e6:	bf00      	nop

080006e8 <__aeabi_idiv0>:
 80006e8:	4770      	bx	lr
 80006ea:	bf00      	nop

080006ec <SystemClock_Config>:
 80006ec:	b500      	push	{lr}
 80006ee:	b09f      	sub	sp, #124	@ 0x7c
 80006f0:	2260      	movs	r2, #96	@ 0x60
 80006f2:	2100      	movs	r1, #0
 80006f4:	a806      	add	r0, sp, #24
 80006f6:	f7ff fe0d 	bl	8000314 <memset>
 80006fa:	2218      	movs	r2, #24
 80006fc:	2100      	movs	r1, #0
 80006fe:	4668      	mov	r0, sp
 8000700:	f7ff fe08 	bl	8000314 <memset>
 8000704:	f44f 3040 	mov.w	r0, #196608	@ 0x30000
 8000708:	f001 fa94 	bl	8001c34 <HAL_PWREx_ControlVoltageScaling>
 800070c:	b108      	cbz	r0, 8000712 <SystemClock_Config+0x26>
 800070e:	b672      	cpsid	i
 8000710:	e7fe      	b.n	8000710 <SystemClock_Config+0x24>
 8000712:	f44f 7180 	mov.w	r1, #256	@ 0x100
 8000716:	2210      	movs	r2, #16
 8000718:	2302      	movs	r3, #2
 800071a:	e9cd 1209 	strd	r1, r2, [sp, #36]	@ 0x24
 800071e:	2201      	movs	r2, #1
 8000720:	210a      	movs	r1, #10
 8000722:	e9cd 3314 	strd	r3, r3, [sp, #80]	@ 0x50
 8000726:	e9cd 1318 	strd	r1, r3, [sp, #96]	@ 0x60
 800072a:	e9cd 321a 	strd	r3, r2, [sp, #104]	@ 0x68
 800072e:	9306      	str	r3, [sp, #24]
 8000730:	230c      	movs	r3, #12
 8000732:	9017      	str	r0, [sp, #92]	@ 0x5c
 8000734:	e9cd 301c 	strd	r3, r0, [sp, #112]	@ 0x70
 8000738:	a806      	add	r0, sp, #24
 800073a:	9216      	str	r2, [sp, #88]	@ 0x58
 800073c:	f001 fcfc 	bl	8002138 <HAL_RCC_OscConfig>
 8000740:	b108      	cbz	r0, 8000746 <SystemClock_Config+0x5a>
 8000742:	b672      	cpsid	i
 8000744:	e7fe      	b.n	8000744 <SystemClock_Config+0x58>
 8000746:	221f      	movs	r2, #31
 8000748:	2303      	movs	r3, #3
 800074a:	e9cd 0002 	strd	r0, r0, [sp, #8]
 800074e:	e9cd 0004 	strd	r0, r0, [sp, #16]
 8000752:	2104      	movs	r1, #4
 8000754:	4668      	mov	r0, sp
 8000756:	e9cd 2300 	strd	r2, r3, [sp]
 800075a:	f001 fb8b 	bl	8001e74 <HAL_RCC_ClockConfig>
 800075e:	b108      	cbz	r0, 8000764 <SystemClock_Config+0x78>
 8000760:	b672      	cpsid	i
 8000762:	e7fe      	b.n	8000762 <SystemClock_Config+0x76>
 8000764:	b01f      	add	sp, #124	@ 0x7c
 8000766:	f85d fb04 	ldr.w	pc, [sp], #4
	...

0800076c <main>:
 800076c:	b57f      	push	{r0, r1, r2, r3, r4, r5, r6, lr}
 800076e:	f000 fa11 	bl	8000b94 <HAL_Init>
 8000772:	f7ff ffbb 	bl	80006ec <SystemClock_Config>
 8000776:	4b3e      	ldr	r3, [pc, #248]	@ (8000870 <main+0x104>)
 8000778:	2052      	movs	r0, #82	@ 0x52
 800077a:	f8d3 208c 	ldr.w	r2, [r3, #140]	@ 0x8c
 800077e:	4c3d      	ldr	r4, [pc, #244]	@ (8000874 <main+0x108>)
 8000780:	f042 0280 	orr.w	r2, r2, #128	@ 0x80
 8000784:	f8c3 208c 	str.w	r2, [r3, #140]	@ 0x8c
 8000788:	f8d3 208c 	ldr.w	r2, [r3, #140]	@ 0x8c
 800078c:	f002 0280 	and.w	r2, r2, #128	@ 0x80
 8000790:	9202      	str	r2, [sp, #8]
 8000792:	9a02      	ldr	r2, [sp, #8]
 8000794:	f8d3 208c 	ldr.w	r2, [r3, #140]	@ 0x8c
 8000798:	f042 0201 	orr.w	r2, r2, #1
 800079c:	f8c3 208c 	str.w	r2, [r3, #140]	@ 0x8c
 80007a0:	f8d3 208c 	ldr.w	r2, [r3, #140]	@ 0x8c
 80007a4:	f002 0201 	and.w	r2, r2, #1
 80007a8:	9203      	str	r2, [sp, #12]
 80007aa:	9a03      	ldr	r2, [sp, #12]
 80007ac:	f8d3 2088 	ldr.w	r2, [r3, #136]	@ 0x88
 80007b0:	f042 0201 	orr.w	r2, r2, #1
 80007b4:	f8c3 2088 	str.w	r2, [r3, #136]	@ 0x88
 80007b8:	2200      	movs	r2, #0
 80007ba:	f8d3 3088 	ldr.w	r3, [r3, #136]	@ 0x88
 80007be:	4611      	mov	r1, r2
 80007c0:	f003 0301 	and.w	r3, r3, #1
 80007c4:	9301      	str	r3, [sp, #4]
 80007c6:	9b01      	ldr	r3, [sp, #4]
 80007c8:	f000 fa44 	bl	8000c54 <HAL_NVIC_SetPriority>
 80007cc:	2052      	movs	r0, #82	@ 0x52
 80007ce:	f000 fa71 	bl	8000cb4 <HAL_NVIC_EnableIRQ>
 80007d2:	2200      	movs	r2, #0
 80007d4:	2053      	movs	r0, #83	@ 0x53
 80007d6:	4611      	mov	r1, r2
 80007d8:	f000 fa3c 	bl	8000c54 <HAL_NVIC_SetPriority>
 80007dc:	2053      	movs	r0, #83	@ 0x53
 80007de:	f000 fa69 	bl	8000cb4 <HAL_NVIC_EnableIRQ>
 80007e2:	f44f 33e1 	mov.w	r3, #115200	@ 0x1c200
 80007e6:	4a24      	ldr	r2, [pc, #144]	@ (8000878 <main+0x10c>)
 80007e8:	4620      	mov	r0, r4
 80007ea:	e9c4 2300 	strd	r2, r3, [r4]
 80007ee:	2300      	movs	r3, #0
 80007f0:	220c      	movs	r2, #12
 80007f2:	e9c4 3302 	strd	r3, r3, [r4, #8]
 80007f6:	e9c4 2305 	strd	r2, r3, [r4, #20]
 80007fa:	e9c4 3307 	strd	r3, r3, [r4, #28]
 80007fe:	e9c4 3309 	strd	r3, r3, [r4, #36]	@ 0x24
 8000802:	6123      	str	r3, [r4, #16]
 8000804:	f003 ff8a 	bl	800471c <HAL_UART_Init>
 8000808:	4601      	mov	r1, r0
 800080a:	b108      	cbz	r0, 8000810 <main+0xa4>
 800080c:	b672      	cpsid	i
 800080e:	e7fe      	b.n	800080e <main+0xa2>
 8000810:	4620      	mov	r0, r4
 8000812:	f004 f87e 	bl	8004912 <HAL_UARTEx_SetTxFifoThreshold>
 8000816:	4601      	mov	r1, r0
 8000818:	b108      	cbz	r0, 800081e <main+0xb2>
 800081a:	b672      	cpsid	i
 800081c:	e7fe      	b.n	800081c <main+0xb0>
 800081e:	4620      	mov	r0, r4
 8000820:	f004 f897 	bl	8004952 <HAL_UARTEx_SetRxFifoThreshold>
 8000824:	b108      	cbz	r0, 800082a <main+0xbe>
 8000826:	b672      	cpsid	i
 8000828:	e7fe      	b.n	8000828 <main+0xbc>
 800082a:	4620      	mov	r0, r4
 800082c:	f004 f856 	bl	80048dc <HAL_UARTEx_DisableFifoMode>
 8000830:	b108      	cbz	r0, 8000836 <main+0xca>
 8000832:	b672      	cpsid	i
 8000834:	e7fe      	b.n	8000834 <main+0xc8>
 8000836:	f001 f9f3 	bl	8001c20 <HAL_ICACHE_Enable>
 800083a:	b108      	cbz	r0, 8000840 <main+0xd4>
 800083c:	b672      	cpsid	i
 800083e:	e7fe      	b.n	800083e <main+0xd2>
 8000840:	2240      	movs	r2, #64	@ 0x40
 8000842:	4620      	mov	r0, r4
 8000844:	490d      	ldr	r1, [pc, #52]	@ (800087c <main+0x110>)
 8000846:	f004 f801 	bl	800484c <HAL_UART_Receive_DMA>
 800084a:	2330      	movs	r3, #48	@ 0x30
 800084c:	4e0c      	ldr	r6, [pc, #48]	@ (8000880 <main+0x114>)
 800084e:	1c5d      	adds	r5, r3, #1
 8000850:	b2ed      	uxtb	r5, r5
 8000852:	2d3a      	cmp	r5, #58	@ 0x3a
 8000854:	bf08      	it	eq
 8000856:	2530      	moveq	r5, #48	@ 0x30
 8000858:	2240      	movs	r2, #64	@ 0x40
 800085a:	4631      	mov	r1, r6
 800085c:	4620      	mov	r0, r4
 800085e:	71f3      	strb	r3, [r6, #7]
 8000860:	f003 fcaa 	bl	80041b8 <HAL_UART_Transmit_DMA>
 8000864:	f44f 707a 	mov.w	r0, #1000	@ 0x3e8
 8000868:	f000 f9d0 	bl	8000c0c <HAL_Delay>
 800086c:	462b      	mov	r3, r5
 800086e:	e7ee      	b.n	800084e <main+0xe2>
 8000870:	46020c00 	.word	0x46020c00
 8000874:	200001d4 	.word	0x200001d4
 8000878:	40013800 	.word	0x40013800
 800087c:	20000068 	.word	0x20000068
 8000880:	20000000 	.word	0x20000000

08000884 <Error_Handler>:
 8000884:	b672      	cpsid	i
 8000886:	e7fe      	b.n	8000886 <Error_Handler+0x2>

08000888 <HAL_MspInit>:
 8000888:	2004      	movs	r0, #4
 800088a:	4b08      	ldr	r3, [pc, #32]	@ (80008ac <HAL_MspInit+0x24>)
 800088c:	b082      	sub	sp, #8
 800088e:	f8d3 2094 	ldr.w	r2, [r3, #148]	@ 0x94
 8000892:	f042 0204 	orr.w	r2, r2, #4
 8000896:	f8c3 2094 	str.w	r2, [r3, #148]	@ 0x94
 800089a:	f8d3 3094 	ldr.w	r3, [r3, #148]	@ 0x94
 800089e:	f003 0304 	and.w	r3, r3, #4
 80008a2:	9301      	str	r3, [sp, #4]
 80008a4:	9b01      	ldr	r3, [sp, #4]
 80008a6:	b002      	add	sp, #8
 80008a8:	f000 b9c2 	b.w	8000c30 <HAL_NVIC_SetPriorityGrouping>
 80008ac:	46020c00 	.word	0x46020c00

080008b0 <HAL_UART_MspInit>:
 80008b0:	b570      	push	{r4, r5, r6, lr}
 80008b2:	4606      	mov	r6, r0
 80008b4:	b0d2      	sub	sp, #328	@ 0x148
 80008b6:	2214      	movs	r2, #20
 80008b8:	2100      	movs	r1, #0
 80008ba:	a802      	add	r0, sp, #8
 80008bc:	f7ff fd2a 	bl	8000314 <memset>
 80008c0:	22c0      	movs	r2, #192	@ 0xc0
 80008c2:	2100      	movs	r1, #0
 80008c4:	a822      	add	r0, sp, #136	@ 0x88
 80008c6:	f7ff fd25 	bl	8000314 <memset>
 80008ca:	6832      	ldr	r2, [r6, #0]
 80008cc:	4b53      	ldr	r3, [pc, #332]	@ (8000a1c <HAL_UART_MspInit+0x16c>)
 80008ce:	429a      	cmp	r2, r3
 80008d0:	f040 80a1 	bne.w	8000a16 <HAL_UART_MspInit+0x166>
 80008d4:	2201      	movs	r2, #1
 80008d6:	2300      	movs	r3, #0
 80008d8:	a822      	add	r0, sp, #136	@ 0x88
 80008da:	e9cd 2322 	strd	r2, r3, [sp, #136]	@ 0x88
 80008de:	f002 f98f 	bl	8002c00 <HAL_RCCEx_PeriphCLKConfig>
 80008e2:	b108      	cbz	r0, 80008e8 <HAL_UART_MspInit+0x38>
 80008e4:	f7ff ffce 	bl	8000884 <Error_Handler>
 80008e8:	4b4d      	ldr	r3, [pc, #308]	@ (8000a20 <HAL_UART_MspInit+0x170>)
 80008ea:	f44f 60c0 	mov.w	r0, #1536	@ 0x600
 80008ee:	f8d3 20a4 	ldr.w	r2, [r3, #164]	@ 0xa4
 80008f2:	2500      	movs	r5, #0
 80008f4:	f442 4280 	orr.w	r2, r2, #16384	@ 0x4000
 80008f8:	f8c3 20a4 	str.w	r2, [r3, #164]	@ 0xa4
 80008fc:	f8d3 20a4 	ldr.w	r2, [r3, #164]	@ 0xa4
 8000900:	a902      	add	r1, sp, #8
 8000902:	f402 4280 	and.w	r2, r2, #16384	@ 0x4000
 8000906:	9200      	str	r2, [sp, #0]
 8000908:	9a00      	ldr	r2, [sp, #0]
 800090a:	f8d3 208c 	ldr.w	r2, [r3, #140]	@ 0x8c
 800090e:	4c45      	ldr	r4, [pc, #276]	@ (8000a24 <HAL_UART_MspInit+0x174>)
 8000910:	f042 0201 	orr.w	r2, r2, #1
 8000914:	f8c3 208c 	str.w	r2, [r3, #140]	@ 0x8c
 8000918:	f8d3 308c 	ldr.w	r3, [r3, #140]	@ 0x8c
 800091c:	e9cd 5504 	strd	r5, r5, [sp, #16]
 8000920:	f003 0301 	and.w	r3, r3, #1
 8000924:	9301      	str	r3, [sp, #4]
 8000926:	9b01      	ldr	r3, [sp, #4]
 8000928:	2302      	movs	r3, #2
 800092a:	e9cd 0302 	strd	r0, r3, [sp, #8]
 800092e:	2307      	movs	r3, #7
 8000930:	483d      	ldr	r0, [pc, #244]	@ (8000a28 <HAL_UART_MspInit+0x178>)
 8000932:	9306      	str	r3, [sp, #24]
 8000934:	f001 f86a 	bl	8001a0c <HAL_GPIO_Init>
 8000938:	2319      	movs	r3, #25
 800093a:	f8df c100 	ldr.w	ip, [pc, #256]	@ 8000a3c <HAL_UART_MspInit+0x18c>
 800093e:	4620      	mov	r0, r4
 8000940:	e9c4 c300 	strd	ip, r3, [r4]
 8000944:	2301      	movs	r3, #1
 8000946:	e9c4 5502 	strd	r5, r5, [r4, #8]
 800094a:	e9c4 5504 	strd	r5, r5, [r4, #16]
 800094e:	e9c4 5506 	strd	r5, r5, [r4, #24]
 8000952:	e9c4 3309 	strd	r3, r3, [r4, #36]	@ 0x24
 8000956:	e9c4 550b 	strd	r5, r5, [r4, #44]	@ 0x2c
 800095a:	6225      	str	r5, [r4, #32]
 800095c:	6365      	str	r5, [r4, #52]	@ 0x34
 800095e:	f000 fa1b 	bl	8000d98 <HAL_DMA_Init>
 8000962:	b108      	cbz	r0, 8000968 <HAL_UART_MspInit+0xb8>
 8000964:	f7ff ff8e 	bl	8000884 <Error_Handler>
 8000968:	2110      	movs	r1, #16
 800096a:	482e      	ldr	r0, [pc, #184]	@ (8000a24 <HAL_UART_MspInit+0x174>)
 800096c:	67f4      	str	r4, [r6, #124]	@ 0x7c
 800096e:	65e6      	str	r6, [r4, #92]	@ 0x5c
 8000970:	f000 fcc3 	bl	80012fa <HAL_DMA_ConfigChannelAttributes>
 8000974:	b108      	cbz	r0, 800097a <HAL_UART_MspInit+0xca>
 8000976:	f7ff ff85 	bl	8000884 <Error_Handler>
 800097a:	2121      	movs	r1, #33	@ 0x21
 800097c:	2318      	movs	r3, #24
 800097e:	2201      	movs	r2, #1
 8000980:	e9cd 1307 	strd	r1, r3, [sp, #28]
 8000984:	e9cd 2210 	strd	r2, r2, [sp, #64]	@ 0x40
 8000988:	2300      	movs	r3, #0
 800098a:	f04f 2240 	mov.w	r2, #1073758208	@ 0x40004000
 800098e:	4927      	ldr	r1, [pc, #156]	@ (8000a2c <HAL_UART_MspInit+0x17c>)
 8000990:	a807      	add	r0, sp, #28
 8000992:	e9cd 3309 	strd	r3, r3, [sp, #36]	@ 0x24
 8000996:	e9cd 330b 	strd	r3, r3, [sp, #44]	@ 0x2c
 800099a:	e9cd 330d 	strd	r3, r3, [sp, #52]	@ 0x34
 800099e:	e9cd 2312 	strd	r2, r3, [sp, #72]	@ 0x48
 80009a2:	e9cd 3315 	strd	r3, r3, [sp, #84]	@ 0x54
 80009a6:	9314      	str	r3, [sp, #80]	@ 0x50
 80009a8:	9318      	str	r3, [sp, #96]	@ 0x60
 80009aa:	f000 fea3 	bl	80016f4 <HAL_DMAEx_List_BuildNode>
 80009ae:	b108      	cbz	r0, 80009b4 <HAL_UART_MspInit+0x104>
 80009b0:	f7ff ff68 	bl	8000884 <Error_Handler>
 80009b4:	2100      	movs	r1, #0
 80009b6:	4a1d      	ldr	r2, [pc, #116]	@ (8000a2c <HAL_UART_MspInit+0x17c>)
 80009b8:	481d      	ldr	r0, [pc, #116]	@ (8000a30 <HAL_UART_MspInit+0x180>)
 80009ba:	f000 ff37 	bl	800182c <HAL_DMAEx_List_InsertNode>
 80009be:	b108      	cbz	r0, 80009c4 <HAL_UART_MspInit+0x114>
 80009c0:	f7ff ff60 	bl	8000884 <Error_Handler>
 80009c4:	481a      	ldr	r0, [pc, #104]	@ (8000a30 <HAL_UART_MspInit+0x180>)
 80009c6:	f000 ffa0 	bl	800190a <HAL_DMAEx_List_SetCircularMode>
 80009ca:	b108      	cbz	r0, 80009d0 <HAL_UART_MspInit+0x120>
 80009cc:	f7ff ff5a 	bl	8000884 <Error_Handler>
 80009d0:	4c18      	ldr	r4, [pc, #96]	@ (8000a34 <HAL_UART_MspInit+0x184>)
 80009d2:	4b19      	ldr	r3, [pc, #100]	@ (8000a38 <HAL_UART_MspInit+0x188>)
 80009d4:	f44f 3200 	mov.w	r2, #131072	@ 0x20000
 80009d8:	6023      	str	r3, [r4, #0]
 80009da:	2300      	movs	r3, #0
 80009dc:	e9c4 330e 	strd	r3, r3, [r4, #56]	@ 0x38
 80009e0:	e9c4 2310 	strd	r2, r3, [r4, #64]	@ 0x40
 80009e4:	2381      	movs	r3, #129	@ 0x81
 80009e6:	4620      	mov	r0, r4
 80009e8:	64a3      	str	r3, [r4, #72]	@ 0x48
 80009ea:	f000 fd39 	bl	8001460 <HAL_DMAEx_List_Init>
 80009ee:	b108      	cbz	r0, 80009f4 <HAL_UART_MspInit+0x144>
 80009f0:	f7ff ff48 	bl	8000884 <Error_Handler>
 80009f4:	490e      	ldr	r1, [pc, #56]	@ (8000a30 <HAL_UART_MspInit+0x180>)
 80009f6:	480f      	ldr	r0, [pc, #60]	@ (8000a34 <HAL_UART_MspInit+0x184>)
 80009f8:	f000 ffb8 	bl	800196c <HAL_DMAEx_List_LinkQ>
 80009fc:	b108      	cbz	r0, 8000a02 <HAL_UART_MspInit+0x152>
 80009fe:	f7ff ff41 	bl	8000884 <Error_Handler>
 8000a02:	2110      	movs	r1, #16
 8000a04:	480b      	ldr	r0, [pc, #44]	@ (8000a34 <HAL_UART_MspInit+0x184>)
 8000a06:	f8c6 4080 	str.w	r4, [r6, #128]	@ 0x80
 8000a0a:	65e6      	str	r6, [r4, #92]	@ 0x5c
 8000a0c:	f000 fc75 	bl	80012fa <HAL_DMA_ConfigChannelAttributes>
 8000a10:	b108      	cbz	r0, 8000a16 <HAL_UART_MspInit+0x166>
 8000a12:	f7ff ff37 	bl	8000884 <Error_Handler>
 8000a16:	b052      	add	sp, #328	@ 0x148
 8000a18:	bd70      	pop	{r4, r5, r6, pc}
 8000a1a:	bf00      	nop
 8000a1c:	40013800 	.word	0x40013800
 8000a20:	46020c00 	.word	0x46020c00
 8000a24:	2000015c 	.word	0x2000015c
 8000a28:	42020000 	.word	0x42020000
 8000a2c:	20000138 	.word	0x20000138
 8000a30:	20000120 	.word	0x20000120
 8000a34:	200000a8 	.word	0x200000a8
 8000a38:	40020550 	.word	0x40020550
 8000a3c:	400205d0 	.word	0x400205d0

08000a40 <NMI_Handler>:
 8000a40:	e7fe      	b.n	8000a40 <NMI_Handler>

08000a42 <HardFault_Handler>:
 8000a42:	e7fe      	b.n	8000a42 <HardFault_Handler>

08000a44 <MemManage_Handler>:
 8000a44:	e7fe      	b.n	8000a44 <MemManage_Handler>

08000a46 <BusFault_Handler>:
 8000a46:	e7fe      	b.n	8000a46 <BusFault_Handler>

08000a48 <UsageFault_Handler>:
 8000a48:	e7fe      	b.n	8000a48 <UsageFault_Handler>

08000a4a <SVC_Handler>:
 8000a4a:	4770      	bx	lr

08000a4c <DebugMon_Handler>:
 8000a4c:	4770      	bx	lr

08000a4e <PendSV_Handler>:
 8000a4e:	4770      	bx	lr

08000a50 <SysTick_Handler>:
 8000a50:	f000 b8ca 	b.w	8000be8 <HAL_IncTick>

08000a54 <GPDMA1_Channel10_IRQHandler>:
 8000a54:	4801      	ldr	r0, [pc, #4]	@ (8000a5c <GPDMA1_Channel10_IRQHandler+0x8>)
 8000a56:	f000 bb91 	b.w	800117c <HAL_DMA_IRQHandler>
 8000a5a:	bf00      	nop
 8000a5c:	200000a8 	.word	0x200000a8

08000a60 <GPDMA1_Channel11_IRQHandler>:
 8000a60:	4801      	ldr	r0, [pc, #4]	@ (8000a68 <GPDMA1_Channel11_IRQHandler+0x8>)
 8000a62:	f000 bb8b 	b.w	800117c <HAL_DMA_IRQHandler>
 8000a66:	bf00      	nop
 8000a68:	2000015c 	.word	0x2000015c

08000a6c <SystemInit>:
 8000a6c:	2201      	movs	r2, #1
 8000a6e:	480e      	ldr	r0, [pc, #56]	@ (8000aa8 <SystemInit+0x3c>)
 8000a70:	f8d0 3088 	ldr.w	r3, [r0, #136]	@ 0x88
 8000a74:	f443 0370 	orr.w	r3, r3, #15728640	@ 0xf00000
 8000a78:	f8c0 3088 	str.w	r3, [r0, #136]	@ 0x88
 8000a7c:	4b0b      	ldr	r3, [pc, #44]	@ (8000aac <SystemInit+0x40>)
 8000a7e:	601a      	str	r2, [r3, #0]
 8000a80:	2200      	movs	r2, #0
 8000a82:	61da      	str	r2, [r3, #28]
 8000a84:	621a      	str	r2, [r3, #32]
 8000a86:	625a      	str	r2, [r3, #36]	@ 0x24
 8000a88:	6819      	ldr	r1, [r3, #0]
 8000a8a:	f021 51a8 	bic.w	r1, r1, #352321536	@ 0x15000000
 8000a8e:	f421 2110 	bic.w	r1, r1, #589824	@ 0x90000
 8000a92:	6019      	str	r1, [r3, #0]
 8000a94:	629a      	str	r2, [r3, #40]	@ 0x28
 8000a96:	6819      	ldr	r1, [r3, #0]
 8000a98:	f421 2180 	bic.w	r1, r1, #262144	@ 0x40000
 8000a9c:	6019      	str	r1, [r3, #0]
 8000a9e:	651a      	str	r2, [r3, #80]	@ 0x50
 8000aa0:	f04f 6300 	mov.w	r3, #134217728	@ 0x8000000
 8000aa4:	6083      	str	r3, [r0, #8]
 8000aa6:	4770      	bx	lr
 8000aa8:	e000ed00 	.word	0xe000ed00
 8000aac:	46020c00 	.word	0x46020c00

08000ab0 <Reset_Handler>:
 8000ab0:	f8df d034 	ldr.w	sp, [pc, #52]	@ 8000ae8 <LoopForever+0x2>
 8000ab4:	f7ff ffda 	bl	8000a6c <SystemInit>
 8000ab8:	2100      	movs	r1, #0
 8000aba:	e003      	b.n	8000ac4 <LoopCopyDataInit>

08000abc <CopyDataInit>:
 8000abc:	4b0b      	ldr	r3, [pc, #44]	@ (8000aec <LoopForever+0x6>)
 8000abe:	585b      	ldr	r3, [r3, r1]
 8000ac0:	5043      	str	r3, [r0, r1]
 8000ac2:	3104      	adds	r1, #4

08000ac4 <LoopCopyDataInit>:
 8000ac4:	480a      	ldr	r0, [pc, #40]	@ (8000af0 <LoopForever+0xa>)
 8000ac6:	4b0b      	ldr	r3, [pc, #44]	@ (8000af4 <LoopForever+0xe>)
 8000ac8:	1842      	adds	r2, r0, r1
 8000aca:	429a      	cmp	r2, r3
 8000acc:	d3f6      	bcc.n	8000abc <CopyDataInit>
 8000ace:	4a0a      	ldr	r2, [pc, #40]	@ (8000af8 <LoopForever+0x12>)
 8000ad0:	e002      	b.n	8000ad8 <LoopFillZerobss>

08000ad2 <FillZerobss>:
 8000ad2:	2300      	movs	r3, #0
 8000ad4:	f842 3b04 	str.w	r3, [r2], #4

08000ad8 <LoopFillZerobss>:
 8000ad8:	4b08      	ldr	r3, [pc, #32]	@ (8000afc <LoopForever+0x16>)
 8000ada:	429a      	cmp	r2, r3
 8000adc:	d3f9      	bcc.n	8000ad2 <FillZerobss>
 8000ade:	f7ff fbf1 	bl	80002c4 <__libc_init_array>
 8000ae2:	f7ff fe43 	bl	800076c <main>

08000ae6 <LoopForever>:
 8000ae6:	e7fe      	b.n	8000ae6 <LoopForever>
 8000ae8:	200c0000 	.word	0x200c0000
 8000aec:	08004abc 	.word	0x08004abc
 8000af0:	20000000 	.word	0x20000000
 8000af4:	2000004c 	.word	0x2000004c
 8000af8:	2000004c 	.word	0x2000004c
 8000afc:	2000026c 	.word	0x2000026c

08000b00 <ADC1_IRQHandler>:
 8000b00:	e7fe      	b.n	8000b00 <ADC1_IRQHandler>
	...

08000b04 <HAL_InitTick>:
 8000b04:	b570      	push	{r4, r5, r6, lr}
 8000b06:	4e20      	ldr	r6, [pc, #128]	@ (8000b88 <HAL_InitTick+0x84>)
 8000b08:	4605      	mov	r5, r0
 8000b0a:	7832      	ldrb	r2, [r6, #0]
 8000b0c:	b90a      	cbnz	r2, 8000b12 <HAL_InitTick+0xe>
 8000b0e:	2001      	movs	r0, #1
 8000b10:	bd70      	pop	{r4, r5, r6, pc}
 8000b12:	f04f 23e0 	mov.w	r3, #3758153728	@ 0xe000e000
 8000b16:	691c      	ldr	r4, [r3, #16]
 8000b18:	f014 0404 	ands.w	r4, r4, #4
 8000b1c:	d017      	beq.n	8000b4e <HAL_InitTick+0x4a>
 8000b1e:	f44f 737a 	mov.w	r3, #1000	@ 0x3e8
 8000b22:	fbb3 f3f2 	udiv	r3, r3, r2
 8000b26:	4a19      	ldr	r2, [pc, #100]	@ (8000b8c <HAL_InitTick+0x88>)
 8000b28:	6814      	ldr	r4, [r2, #0]
 8000b2a:	fbb4 f4f3 	udiv	r4, r4, r3
 8000b2e:	4620      	mov	r0, r4
 8000b30:	f000 f8ce 	bl	8000cd0 <HAL_SYSTICK_Config>
 8000b34:	4604      	mov	r4, r0
 8000b36:	2800      	cmp	r0, #0
 8000b38:	d1e9      	bne.n	8000b0e <HAL_InitTick+0xa>
 8000b3a:	4602      	mov	r2, r0
 8000b3c:	4629      	mov	r1, r5
 8000b3e:	f04f 30ff 	mov.w	r0, #4294967295	@ 0xffffffff
 8000b42:	f000 f887 	bl	8000c54 <HAL_NVIC_SetPriority>
 8000b46:	4b12      	ldr	r3, [pc, #72]	@ (8000b90 <HAL_InitTick+0x8c>)
 8000b48:	4620      	mov	r0, r4
 8000b4a:	601d      	str	r5, [r3, #0]
 8000b4c:	e7e0      	b.n	8000b10 <HAL_InitTick+0xc>
 8000b4e:	f000 f909 	bl	8000d64 <HAL_SYSTICK_GetCLKSourceConfig>
 8000b52:	2801      	cmp	r0, #1
 8000b54:	d007      	beq.n	8000b66 <HAL_InitTick+0x62>
 8000b56:	2802      	cmp	r0, #2
 8000b58:	d00d      	beq.n	8000b76 <HAL_InitTick+0x72>
 8000b5a:	2800      	cmp	r0, #0
 8000b5c:	d1e7      	bne.n	8000b2e <HAL_InitTick+0x2a>
 8000b5e:	f44f 53fa 	mov.w	r3, #8000	@ 0x1f40
 8000b62:	7832      	ldrb	r2, [r6, #0]
 8000b64:	e7dd      	b.n	8000b22 <HAL_InitTick+0x1e>
 8000b66:	f44f 737a 	mov.w	r3, #1000	@ 0x3e8
 8000b6a:	7832      	ldrb	r2, [r6, #0]
 8000b6c:	f44f 44fa 	mov.w	r4, #32000	@ 0x7d00
 8000b70:	fbb3 f3f2 	udiv	r3, r3, r2
 8000b74:	e7d9      	b.n	8000b2a <HAL_InitTick+0x26>
 8000b76:	f44f 737a 	mov.w	r3, #1000	@ 0x3e8
 8000b7a:	7832      	ldrb	r2, [r6, #0]
 8000b7c:	f44f 4400 	mov.w	r4, #32768	@ 0x8000
 8000b80:	fbb3 f3f2 	udiv	r3, r3, r2
 8000b84:	e7d1      	b.n	8000b2a <HAL_InitTick+0x26>
 8000b86:	bf00      	nop
 8000b88:	20000044 	.word	0x20000044
 8000b8c:	20000040 	.word	0x20000040
 8000b90:	20000048 	.word	0x20000048

08000b94 <HAL_Init>:
 8000b94:	4a10      	ldr	r2, [pc, #64]	@ (8000bd8 <HAL_Init+0x44>)
 8000b96:	b510      	push	{r4, lr}
 8000b98:	6813      	ldr	r3, [r2, #0]
 8000b9a:	2003      	movs	r0, #3
 8000b9c:	f443 7380 	orr.w	r3, r3, #256	@ 0x100
 8000ba0:	6013      	str	r3, [r2, #0]
 8000ba2:	f000 f845 	bl	8000c30 <HAL_NVIC_SetPriorityGrouping>
 8000ba6:	f001 f8e9 	bl	8001d7c <HAL_RCC_GetSysClockFreq>
 8000baa:	4b0c      	ldr	r3, [pc, #48]	@ (8000bdc <HAL_Init+0x48>)
 8000bac:	4a0c      	ldr	r2, [pc, #48]	@ (8000be0 <HAL_Init+0x4c>)
 8000bae:	6a1b      	ldr	r3, [r3, #32]
 8000bb0:	f003 030f 	and.w	r3, r3, #15
 8000bb4:	5cd3      	ldrb	r3, [r2, r3]
 8000bb6:	40d8      	lsrs	r0, r3
 8000bb8:	4b0a      	ldr	r3, [pc, #40]	@ (8000be4 <HAL_Init+0x50>)
 8000bba:	6018      	str	r0, [r3, #0]
 8000bbc:	2004      	movs	r0, #4
 8000bbe:	f000 f897 	bl	8000cf0 <HAL_SYSTICK_CLKSourceConfig>
 8000bc2:	2000      	movs	r0, #0
 8000bc4:	f7ff ff9e 	bl	8000b04 <HAL_InitTick>
 8000bc8:	4604      	mov	r4, r0
 8000bca:	b918      	cbnz	r0, 8000bd4 <HAL_Init+0x40>
 8000bcc:	f7ff fe5c 	bl	8000888 <HAL_MspInit>
 8000bd0:	4620      	mov	r0, r4
 8000bd2:	bd10      	pop	{r4, pc}
 8000bd4:	2401      	movs	r4, #1
 8000bd6:	e7fb      	b.n	8000bd0 <HAL_Init+0x3c>
 8000bd8:	40022000 	.word	0x40022000
 8000bdc:	46020c00 	.word	0x46020c00
 8000be0:	080049f4 	.word	0x080049f4
 8000be4:	20000040 	.word	0x20000040

08000be8 <HAL_IncTick>:
 8000be8:	4a03      	ldr	r2, [pc, #12]	@ (8000bf8 <HAL_IncTick+0x10>)
 8000bea:	4b04      	ldr	r3, [pc, #16]	@ (8000bfc <HAL_IncTick+0x14>)
 8000bec:	6811      	ldr	r1, [r2, #0]
 8000bee:	781b      	ldrb	r3, [r3, #0]
 8000bf0:	440b      	add	r3, r1
 8000bf2:	6013      	str	r3, [r2, #0]
 8000bf4:	4770      	bx	lr
 8000bf6:	bf00      	nop
 8000bf8:	20000268 	.word	0x20000268
 8000bfc:	20000044 	.word	0x20000044

08000c00 <HAL_GetTick>:
 8000c00:	4b01      	ldr	r3, [pc, #4]	@ (8000c08 <HAL_GetTick+0x8>)
 8000c02:	6818      	ldr	r0, [r3, #0]
 8000c04:	4770      	bx	lr
 8000c06:	bf00      	nop
 8000c08:	20000268 	.word	0x20000268

08000c0c <HAL_Delay>:
 8000c0c:	b538      	push	{r3, r4, r5, lr}
 8000c0e:	4604      	mov	r4, r0
 8000c10:	f7ff fff6 	bl	8000c00 <HAL_GetTick>
 8000c14:	4605      	mov	r5, r0
 8000c16:	1c63      	adds	r3, r4, #1
 8000c18:	bf1e      	ittt	ne
 8000c1a:	4b04      	ldrne	r3, [pc, #16]	@ (8000c2c <HAL_Delay+0x20>)
 8000c1c:	781b      	ldrbne	r3, [r3, #0]
 8000c1e:	18e4      	addne	r4, r4, r3
 8000c20:	f7ff ffee 	bl	8000c00 <HAL_GetTick>
 8000c24:	1b43      	subs	r3, r0, r5
 8000c26:	42a3      	cmp	r3, r4
 8000c28:	d3fa      	bcc.n	8000c20 <HAL_Delay+0x14>
 8000c2a:	bd38      	pop	{r3, r4, r5, pc}
 8000c2c:	20000044 	.word	0x20000044

08000c30 <HAL_NVIC_SetPriorityGrouping>:
 8000c30:	4907      	ldr	r1, [pc, #28]	@ (8000c50 <HAL_NVIC_SetPriorityGrouping+0x20>)
 8000c32:	0203      	lsls	r3, r0, #8
 8000c34:	68ca      	ldr	r2, [r1, #12]
 8000c36:	f403 63e0 	and.w	r3, r3, #1792	@ 0x700
 8000c3a:	f422 62e0 	bic.w	r2, r2, #1792	@ 0x700
 8000c3e:	0412      	lsls	r2, r2, #16
 8000c40:	0c12      	lsrs	r2, r2, #16
 8000c42:	4313      	orrs	r3, r2
 8000c44:	f043 63bf 	orr.w	r3, r3, #100139008	@ 0x5f80000
 8000c48:	f443 3300 	orr.w	r3, r3, #131072	@ 0x20000
 8000c4c:	60cb      	str	r3, [r1, #12]
 8000c4e:	4770      	bx	lr
 8000c50:	e000ed00 	.word	0xe000ed00

08000c54 <HAL_NVIC_SetPriority>:
 8000c54:	4b15      	ldr	r3, [pc, #84]	@ (8000cac <HAL_NVIC_SetPriority+0x58>)
 8000c56:	b530      	push	{r4, r5, lr}
 8000c58:	68dc      	ldr	r4, [r3, #12]
 8000c5a:	f3c4 2402 	ubfx	r4, r4, #8, #3
 8000c5e:	f1c4 0307 	rsb	r3, r4, #7
 8000c62:	1d25      	adds	r5, r4, #4
 8000c64:	2b04      	cmp	r3, #4
 8000c66:	bf28      	it	cs
 8000c68:	2304      	movcs	r3, #4
 8000c6a:	2d06      	cmp	r5, #6
 8000c6c:	f04f 35ff 	mov.w	r5, #4294967295	@ 0xffffffff
 8000c70:	bf94      	ite	ls
 8000c72:	2400      	movls	r4, #0
 8000c74:	3c03      	subhi	r4, #3
 8000c76:	fa05 f303 	lsl.w	r3, r5, r3
 8000c7a:	ea21 0303 	bic.w	r3, r1, r3
 8000c7e:	40a5      	lsls	r5, r4
 8000c80:	ea22 0205 	bic.w	r2, r2, r5
 8000c84:	40a3      	lsls	r3, r4
 8000c86:	2800      	cmp	r0, #0
 8000c88:	ea43 0302 	orr.w	r3, r3, r2
 8000c8c:	bfac      	ite	ge
 8000c8e:	f100 4060 	addge.w	r0, r0, #3758096384	@ 0xe0000000
 8000c92:	4a07      	ldrlt	r2, [pc, #28]	@ (8000cb0 <HAL_NVIC_SetPriority+0x5c>)
 8000c94:	ea4f 1303 	mov.w	r3, r3, lsl #4
 8000c98:	b2db      	uxtb	r3, r3
 8000c9a:	bfab      	itete	ge
 8000c9c:	f500 4061 	addge.w	r0, r0, #57600	@ 0xe100
 8000ca0:	f000 000f 	andlt.w	r0, r0, #15
 8000ca4:	f880 3300 	strbge.w	r3, [r0, #768]	@ 0x300
 8000ca8:	5413      	strblt	r3, [r2, r0]
 8000caa:	bd30      	pop	{r4, r5, pc}
 8000cac:	e000ed00 	.word	0xe000ed00
 8000cb0:	e000ed14 	.word	0xe000ed14

08000cb4 <HAL_NVIC_EnableIRQ>:
 8000cb4:	2800      	cmp	r0, #0
 8000cb6:	db07      	blt.n	8000cc8 <HAL_NVIC_EnableIRQ+0x14>
 8000cb8:	2301      	movs	r3, #1
 8000cba:	0941      	lsrs	r1, r0, #5
 8000cbc:	4a03      	ldr	r2, [pc, #12]	@ (8000ccc <HAL_NVIC_EnableIRQ+0x18>)
 8000cbe:	f000 001f 	and.w	r0, r0, #31
 8000cc2:	4083      	lsls	r3, r0
 8000cc4:	f842 3021 	str.w	r3, [r2, r1, lsl #2]
 8000cc8:	4770      	bx	lr
 8000cca:	bf00      	nop
 8000ccc:	e000e100 	.word	0xe000e100

08000cd0 <HAL_SYSTICK_Config>:
 8000cd0:	3801      	subs	r0, #1
 8000cd2:	f1b0 7f80 	cmp.w	r0, #16777216	@ 0x1000000
 8000cd6:	bf3f      	itttt	cc
 8000cd8:	f04f 23e0 	movcc.w	r3, #3758153728	@ 0xe000e000
 8000cdc:	6158      	strcc	r0, [r3, #20]
 8000cde:	2000      	movcc	r0, #0
 8000ce0:	6198      	strcc	r0, [r3, #24]
 8000ce2:	bf37      	itett	cc
 8000ce4:	691a      	ldrcc	r2, [r3, #16]
 8000ce6:	2001      	movcs	r0, #1
 8000ce8:	f042 0203 	orrcc.w	r2, r2, #3
 8000cec:	611a      	strcc	r2, [r3, #16]
 8000cee:	4770      	bx	lr

08000cf0 <HAL_SYSTICK_CLKSourceConfig>:
 8000cf0:	2804      	cmp	r0, #4
 8000cf2:	d818      	bhi.n	8000d26 <HAL_SYSTICK_CLKSourceConfig+0x36>
 8000cf4:	e8df f000 	tbb	[pc, r0]
 8000cf8:	1726180a 	.word	0x1726180a
 8000cfc:	03          	.byte	0x03
 8000cfd:	00          	.byte	0x00
 8000cfe:	f04f 22e0 	mov.w	r2, #3758153728	@ 0xe000e000
 8000d02:	6913      	ldr	r3, [r2, #16]
 8000d04:	f043 0304 	orr.w	r3, r3, #4
 8000d08:	6113      	str	r3, [r2, #16]
 8000d0a:	4770      	bx	lr
 8000d0c:	f04f 22e0 	mov.w	r2, #3758153728	@ 0xe000e000
 8000d10:	6913      	ldr	r3, [r2, #16]
 8000d12:	f023 0304 	bic.w	r3, r3, #4
 8000d16:	6113      	str	r3, [r2, #16]
 8000d18:	4a11      	ldr	r2, [pc, #68]	@ (8000d60 <HAL_SYSTICK_CLKSourceConfig+0x70>)
 8000d1a:	f8d2 30e0 	ldr.w	r3, [r2, #224]	@ 0xe0
 8000d1e:	f423 0340 	bic.w	r3, r3, #12582912	@ 0xc00000
 8000d22:	f8c2 30e0 	str.w	r3, [r2, #224]	@ 0xe0
 8000d26:	4770      	bx	lr
 8000d28:	f04f 22e0 	mov.w	r2, #3758153728	@ 0xe000e000
 8000d2c:	6913      	ldr	r3, [r2, #16]
 8000d2e:	f023 0304 	bic.w	r3, r3, #4
 8000d32:	6113      	str	r3, [r2, #16]
 8000d34:	4a0a      	ldr	r2, [pc, #40]	@ (8000d60 <HAL_SYSTICK_CLKSourceConfig+0x70>)
 8000d36:	f8d2 30e0 	ldr.w	r3, [r2, #224]	@ 0xe0
 8000d3a:	f423 0340 	bic.w	r3, r3, #12582912	@ 0xc00000
 8000d3e:	f443 0380 	orr.w	r3, r3, #4194304	@ 0x400000
 8000d42:	e7ee      	b.n	8000d22 <HAL_SYSTICK_CLKSourceConfig+0x32>
 8000d44:	f04f 22e0 	mov.w	r2, #3758153728	@ 0xe000e000
 8000d48:	6913      	ldr	r3, [r2, #16]
 8000d4a:	f023 0304 	bic.w	r3, r3, #4
 8000d4e:	6113      	str	r3, [r2, #16]
 8000d50:	4a03      	ldr	r2, [pc, #12]	@ (8000d60 <HAL_SYSTICK_CLKSourceConfig+0x70>)
 8000d52:	f8d2 30e0 	ldr.w	r3, [r2, #224]	@ 0xe0
 8000d56:	f423 0340 	bic.w	r3, r3, #12582912	@ 0xc00000
 8000d5a:	f443 0300 	orr.w	r3, r3, #8388608	@ 0x800000
 8000d5e:	e7e0      	b.n	8000d22 <HAL_SYSTICK_CLKSourceConfig+0x32>
 8000d60:	46020c00 	.word	0x46020c00

08000d64 <HAL_SYSTICK_GetCLKSourceConfig>:
 8000d64:	f04f 23e0 	mov.w	r3, #3758153728	@ 0xe000e000
 8000d68:	691b      	ldr	r3, [r3, #16]
 8000d6a:	075a      	lsls	r2, r3, #29
 8000d6c:	d40d      	bmi.n	8000d8a <HAL_SYSTICK_GetCLKSourceConfig+0x26>
 8000d6e:	4b09      	ldr	r3, [pc, #36]	@ (8000d94 <HAL_SYSTICK_GetCLKSourceConfig+0x30>)
 8000d70:	f8d3 00e0 	ldr.w	r0, [r3, #224]	@ 0xe0
 8000d74:	f400 0040 	and.w	r0, r0, #12582912	@ 0xc00000
 8000d78:	f5b0 0f80 	cmp.w	r0, #4194304	@ 0x400000
 8000d7c:	d007      	beq.n	8000d8e <HAL_SYSTICK_GetCLKSourceConfig+0x2a>
 8000d7e:	f5a0 0300 	sub.w	r3, r0, #8388608	@ 0x800000
 8000d82:	4258      	negs	r0, r3
 8000d84:	4158      	adcs	r0, r3
 8000d86:	0040      	lsls	r0, r0, #1
 8000d88:	4770      	bx	lr
 8000d8a:	2004      	movs	r0, #4
 8000d8c:	4770      	bx	lr
 8000d8e:	2001      	movs	r0, #1
 8000d90:	4770      	bx	lr
 8000d92:	bf00      	nop
 8000d94:	46020c00 	.word	0x46020c00

08000d98 <HAL_DMA_Init>:
 8000d98:	b538      	push	{r3, r4, r5, lr}
 8000d9a:	4604      	mov	r4, r0
 8000d9c:	f7ff ff30 	bl	8000c00 <HAL_GetTick>
 8000da0:	4605      	mov	r5, r0
 8000da2:	2c00      	cmp	r4, #0
 8000da4:	f000 81a6 	beq.w	80010f4 <HAL_DMA_Init+0x35c>
 8000da8:	2300      	movs	r3, #0
 8000daa:	f884 304c 	strb.w	r3, [r4, #76]	@ 0x4c
 8000dae:	2302      	movs	r3, #2
 8000db0:	6822      	ldr	r2, [r4, #0]
 8000db2:	f884 3054 	strb.w	r3, [r4, #84]	@ 0x54
 8000db6:	6953      	ldr	r3, [r2, #20]
 8000db8:	f043 0306 	orr.w	r3, r3, #6
 8000dbc:	6153      	str	r3, [r2, #20]
 8000dbe:	6823      	ldr	r3, [r4, #0]
 8000dc0:	695a      	ldr	r2, [r3, #20]
 8000dc2:	07d2      	lsls	r2, r2, #31
 8000dc4:	f100 818b 	bmi.w	80010de <HAL_DMA_Init+0x346>
 8000dc8:	695a      	ldr	r2, [r3, #20]
 8000dca:	6a21      	ldr	r1, [r4, #32]
 8000dcc:	f422 0243 	bic.w	r2, r2, #12779520	@ 0xc30000
 8000dd0:	430a      	orrs	r2, r1
 8000dd2:	615a      	str	r2, [r3, #20]
 8000dd4:	69e1      	ldr	r1, [r4, #28]
 8000dd6:	6962      	ldr	r2, [r4, #20]
 8000dd8:	4db0      	ldr	r5, [pc, #704]	@ (800109c <HAL_DMA_Init+0x304>)
 8000dda:	430a      	orrs	r2, r1
 8000ddc:	6921      	ldr	r1, [r4, #16]
 8000dde:	42ab      	cmp	r3, r5
 8000de0:	ea42 0201 	orr.w	r2, r2, r1
 8000de4:	69a1      	ldr	r1, [r4, #24]
 8000de6:	48ae      	ldr	r0, [pc, #696]	@ (80010a0 <HAL_DMA_Init+0x308>)
 8000de8:	ea42 0201 	orr.w	r2, r2, r1
 8000dec:	f000 8087 	beq.w	8000efe <HAL_DMA_Init+0x166>
 8000df0:	49ac      	ldr	r1, [pc, #688]	@ (80010a4 <HAL_DMA_Init+0x30c>)
 8000df2:	428b      	cmp	r3, r1
 8000df4:	f000 8083 	beq.w	8000efe <HAL_DMA_Init+0x166>
 8000df8:	f101 4170 	add.w	r1, r1, #4026531840	@ 0xf0000000
 8000dfc:	3180      	adds	r1, #128	@ 0x80
 8000dfe:	428b      	cmp	r3, r1
 8000e00:	d07d      	beq.n	8000efe <HAL_DMA_Init+0x166>
 8000e02:	f101 5180 	add.w	r1, r1, #268435456	@ 0x10000000
 8000e06:	428b      	cmp	r3, r1
 8000e08:	d079      	beq.n	8000efe <HAL_DMA_Init+0x166>
 8000e0a:	f101 4170 	add.w	r1, r1, #4026531840	@ 0xf0000000
 8000e0e:	3180      	adds	r1, #128	@ 0x80
 8000e10:	428b      	cmp	r3, r1
 8000e12:	d074      	beq.n	8000efe <HAL_DMA_Init+0x166>
 8000e14:	f101 5180 	add.w	r1, r1, #268435456	@ 0x10000000
 8000e18:	428b      	cmp	r3, r1
 8000e1a:	d070      	beq.n	8000efe <HAL_DMA_Init+0x166>
 8000e1c:	f101 4170 	add.w	r1, r1, #4026531840	@ 0xf0000000
 8000e20:	3180      	adds	r1, #128	@ 0x80
 8000e22:	428b      	cmp	r3, r1
 8000e24:	d06b      	beq.n	8000efe <HAL_DMA_Init+0x166>
 8000e26:	f101 5180 	add.w	r1, r1, #268435456	@ 0x10000000
 8000e2a:	428b      	cmp	r3, r1
 8000e2c:	d067      	beq.n	8000efe <HAL_DMA_Init+0x166>
 8000e2e:	f101 4170 	add.w	r1, r1, #4026531840	@ 0xf0000000
 8000e32:	3180      	adds	r1, #128	@ 0x80
 8000e34:	428b      	cmp	r3, r1
 8000e36:	d062      	beq.n	8000efe <HAL_DMA_Init+0x166>
 8000e38:	f101 5180 	add.w	r1, r1, #268435456	@ 0x10000000
 8000e3c:	428b      	cmp	r3, r1
 8000e3e:	d05e      	beq.n	8000efe <HAL_DMA_Init+0x166>
 8000e40:	f101 4170 	add.w	r1, r1, #4026531840	@ 0xf0000000
 8000e44:	3180      	adds	r1, #128	@ 0x80
 8000e46:	428b      	cmp	r3, r1
 8000e48:	d059      	beq.n	8000efe <HAL_DMA_Init+0x166>
 8000e4a:	f101 5180 	add.w	r1, r1, #268435456	@ 0x10000000
 8000e4e:	428b      	cmp	r3, r1
 8000e50:	d055      	beq.n	8000efe <HAL_DMA_Init+0x166>
 8000e52:	f101 4170 	add.w	r1, r1, #4026531840	@ 0xf0000000
 8000e56:	3180      	adds	r1, #128	@ 0x80
 8000e58:	428b      	cmp	r3, r1
 8000e5a:	d050      	beq.n	8000efe <HAL_DMA_Init+0x166>
 8000e5c:	f101 5180 	add.w	r1, r1, #268435456	@ 0x10000000
 8000e60:	428b      	cmp	r3, r1
 8000e62:	d04c      	beq.n	8000efe <HAL_DMA_Init+0x166>
 8000e64:	f101 4170 	add.w	r1, r1, #4026531840	@ 0xf0000000
 8000e68:	3180      	adds	r1, #128	@ 0x80
 8000e6a:	428b      	cmp	r3, r1
 8000e6c:	d047      	beq.n	8000efe <HAL_DMA_Init+0x166>
 8000e6e:	f101 5180 	add.w	r1, r1, #268435456	@ 0x10000000
 8000e72:	428b      	cmp	r3, r1
 8000e74:	d043      	beq.n	8000efe <HAL_DMA_Init+0x166>
 8000e76:	f101 4170 	add.w	r1, r1, #4026531840	@ 0xf0000000
 8000e7a:	3180      	adds	r1, #128	@ 0x80
 8000e7c:	428b      	cmp	r3, r1
 8000e7e:	d03e      	beq.n	8000efe <HAL_DMA_Init+0x166>
 8000e80:	f101 5180 	add.w	r1, r1, #268435456	@ 0x10000000
 8000e84:	428b      	cmp	r3, r1
 8000e86:	d03a      	beq.n	8000efe <HAL_DMA_Init+0x166>
 8000e88:	f101 4170 	add.w	r1, r1, #4026531840	@ 0xf0000000
 8000e8c:	3180      	adds	r1, #128	@ 0x80
 8000e8e:	428b      	cmp	r3, r1
 8000e90:	d035      	beq.n	8000efe <HAL_DMA_Init+0x166>
 8000e92:	f101 5180 	add.w	r1, r1, #268435456	@ 0x10000000
 8000e96:	428b      	cmp	r3, r1
 8000e98:	d031      	beq.n	8000efe <HAL_DMA_Init+0x166>
 8000e9a:	f101 4170 	add.w	r1, r1, #4026531840	@ 0xf0000000
 8000e9e:	3180      	adds	r1, #128	@ 0x80
 8000ea0:	428b      	cmp	r3, r1
 8000ea2:	d02c      	beq.n	8000efe <HAL_DMA_Init+0x166>
 8000ea4:	f101 5180 	add.w	r1, r1, #268435456	@ 0x10000000
 8000ea8:	428b      	cmp	r3, r1
 8000eaa:	d028      	beq.n	8000efe <HAL_DMA_Init+0x166>
 8000eac:	f101 4170 	add.w	r1, r1, #4026531840	@ 0xf0000000
 8000eb0:	3180      	adds	r1, #128	@ 0x80
 8000eb2:	428b      	cmp	r3, r1
 8000eb4:	d023      	beq.n	8000efe <HAL_DMA_Init+0x166>
 8000eb6:	f101 5180 	add.w	r1, r1, #268435456	@ 0x10000000
 8000eba:	428b      	cmp	r3, r1
 8000ebc:	d01f      	beq.n	8000efe <HAL_DMA_Init+0x166>
 8000ebe:	4283      	cmp	r3, r0
 8000ec0:	d01d      	beq.n	8000efe <HAL_DMA_Init+0x166>
 8000ec2:	3180      	adds	r1, #128	@ 0x80
 8000ec4:	428b      	cmp	r3, r1
 8000ec6:	d01a      	beq.n	8000efe <HAL_DMA_Init+0x166>
 8000ec8:	f101 4170 	add.w	r1, r1, #4026531840	@ 0xf0000000
 8000ecc:	3180      	adds	r1, #128	@ 0x80
 8000ece:	428b      	cmp	r3, r1
 8000ed0:	d015      	beq.n	8000efe <HAL_DMA_Init+0x166>
 8000ed2:	f101 5180 	add.w	r1, r1, #268435456	@ 0x10000000
 8000ed6:	428b      	cmp	r3, r1
 8000ed8:	d011      	beq.n	8000efe <HAL_DMA_Init+0x166>
 8000eda:	f101 4170 	add.w	r1, r1, #4026531840	@ 0xf0000000
 8000ede:	3180      	adds	r1, #128	@ 0x80
 8000ee0:	428b      	cmp	r3, r1
 8000ee2:	d00c      	beq.n	8000efe <HAL_DMA_Init+0x166>
 8000ee4:	f101 5180 	add.w	r1, r1, #268435456	@ 0x10000000
 8000ee8:	428b      	cmp	r3, r1
 8000eea:	d008      	beq.n	8000efe <HAL_DMA_Init+0x166>
 8000eec:	f101 4170 	add.w	r1, r1, #4026531840	@ 0xf0000000
 8000ef0:	3180      	adds	r1, #128	@ 0x80
 8000ef2:	428b      	cmp	r3, r1
 8000ef4:	d003      	beq.n	8000efe <HAL_DMA_Init+0x166>
 8000ef6:	f101 5180 	add.w	r1, r1, #268435456	@ 0x10000000
 8000efa:	428b      	cmp	r3, r1
 8000efc:	d10d      	bne.n	8000f1a <HAL_DMA_Init+0x182>
 8000efe:	6aa1      	ldr	r1, [r4, #40]	@ 0x28
 8000f00:	3901      	subs	r1, #1
 8000f02:	0509      	lsls	r1, r1, #20
 8000f04:	f001 717c 	and.w	r1, r1, #66060288	@ 0x3f00000
 8000f08:	4311      	orrs	r1, r2
 8000f0a:	6ae2      	ldr	r2, [r4, #44]	@ 0x2c
 8000f0c:	4311      	orrs	r1, r2
 8000f0e:	6a62      	ldr	r2, [r4, #36]	@ 0x24
 8000f10:	3a01      	subs	r2, #1
 8000f12:	0112      	lsls	r2, r2, #4
 8000f14:	f402 727c 	and.w	r2, r2, #1008	@ 0x3f0
 8000f18:	430a      	orrs	r2, r1
 8000f1a:	6c19      	ldr	r1, [r3, #64]	@ 0x40
 8000f1c:	f001 2180 	and.w	r1, r1, #2147516416	@ 0x80008000
 8000f20:	430a      	orrs	r2, r1
 8000f22:	641a      	str	r2, [r3, #64]	@ 0x40
 8000f24:	68a1      	ldr	r1, [r4, #8]
 8000f26:	6b22      	ldr	r2, [r4, #48]	@ 0x30
 8000f28:	4311      	orrs	r1, r2
 8000f2a:	6862      	ldr	r2, [r4, #4]
 8000f2c:	f002 027f 	and.w	r2, r2, #127	@ 0x7f
 8000f30:	4311      	orrs	r1, r2
 8000f32:	68e2      	ldr	r2, [r4, #12]
 8000f34:	f5b2 6f80 	cmp.w	r2, #1024	@ 0x400
 8000f38:	f040 80de 	bne.w	80010f8 <HAL_DMA_Init+0x360>
 8000f3c:	42ab      	cmp	r3, r5
 8000f3e:	f000 8087 	beq.w	8001050 <HAL_DMA_Init+0x2b8>
 8000f42:	4a58      	ldr	r2, [pc, #352]	@ (80010a4 <HAL_DMA_Init+0x30c>)
 8000f44:	4293      	cmp	r3, r2
 8000f46:	f000 8083 	beq.w	8001050 <HAL_DMA_Init+0x2b8>
 8000f4a:	f102 4270 	add.w	r2, r2, #4026531840	@ 0xf0000000
 8000f4e:	3280      	adds	r2, #128	@ 0x80
 8000f50:	4293      	cmp	r3, r2
 8000f52:	d07d      	beq.n	8001050 <HAL_DMA_Init+0x2b8>
 8000f54:	f102 5280 	add.w	r2, r2, #268435456	@ 0x10000000
 8000f58:	4293      	cmp	r3, r2
 8000f5a:	d079      	beq.n	8001050 <HAL_DMA_Init+0x2b8>
 8000f5c:	f102 4270 	add.w	r2, r2, #4026531840	@ 0xf0000000
 8000f60:	3280      	adds	r2, #128	@ 0x80
 8000f62:	4293      	cmp	r3, r2
 8000f64:	d074      	beq.n	8001050 <HAL_DMA_Init+0x2b8>
 8000f66:	f102 5280 	add.w	r2, r2, #268435456	@ 0x10000000
 8000f6a:	4293      	cmp	r3, r2
 8000f6c:	d070      	beq.n	8001050 <HAL_DMA_Init+0x2b8>
 8000f6e:	f102 4270 	add.w	r2, r2, #4026531840	@ 0xf0000000
 8000f72:	3280      	adds	r2, #128	@ 0x80
 8000f74:	4293      	cmp	r3, r2
 8000f76:	d06b      	beq.n	8001050 <HAL_DMA_Init+0x2b8>
 8000f78:	f102 5280 	add.w	r2, r2, #268435456	@ 0x10000000
 8000f7c:	4293      	cmp	r3, r2
 8000f7e:	d067      	beq.n	8001050 <HAL_DMA_Init+0x2b8>
 8000f80:	f102 4270 	add.w	r2, r2, #4026531840	@ 0xf0000000
 8000f84:	3280      	adds	r2, #128	@ 0x80
 8000f86:	4293      	cmp	r3, r2
 8000f88:	d062      	beq.n	8001050 <HAL_DMA_Init+0x2b8>
 8000f8a:	f102 5280 	add.w	r2, r2, #268435456	@ 0x10000000
 8000f8e:	4293      	cmp	r3, r2
 8000f90:	d05e      	beq.n	8001050 <HAL_DMA_Init+0x2b8>
 8000f92:	f102 4270 	add.w	r2, r2, #4026531840	@ 0xf0000000
 8000f96:	3280      	adds	r2, #128	@ 0x80
 8000f98:	4293      	cmp	r3, r2
 8000f9a:	d059      	beq.n	8001050 <HAL_DMA_Init+0x2b8>
 8000f9c:	f102 5280 	add.w	r2, r2, #268435456	@ 0x10000000
 8000fa0:	4293      	cmp	r3, r2
 8000fa2:	d055      	beq.n	8001050 <HAL_DMA_Init+0x2b8>
 8000fa4:	f102 4270 	add.w	r2, r2, #4026531840	@ 0xf0000000
 8000fa8:	3280      	adds	r2, #128	@ 0x80
 8000faa:	4293      	cmp	r3, r2
 8000fac:	d050      	beq.n	8001050 <HAL_DMA_Init+0x2b8>
 8000fae:	f102 5280 	add.w	r2, r2, #268435456	@ 0x10000000
 8000fb2:	4293      	cmp	r3, r2
 8000fb4:	d04c      	beq.n	8001050 <HAL_DMA_Init+0x2b8>
 8000fb6:	f102 4270 	add.w	r2, r2, #4026531840	@ 0xf0000000
 8000fba:	3280      	adds	r2, #128	@ 0x80
 8000fbc:	4293      	cmp	r3, r2
 8000fbe:	d047      	beq.n	8001050 <HAL_DMA_Init+0x2b8>
 8000fc0:	f102 5280 	add.w	r2, r2, #268435456	@ 0x10000000
 8000fc4:	4293      	cmp	r3, r2
 8000fc6:	d043      	beq.n	8001050 <HAL_DMA_Init+0x2b8>
 8000fc8:	f102 4270 	add.w	r2, r2, #4026531840	@ 0xf0000000
 8000fcc:	3280      	adds	r2, #128	@ 0x80
 8000fce:	4293      	cmp	r3, r2
 8000fd0:	d03e      	beq.n	8001050 <HAL_DMA_Init+0x2b8>
 8000fd2:	f102 5280 	add.w	r2, r2, #268435456	@ 0x10000000
 8000fd6:	4293      	cmp	r3, r2
 8000fd8:	d03a      	beq.n	8001050 <HAL_DMA_Init+0x2b8>
 8000fda:	f102 4270 	add.w	r2, r2, #4026531840	@ 0xf0000000
 8000fde:	3280      	adds	r2, #128	@ 0x80
 8000fe0:	4293      	cmp	r3, r2
 8000fe2:	d035      	beq.n	8001050 <HAL_DMA_Init+0x2b8>
 8000fe4:	f102 5280 	add.w	r2, r2, #268435456	@ 0x10000000
 8000fe8:	4293      	cmp	r3, r2
 8000fea:	d031      	beq.n	8001050 <HAL_DMA_Init+0x2b8>
 8000fec:	f102 4270 	add.w	r2, r2, #4026531840	@ 0xf0000000
 8000ff0:	3280      	adds	r2, #128	@ 0x80
 8000ff2:	4293      	cmp	r3, r2
 8000ff4:	d02c      	beq.n	8001050 <HAL_DMA_Init+0x2b8>
 8000ff6:	f102 5280 	add.w	r2, r2, #268435456	@ 0x10000000
 8000ffa:	4293      	cmp	r3, r2
 8000ffc:	d028      	beq.n	8001050 <HAL_DMA_Init+0x2b8>
 8000ffe:	f102 4270 	add.w	r2, r2, #4026531840	@ 0xf0000000
 8001002:	3280      	adds	r2, #128	@ 0x80
 8001004:	4293      	cmp	r3, r2
 8001006:	d023      	beq.n	8001050 <HAL_DMA_Init+0x2b8>
 8001008:	f102 5280 	add.w	r2, r2, #268435456	@ 0x10000000
 800100c:	4293      	cmp	r3, r2
 800100e:	d01f      	beq.n	8001050 <HAL_DMA_Init+0x2b8>
 8001010:	4283      	cmp	r3, r0
 8001012:	d01d      	beq.n	8001050 <HAL_DMA_Init+0x2b8>
 8001014:	3280      	adds	r2, #128	@ 0x80
 8001016:	4293      	cmp	r3, r2
 8001018:	d01a      	beq.n	8001050 <HAL_DMA_Init+0x2b8>
 800101a:	f102 4270 	add.w	r2, r2, #4026531840	@ 0xf0000000
 800101e:	3280      	adds	r2, #128	@ 0x80
 8001020:	4293      	cmp	r3, r2
 8001022:	d015      	beq.n	8001050 <HAL_DMA_Init+0x2b8>
 8001024:	f102 5280 	add.w	r2, r2, #268435456	@ 0x10000000
 8001028:	4293      	cmp	r3, r2
 800102a:	d011      	beq.n	8001050 <HAL_DMA_Init+0x2b8>
 800102c:	f102 4270 	add.w	r2, r2, #4026531840	@ 0xf0000000
 8001030:	3280      	adds	r2, #128	@ 0x80
 8001032:	4293      	cmp	r3, r2
 8001034:	d00c      	beq.n	8001050 <HAL_DMA_Init+0x2b8>
 8001036:	f102 5280 	add.w	r2, r2, #268435456	@ 0x10000000
 800103a:	4293      	cmp	r3, r2
 800103c:	d008      	beq.n	8001050 <HAL_DMA_Init+0x2b8>
 800103e:	f102 4270 	add.w	r2, r2, #4026531840	@ 0xf0000000
 8001042:	3280      	adds	r2, #128	@ 0x80
 8001044:	4293      	cmp	r3, r2
 8001046:	d003      	beq.n	8001050 <HAL_DMA_Init+0x2b8>
 8001048:	f102 5280 	add.w	r2, r2, #268435456	@ 0x10000000
 800104c:	4293      	cmp	r3, r2
 800104e:	d101      	bne.n	8001054 <HAL_DMA_Init+0x2bc>
 8001050:	f441 6180 	orr.w	r1, r1, #1024	@ 0x400
 8001054:	6c5a      	ldr	r2, [r3, #68]	@ 0x44
 8001056:	4283      	cmp	r3, r0
 8001058:	f022 4243 	bic.w	r2, r2, #3271557120	@ 0xc3000000
 800105c:	f422 127f 	bic.w	r2, r2, #4177920	@ 0x3fc000
 8001060:	f422 6267 	bic.w	r2, r2, #3696	@ 0xe70
 8001064:	f022 020f 	bic.w	r2, r2, #15
 8001068:	ea42 0201 	orr.w	r2, r2, r1
 800106c:	645a      	str	r2, [r3, #68]	@ 0x44
 800106e:	f04f 0200 	mov.w	r2, #0
 8001072:	649a      	str	r2, [r3, #72]	@ 0x48
 8001074:	d027      	beq.n	80010c6 <HAL_DMA_Init+0x32e>
 8001076:	4a0c      	ldr	r2, [pc, #48]	@ (80010a8 <HAL_DMA_Init+0x310>)
 8001078:	4293      	cmp	r3, r2
 800107a:	d024      	beq.n	80010c6 <HAL_DMA_Init+0x32e>
 800107c:	f102 4270 	add.w	r2, r2, #4026531840	@ 0xf0000000
 8001080:	3280      	adds	r2, #128	@ 0x80
 8001082:	4293      	cmp	r3, r2
 8001084:	d01f      	beq.n	80010c6 <HAL_DMA_Init+0x32e>
 8001086:	f102 5280 	add.w	r2, r2, #268435456	@ 0x10000000
 800108a:	4293      	cmp	r3, r2
 800108c:	d01b      	beq.n	80010c6 <HAL_DMA_Init+0x32e>
 800108e:	f102 4270 	add.w	r2, r2, #4026531840	@ 0xf0000000
 8001092:	3280      	adds	r2, #128	@ 0x80
 8001094:	4293      	cmp	r3, r2
 8001096:	d016      	beq.n	80010c6 <HAL_DMA_Init+0x32e>
 8001098:	e008      	b.n	80010ac <HAL_DMA_Init+0x314>
 800109a:	bf00      	nop
 800109c:	40020050 	.word	0x40020050
 80010a0:	40020650 	.word	0x40020650
 80010a4:	50020050 	.word	0x50020050
 80010a8:	50020650 	.word	0x50020650
 80010ac:	f102 5280 	add.w	r2, r2, #268435456	@ 0x10000000
 80010b0:	4293      	cmp	r3, r2
 80010b2:	d008      	beq.n	80010c6 <HAL_DMA_Init+0x32e>
 80010b4:	f102 4270 	add.w	r2, r2, #4026531840	@ 0xf0000000
 80010b8:	3280      	adds	r2, #128	@ 0x80
 80010ba:	4293      	cmp	r3, r2
 80010bc:	d003      	beq.n	80010c6 <HAL_DMA_Init+0x32e>
 80010be:	f102 5280 	add.w	r2, r2, #268435456	@ 0x10000000
 80010c2:	4293      	cmp	r3, r2
 80010c4:	d102      	bne.n	80010cc <HAL_DMA_Init+0x334>
 80010c6:	2200      	movs	r2, #0
 80010c8:	655a      	str	r2, [r3, #84]	@ 0x54
 80010ca:	659a      	str	r2, [r3, #88]	@ 0x58
 80010cc:	2000      	movs	r0, #0
 80010ce:	67d8      	str	r0, [r3, #124]	@ 0x7c
 80010d0:	6b63      	ldr	r3, [r4, #52]	@ 0x34
 80010d2:	65a0      	str	r0, [r4, #88]	@ 0x58
 80010d4:	6523      	str	r3, [r4, #80]	@ 0x50
 80010d6:	2301      	movs	r3, #1
 80010d8:	f884 3054 	strb.w	r3, [r4, #84]	@ 0x54
 80010dc:	e00b      	b.n	80010f6 <HAL_DMA_Init+0x35e>
 80010de:	f7ff fd8f 	bl	8000c00 <HAL_GetTick>
 80010e2:	1b40      	subs	r0, r0, r5
 80010e4:	2805      	cmp	r0, #5
 80010e6:	f67f ae6a 	bls.w	8000dbe <HAL_DMA_Init+0x26>
 80010ea:	2310      	movs	r3, #16
 80010ec:	65a3      	str	r3, [r4, #88]	@ 0x58
 80010ee:	2303      	movs	r3, #3
 80010f0:	f884 3054 	strb.w	r3, [r4, #84]	@ 0x54
 80010f4:	2001      	movs	r0, #1
 80010f6:	bd38      	pop	{r3, r4, r5, pc}
 80010f8:	f5b2 7f00 	cmp.w	r2, #512	@ 0x200
 80010fc:	bf08      	it	eq
 80010fe:	f441 7100 	orreq.w	r1, r1, #512	@ 0x200
 8001102:	e7a7      	b.n	8001054 <HAL_DMA_Init+0x2bc>

08001104 <HAL_DMA_Start_IT>:
 8001104:	b530      	push	{r4, r5, lr}
 8001106:	2800      	cmp	r0, #0
 8001108:	d034      	beq.n	8001174 <HAL_DMA_Start_IT+0x70>
 800110a:	f890 404c 	ldrb.w	r4, [r0, #76]	@ 0x4c
 800110e:	2c01      	cmp	r4, #1
 8001110:	d032      	beq.n	8001178 <HAL_DMA_Start_IT+0x74>
 8001112:	2401      	movs	r4, #1
 8001114:	f880 404c 	strb.w	r4, [r0, #76]	@ 0x4c
 8001118:	f890 4054 	ldrb.w	r4, [r0, #84]	@ 0x54
 800111c:	2c01      	cmp	r4, #1
 800111e:	f04f 0400 	mov.w	r4, #0
 8001122:	d123      	bne.n	800116c <HAL_DMA_Start_IT+0x68>
 8001124:	2502      	movs	r5, #2
 8001126:	f880 5054 	strb.w	r5, [r0, #84]	@ 0x54
 800112a:	6584      	str	r4, [r0, #88]	@ 0x58
 800112c:	6804      	ldr	r4, [r0, #0]
 800112e:	6ca5      	ldr	r5, [r4, #72]	@ 0x48
 8001130:	f363 050f 	bfi	r5, r3, #0, #16
 8001134:	f44f 43fe 	mov.w	r3, #32512	@ 0x7f00
 8001138:	64a5      	str	r5, [r4, #72]	@ 0x48
 800113a:	60e3      	str	r3, [r4, #12]
 800113c:	64e1      	str	r1, [r4, #76]	@ 0x4c
 800113e:	6522      	str	r2, [r4, #80]	@ 0x50
 8001140:	6963      	ldr	r3, [r4, #20]
 8001142:	f443 43ba 	orr.w	r3, r3, #23808	@ 0x5d00
 8001146:	6163      	str	r3, [r4, #20]
 8001148:	6e43      	ldr	r3, [r0, #100]	@ 0x64
 800114a:	b11b      	cbz	r3, 8001154 <HAL_DMA_Start_IT+0x50>
 800114c:	6963      	ldr	r3, [r4, #20]
 800114e:	f443 7300 	orr.w	r3, r3, #512	@ 0x200
 8001152:	6163      	str	r3, [r4, #20]
 8001154:	6f03      	ldr	r3, [r0, #112]	@ 0x70
 8001156:	b11b      	cbz	r3, 8001160 <HAL_DMA_Start_IT+0x5c>
 8001158:	6963      	ldr	r3, [r4, #20]
 800115a:	f443 5300 	orr.w	r3, r3, #8192	@ 0x2000
 800115e:	6163      	str	r3, [r4, #20]
 8001160:	2000      	movs	r0, #0
 8001162:	6963      	ldr	r3, [r4, #20]
 8001164:	f043 0301 	orr.w	r3, r3, #1
 8001168:	6163      	str	r3, [r4, #20]
 800116a:	bd30      	pop	{r4, r5, pc}
 800116c:	2340      	movs	r3, #64	@ 0x40
 800116e:	f880 404c 	strb.w	r4, [r0, #76]	@ 0x4c
 8001172:	6583      	str	r3, [r0, #88]	@ 0x58
 8001174:	2001      	movs	r0, #1
 8001176:	e7f8      	b.n	800116a <HAL_DMA_Start_IT+0x66>
 8001178:	2002      	movs	r0, #2
 800117a:	e7f6      	b.n	800116a <HAL_DMA_Start_IT+0x66>

0800117c <HAL_DMA_IRQHandler>:
 800117c:	2101      	movs	r1, #1
 800117e:	6803      	ldr	r3, [r0, #0]
 8001180:	b510      	push	{r4, lr}
 8001182:	f423 627f 	bic.w	r2, r3, #4080	@ 0xff0
 8001186:	f022 020f 	bic.w	r2, r2, #15
 800118a:	4604      	mov	r4, r0
 800118c:	68d0      	ldr	r0, [r2, #12]
 800118e:	f3c3 020b 	ubfx	r2, r3, #0, #12
 8001192:	3a50      	subs	r2, #80	@ 0x50
 8001194:	f3c2 12c4 	ubfx	r2, r2, #7, #5
 8001198:	fa01 f202 	lsl.w	r2, r1, r2
 800119c:	4202      	tst	r2, r0
 800119e:	f000 80ab 	beq.w	80012f8 <HAL_DMA_IRQHandler+0x17c>
 80011a2:	691a      	ldr	r2, [r3, #16]
 80011a4:	0550      	lsls	r0, r2, #21
 80011a6:	d508      	bpl.n	80011ba <HAL_DMA_IRQHandler+0x3e>
 80011a8:	695a      	ldr	r2, [r3, #20]
 80011aa:	0552      	lsls	r2, r2, #21
 80011ac:	d505      	bpl.n	80011ba <HAL_DMA_IRQHandler+0x3e>
 80011ae:	f44f 6280 	mov.w	r2, #1024	@ 0x400
 80011b2:	60da      	str	r2, [r3, #12]
 80011b4:	6da2      	ldr	r2, [r4, #88]	@ 0x58
 80011b6:	430a      	orrs	r2, r1
 80011b8:	65a2      	str	r2, [r4, #88]	@ 0x58
 80011ba:	691a      	ldr	r2, [r3, #16]
 80011bc:	0510      	lsls	r0, r2, #20
 80011be:	d509      	bpl.n	80011d4 <HAL_DMA_IRQHandler+0x58>
 80011c0:	695a      	ldr	r2, [r3, #20]
 80011c2:	0511      	lsls	r1, r2, #20
 80011c4:	d506      	bpl.n	80011d4 <HAL_DMA_IRQHandler+0x58>
 80011c6:	f44f 6200 	mov.w	r2, #2048	@ 0x800
 80011ca:	60da      	str	r2, [r3, #12]
 80011cc:	6da2      	ldr	r2, [r4, #88]	@ 0x58
 80011ce:	f042 0202 	orr.w	r2, r2, #2
 80011d2:	65a2      	str	r2, [r4, #88]	@ 0x58
 80011d4:	691a      	ldr	r2, [r3, #16]
 80011d6:	04d2      	lsls	r2, r2, #19
 80011d8:	d509      	bpl.n	80011ee <HAL_DMA_IRQHandler+0x72>
 80011da:	695a      	ldr	r2, [r3, #20]
 80011dc:	04d0      	lsls	r0, r2, #19
 80011de:	d506      	bpl.n	80011ee <HAL_DMA_IRQHandler+0x72>
 80011e0:	f44f 5280 	mov.w	r2, #4096	@ 0x1000
 80011e4:	60da      	str	r2, [r3, #12]
 80011e6:	6da2      	ldr	r2, [r4, #88]	@ 0x58
 80011e8:	f042 0204 	orr.w	r2, r2, #4
 80011ec:	65a2      	str	r2, [r4, #88]	@ 0x58
 80011ee:	691a      	ldr	r2, [r3, #16]
 80011f0:	0451      	lsls	r1, r2, #17
 80011f2:	d509      	bpl.n	8001208 <HAL_DMA_IRQHandler+0x8c>
 80011f4:	695a      	ldr	r2, [r3, #20]
 80011f6:	0452      	lsls	r2, r2, #17
 80011f8:	d506      	bpl.n	8001208 <HAL_DMA_IRQHandler+0x8c>
 80011fa:	f44f 4280 	mov.w	r2, #16384	@ 0x4000
 80011fe:	60da      	str	r2, [r3, #12]
 8001200:	6da2      	ldr	r2, [r4, #88]	@ 0x58
 8001202:	f042 0208 	orr.w	r2, r2, #8
 8001206:	65a2      	str	r2, [r4, #88]	@ 0x58
 8001208:	691a      	ldr	r2, [r3, #16]
 800120a:	0590      	lsls	r0, r2, #22
 800120c:	d509      	bpl.n	8001222 <HAL_DMA_IRQHandler+0xa6>
 800120e:	695a      	ldr	r2, [r3, #20]
 8001210:	0591      	lsls	r1, r2, #22
 8001212:	d506      	bpl.n	8001222 <HAL_DMA_IRQHandler+0xa6>
 8001214:	f44f 7200 	mov.w	r2, #512	@ 0x200
 8001218:	60da      	str	r2, [r3, #12]
 800121a:	6e63      	ldr	r3, [r4, #100]	@ 0x64
 800121c:	b10b      	cbz	r3, 8001222 <HAL_DMA_IRQHandler+0xa6>
 800121e:	4620      	mov	r0, r4
 8001220:	4798      	blx	r3
 8001222:	6823      	ldr	r3, [r4, #0]
 8001224:	691a      	ldr	r2, [r3, #16]
 8001226:	0492      	lsls	r2, r2, #18
 8001228:	d52e      	bpl.n	8001288 <HAL_DMA_IRQHandler+0x10c>
 800122a:	695a      	ldr	r2, [r3, #20]
 800122c:	0490      	lsls	r0, r2, #18
 800122e:	d52b      	bpl.n	8001288 <HAL_DMA_IRQHandler+0x10c>
 8001230:	f44f 5200 	mov.w	r2, #8192	@ 0x2000
 8001234:	60da      	str	r2, [r3, #12]
 8001236:	f894 2054 	ldrb.w	r2, [r4, #84]	@ 0x54
 800123a:	2a04      	cmp	r2, #4
 800123c:	d11d      	bne.n	800127a <HAL_DMA_IRQHandler+0xfe>
 800123e:	695a      	ldr	r2, [r3, #20]
 8001240:	6d21      	ldr	r1, [r4, #80]	@ 0x50
 8001242:	f422 5200 	bic.w	r2, r2, #8192	@ 0x2000
 8001246:	615a      	str	r2, [r3, #20]
 8001248:	695a      	ldr	r2, [r3, #20]
 800124a:	0609      	lsls	r1, r1, #24
 800124c:	f042 0202 	orr.w	r2, r2, #2
 8001250:	615a      	str	r2, [r3, #20]
 8001252:	f04f 0201 	mov.w	r2, #1
 8001256:	bf48      	it	mi
 8001258:	6f61      	ldrmi	r1, [r4, #116]	@ 0x74
 800125a:	f884 2054 	strb.w	r2, [r4, #84]	@ 0x54
 800125e:	bf42      	ittt	mi
 8001260:	730a      	strbmi	r2, [r1, #12]
 8001262:	2200      	movmi	r2, #0
 8001264:	649a      	strmi	r2, [r3, #72]	@ 0x48
 8001266:	2300      	movs	r3, #0
 8001268:	f884 304c 	strb.w	r3, [r4, #76]	@ 0x4c
 800126c:	6ee3      	ldr	r3, [r4, #108]	@ 0x6c
 800126e:	2b00      	cmp	r3, #0
 8001270:	d042      	beq.n	80012f8 <HAL_DMA_IRQHandler+0x17c>
 8001272:	4620      	mov	r0, r4
 8001274:	e8bd 4010 	ldmia.w	sp!, {r4, lr}
 8001278:	4718      	bx	r3
 800127a:	2305      	movs	r3, #5
 800127c:	f884 3054 	strb.w	r3, [r4, #84]	@ 0x54
 8001280:	6f23      	ldr	r3, [r4, #112]	@ 0x70
 8001282:	b10b      	cbz	r3, 8001288 <HAL_DMA_IRQHandler+0x10c>
 8001284:	4620      	mov	r0, r4
 8001286:	4798      	blx	r3
 8001288:	6823      	ldr	r3, [r4, #0]
 800128a:	691a      	ldr	r2, [r3, #16]
 800128c:	05d2      	lsls	r2, r2, #23
 800128e:	d518      	bpl.n	80012c2 <HAL_DMA_IRQHandler+0x146>
 8001290:	695a      	ldr	r2, [r3, #20]
 8001292:	05d0      	lsls	r0, r2, #23
 8001294:	d515      	bpl.n	80012c2 <HAL_DMA_IRQHandler+0x146>
 8001296:	6d22      	ldr	r2, [r4, #80]	@ 0x50
 8001298:	0611      	lsls	r1, r2, #24
 800129a:	d526      	bpl.n	80012ea <HAL_DMA_IRQHandler+0x16e>
 800129c:	6fda      	ldr	r2, [r3, #124]	@ 0x7c
 800129e:	b932      	cbnz	r2, 80012ae <HAL_DMA_IRQHandler+0x132>
 80012a0:	6c9a      	ldr	r2, [r3, #72]	@ 0x48
 80012a2:	b922      	cbnz	r2, 80012ae <HAL_DMA_IRQHandler+0x132>
 80012a4:	2201      	movs	r2, #1
 80012a6:	6f61      	ldr	r1, [r4, #116]	@ 0x74
 80012a8:	f884 2054 	strb.w	r2, [r4, #84]	@ 0x54
 80012ac:	730a      	strb	r2, [r1, #12]
 80012ae:	f44f 7240 	mov.w	r2, #768	@ 0x300
 80012b2:	60da      	str	r2, [r3, #12]
 80012b4:	2300      	movs	r3, #0
 80012b6:	f884 304c 	strb.w	r3, [r4, #76]	@ 0x4c
 80012ba:	6e23      	ldr	r3, [r4, #96]	@ 0x60
 80012bc:	b10b      	cbz	r3, 80012c2 <HAL_DMA_IRQHandler+0x146>
 80012be:	4620      	mov	r0, r4
 80012c0:	4798      	blx	r3
 80012c2:	6da3      	ldr	r3, [r4, #88]	@ 0x58
 80012c4:	b1c3      	cbz	r3, 80012f8 <HAL_DMA_IRQHandler+0x17c>
 80012c6:	6822      	ldr	r2, [r4, #0]
 80012c8:	6953      	ldr	r3, [r2, #20]
 80012ca:	f043 0302 	orr.w	r3, r3, #2
 80012ce:	6153      	str	r3, [r2, #20]
 80012d0:	2301      	movs	r3, #1
 80012d2:	6d22      	ldr	r2, [r4, #80]	@ 0x50
 80012d4:	f884 3054 	strb.w	r3, [r4, #84]	@ 0x54
 80012d8:	0612      	lsls	r2, r2, #24
 80012da:	bf44      	itt	mi
 80012dc:	6f62      	ldrmi	r2, [r4, #116]	@ 0x74
 80012de:	7313      	strbmi	r3, [r2, #12]
 80012e0:	2300      	movs	r3, #0
 80012e2:	f884 304c 	strb.w	r3, [r4, #76]	@ 0x4c
 80012e6:	6ea3      	ldr	r3, [r4, #104]	@ 0x68
 80012e8:	e7c1      	b.n	800126e <HAL_DMA_IRQHandler+0xf2>
 80012ea:	6c9a      	ldr	r2, [r3, #72]	@ 0x48
 80012ec:	2a00      	cmp	r2, #0
 80012ee:	d1de      	bne.n	80012ae <HAL_DMA_IRQHandler+0x132>
 80012f0:	2201      	movs	r2, #1
 80012f2:	f884 2054 	strb.w	r2, [r4, #84]	@ 0x54
 80012f6:	e7da      	b.n	80012ae <HAL_DMA_IRQHandler+0x132>
 80012f8:	bd10      	pop	{r4, pc}

080012fa <HAL_DMA_ConfigChannelAttributes>:
 80012fa:	b1d0      	cbz	r0, 8001332 <HAL_DMA_ConfigChannelAttributes+0x38>
 80012fc:	06cb      	lsls	r3, r1, #27
 80012fe:	d401      	bmi.n	8001304 <HAL_DMA_ConfigChannelAttributes+0xa>
 8001300:	2000      	movs	r0, #0
 8001302:	4770      	bx	lr
 8001304:	6803      	ldr	r3, [r0, #0]
 8001306:	2001      	movs	r0, #1
 8001308:	f423 627f 	bic.w	r2, r3, #4080	@ 0xff0
 800130c:	f3c3 030b 	ubfx	r3, r3, #0, #12
 8001310:	f022 020f 	bic.w	r2, r2, #15
 8001314:	f001 0111 	and.w	r1, r1, #17
 8001318:	3b50      	subs	r3, #80	@ 0x50
 800131a:	2911      	cmp	r1, #17
 800131c:	f3c3 13c4 	ubfx	r3, r3, #7, #5
 8001320:	6851      	ldr	r1, [r2, #4]
 8001322:	fa00 f303 	lsl.w	r3, r0, r3
 8001326:	bf0c      	ite	eq
 8001328:	430b      	orreq	r3, r1
 800132a:	ea21 0303 	bicne.w	r3, r1, r3
 800132e:	6053      	str	r3, [r2, #4]
 8001330:	e7e6      	b.n	8001300 <HAL_DMA_ConfigChannelAttributes+0x6>
 8001332:	2001      	movs	r0, #1
 8001334:	4770      	bx	lr

08001336 <DMA_List_CheckNodesBaseAddresses>:
 8001336:	ea41 0302 	orr.w	r3, r1, r2
 800133a:	4303      	orrs	r3, r0
 800133c:	b918      	cbnz	r0, 8001346 <DMA_List_CheckNodesBaseAddresses+0x10>
 800133e:	b949      	cbnz	r1, 8001354 <DMA_List_CheckNodesBaseAddresses+0x1e>
 8001340:	2a00      	cmp	r2, #0
 8001342:	bf18      	it	ne
 8001344:	4610      	movne	r0, r2
 8001346:	4058      	eors	r0, r3
 8001348:	f5b0 3f80 	cmp.w	r0, #65536	@ 0x10000
 800134c:	bf34      	ite	cc
 800134e:	2000      	movcc	r0, #0
 8001350:	2001      	movcs	r0, #1
 8001352:	4770      	bx	lr
 8001354:	4608      	mov	r0, r1
 8001356:	e7f6      	b.n	8001346 <DMA_List_CheckNodesBaseAddresses+0x10>

08001358 <DMA_List_CheckNodesTypes>:
 8001358:	b150      	cbz	r0, 8001370 <DMA_List_CheckNodesTypes+0x18>
 800135a:	f890 3020 	ldrb.w	r3, [r0, #32]
 800135e:	b959      	cbnz	r1, 8001378 <DMA_List_CheckNodesTypes+0x20>
 8001360:	b192      	cbz	r2, 8001388 <DMA_List_CheckNodesTypes+0x30>
 8001362:	f892 0020 	ldrb.w	r0, [r2, #32]
 8001366:	4298      	cmp	r0, r3
 8001368:	bf14      	ite	ne
 800136a:	2003      	movne	r0, #3
 800136c:	2000      	moveq	r0, #0
 800136e:	4770      	bx	lr
 8001370:	b141      	cbz	r1, 8001384 <DMA_List_CheckNodesTypes+0x2c>
 8001372:	f891 3020 	ldrb.w	r3, [r1, #32]
 8001376:	e7f3      	b.n	8001360 <DMA_List_CheckNodesTypes+0x8>
 8001378:	f891 1020 	ldrb.w	r1, [r1, #32]
 800137c:	4299      	cmp	r1, r3
 800137e:	d0ef      	beq.n	8001360 <DMA_List_CheckNodesTypes+0x8>
 8001380:	2002      	movs	r0, #2
 8001382:	4770      	bx	lr
 8001384:	4608      	mov	r0, r1
 8001386:	4770      	bx	lr
 8001388:	4610      	mov	r0, r2
 800138a:	4770      	bx	lr

0800138c <DMA_List_FindNode>:
 800138c:	e92d 43f0 	stmdb	sp!, {r4, r5, r6, r7, r8, r9, lr}
 8001390:	f8d0 c008 	ldr.w	ip, [r0, #8]
 8001394:	6817      	ldr	r7, [r2, #0]
 8001396:	b389      	cbz	r1, 80013fc <DMA_List_FindNode+0x70>
 8001398:	2500      	movs	r5, #0
 800139a:	f64f 76fc 	movw	r6, #65532	@ 0xfffc
 800139e:	462b      	mov	r3, r5
 80013a0:	462c      	mov	r4, r5
 80013a2:	f64f 7efc 	movw	lr, #65532	@ 0xfffc
 80013a6:	f8df 808c 	ldr.w	r8, [pc, #140]	@ 8001434 <DMA_List_FindNode+0xa8>
 80013aa:	400e      	ands	r6, r1
 80013ac:	ea4f 0987 	mov.w	r9, r7, lsl #2
 80013b0:	4564      	cmp	r4, ip
 80013b2:	d03b      	beq.n	800142c <DMA_List_FindNode+0xa0>
 80013b4:	429e      	cmp	r6, r3
 80013b6:	d00c      	beq.n	80013d2 <DMA_List_FindNode+0x46>
 80013b8:	6801      	ldr	r1, [r0, #0]
 80013ba:	bb4c      	cbnz	r4, 8001410 <DMA_List_FindNode+0x84>
 80013bc:	ea01 030e 	and.w	r3, r1, lr
 80013c0:	3401      	adds	r4, #1
 80013c2:	e7f5      	b.n	80013b0 <DMA_List_FindNode+0x24>
 80013c4:	6801      	ldr	r1, [r0, #0]
 80013c6:	b994      	cbnz	r4, 80013ee <DMA_List_FindNode+0x62>
 80013c8:	ea01 0306 	and.w	r3, r1, r6
 80013cc:	3401      	adds	r4, #1
 80013ce:	4564      	cmp	r4, ip
 80013d0:	d1f8      	bne.n	80013c4 <DMA_List_FindNode+0x38>
 80013d2:	6801      	ldr	r1, [r0, #0]
 80013d4:	6094      	str	r4, [r2, #8]
 80013d6:	f36f 010f 	bfc	r1, #0, #16
 80013da:	430b      	orrs	r3, r1
 80013dc:	60d3      	str	r3, [r2, #12]
 80013de:	f853 3027 	ldr.w	r3, [r3, r7, lsl #2]
 80013e2:	430d      	orrs	r5, r1
 80013e4:	6055      	str	r5, [r2, #4]
 80013e6:	b9d3      	cbnz	r3, 800141e <DMA_List_FindNode+0x92>
 80013e8:	2000      	movs	r0, #0
 80013ea:	e8bd 83f0 	ldmia.w	sp!, {r4, r5, r6, r7, r8, r9, pc}
 80013ee:	eb08 0503 	add.w	r5, r8, r3
 80013f2:	ea01 010e 	and.w	r1, r1, lr
 80013f6:	5869      	ldr	r1, [r5, r1]
 80013f8:	461d      	mov	r5, r3
 80013fa:	e7e5      	b.n	80013c8 <DMA_List_FindNode+0x3c>
 80013fc:	460d      	mov	r5, r1
 80013fe:	460b      	mov	r3, r1
 8001400:	460c      	mov	r4, r1
 8001402:	f64f 76fc 	movw	r6, #65532	@ 0xfffc
 8001406:	f8df e02c 	ldr.w	lr, [pc, #44]	@ 8001434 <DMA_List_FindNode+0xa8>
 800140a:	ea4f 0887 	mov.w	r8, r7, lsl #2
 800140e:	e7de      	b.n	80013ce <DMA_List_FindNode+0x42>
 8001410:	eb09 0503 	add.w	r5, r9, r3
 8001414:	ea01 0108 	and.w	r1, r1, r8
 8001418:	5869      	ldr	r1, [r5, r1]
 800141a:	461d      	mov	r5, r3
 800141c:	e7ce      	b.n	80013bc <DMA_List_FindNode+0x30>
 800141e:	f023 0303 	bic.w	r3, r3, #3
 8001422:	041b      	lsls	r3, r3, #16
 8001424:	0c1b      	lsrs	r3, r3, #16
 8001426:	430b      	orrs	r3, r1
 8001428:	6113      	str	r3, [r2, #16]
 800142a:	e7dd      	b.n	80013e8 <DMA_List_FindNode+0x5c>
 800142c:	429e      	cmp	r6, r3
 800142e:	d0d0      	beq.n	80013d2 <DMA_List_FindNode+0x46>
 8001430:	2001      	movs	r0, #1
 8001432:	e7da      	b.n	80013ea <DMA_List_FindNode+0x5e>
 8001434:	ffff0000 	.word	0xffff0000

08001438 <DMA_List_GetCLLRNodeInfo.isra.0>:
 8001438:	0783      	lsls	r3, r0, #30
 800143a:	d506      	bpl.n	800144a <DMA_List_GetCLLRNodeInfo.isra.0+0x12>
 800143c:	b109      	cbz	r1, 8001442 <DMA_List_GetCLLRNodeInfo.isra.0+0xa>
 800143e:	4b06      	ldr	r3, [pc, #24]	@ (8001458 <DMA_List_GetCLLRNodeInfo.isra.0+0x20>)
 8001440:	600b      	str	r3, [r1, #0]
 8001442:	b10a      	cbz	r2, 8001448 <DMA_List_GetCLLRNodeInfo.isra.0+0x10>
 8001444:	2307      	movs	r3, #7
 8001446:	6013      	str	r3, [r2, #0]
 8001448:	4770      	bx	lr
 800144a:	b109      	cbz	r1, 8001450 <DMA_List_GetCLLRNodeInfo.isra.0+0x18>
 800144c:	4b03      	ldr	r3, [pc, #12]	@ (800145c <DMA_List_GetCLLRNodeInfo.isra.0+0x24>)
 800144e:	600b      	str	r3, [r1, #0]
 8001450:	2a00      	cmp	r2, #0
 8001452:	d0f9      	beq.n	8001448 <DMA_List_GetCLLRNodeInfo.isra.0+0x10>
 8001454:	2305      	movs	r3, #5
 8001456:	e7f6      	b.n	8001446 <DMA_List_GetCLLRNodeInfo.isra.0+0xe>
 8001458:	fe010000 	.word	0xfe010000
 800145c:	f8010000 	.word	0xf8010000

08001460 <HAL_DMAEx_List_Init>:
 8001460:	b538      	push	{r3, r4, r5, lr}
 8001462:	4604      	mov	r4, r0
 8001464:	f7ff fbcc 	bl	8000c00 <HAL_GetTick>
 8001468:	4605      	mov	r5, r0
 800146a:	2c00      	cmp	r4, #0
 800146c:	f000 80e7 	beq.w	800163e <HAL_DMAEx_List_Init+0x1de>
 8001470:	2300      	movs	r3, #0
 8001472:	f884 304c 	strb.w	r3, [r4, #76]	@ 0x4c
 8001476:	2302      	movs	r3, #2
 8001478:	6822      	ldr	r2, [r4, #0]
 800147a:	f884 3054 	strb.w	r3, [r4, #84]	@ 0x54
 800147e:	6953      	ldr	r3, [r2, #20]
 8001480:	f043 0306 	orr.w	r3, r3, #6
 8001484:	6153      	str	r3, [r2, #20]
 8001486:	6823      	ldr	r3, [r4, #0]
 8001488:	695a      	ldr	r2, [r3, #20]
 800148a:	07d2      	lsls	r2, r2, #31
 800148c:	f100 80cc 	bmi.w	8001628 <HAL_DMAEx_List_Init+0x1c8>
 8001490:	e9d4 120e 	ldrd	r1, r2, [r4, #56]	@ 0x38
 8001494:	4311      	orrs	r1, r2
 8001496:	4a6b      	ldr	r2, [pc, #428]	@ (8001644 <HAL_DMAEx_List_Init+0x1e4>)
 8001498:	486b      	ldr	r0, [pc, #428]	@ (8001648 <HAL_DMAEx_List_Init+0x1e8>)
 800149a:	4293      	cmp	r3, r2
 800149c:	f000 8088 	beq.w	80015b0 <HAL_DMAEx_List_Init+0x150>
 80014a0:	f102 5280 	add.w	r2, r2, #268435456	@ 0x10000000
 80014a4:	4293      	cmp	r3, r2
 80014a6:	f000 8083 	beq.w	80015b0 <HAL_DMAEx_List_Init+0x150>
 80014aa:	f102 4270 	add.w	r2, r2, #4026531840	@ 0xf0000000
 80014ae:	3280      	adds	r2, #128	@ 0x80
 80014b0:	4293      	cmp	r3, r2
 80014b2:	d07d      	beq.n	80015b0 <HAL_DMAEx_List_Init+0x150>
 80014b4:	f102 5280 	add.w	r2, r2, #268435456	@ 0x10000000
 80014b8:	4293      	cmp	r3, r2
 80014ba:	d079      	beq.n	80015b0 <HAL_DMAEx_List_Init+0x150>
 80014bc:	f102 4270 	add.w	r2, r2, #4026531840	@ 0xf0000000
 80014c0:	3280      	adds	r2, #128	@ 0x80
 80014c2:	4293      	cmp	r3, r2
 80014c4:	d074      	beq.n	80015b0 <HAL_DMAEx_List_Init+0x150>
 80014c6:	f102 5280 	add.w	r2, r2, #268435456	@ 0x10000000
 80014ca:	4293      	cmp	r3, r2
 80014cc:	d070      	beq.n	80015b0 <HAL_DMAEx_List_Init+0x150>
 80014ce:	f102 4270 	add.w	r2, r2, #4026531840	@ 0xf0000000
 80014d2:	3280      	adds	r2, #128	@ 0x80
 80014d4:	4293      	cmp	r3, r2
 80014d6:	d06b      	beq.n	80015b0 <HAL_DMAEx_List_Init+0x150>
 80014d8:	f102 5280 	add.w	r2, r2, #268435456	@ 0x10000000
 80014dc:	4293      	cmp	r3, r2
 80014de:	d067      	beq.n	80015b0 <HAL_DMAEx_List_Init+0x150>
 80014e0:	f102 4270 	add.w	r2, r2, #4026531840	@ 0xf0000000
 80014e4:	3280      	adds	r2, #128	@ 0x80
 80014e6:	4293      	cmp	r3, r2
 80014e8:	d062      	beq.n	80015b0 <HAL_DMAEx_List_Init+0x150>
 80014ea:	f102 5280 	add.w	r2, r2, #268435456	@ 0x10000000
 80014ee:	4293      	cmp	r3, r2
 80014f0:	d05e      	beq.n	80015b0 <HAL_DMAEx_List_Init+0x150>
 80014f2:	f102 4270 	add.w	r2, r2, #4026531840	@ 0xf0000000
 80014f6:	3280      	adds	r2, #128	@ 0x80
 80014f8:	4293      	cmp	r3, r2
 80014fa:	d059      	beq.n	80015b0 <HAL_DMAEx_List_Init+0x150>
 80014fc:	f102 5280 	add.w	r2, r2, #268435456	@ 0x10000000
 8001500:	4293      	cmp	r3, r2
 8001502:	d055      	beq.n	80015b0 <HAL_DMAEx_List_Init+0x150>
 8001504:	f102 4270 	add.w	r2, r2, #4026531840	@ 0xf0000000
 8001508:	3280      	adds	r2, #128	@ 0x80
 800150a:	4293      	cmp	r3, r2
 800150c:	d050      	beq.n	80015b0 <HAL_DMAEx_List_Init+0x150>
 800150e:	f102 5280 	add.w	r2, r2, #268435456	@ 0x10000000
 8001512:	4293      	cmp	r3, r2
 8001514:	d04c      	beq.n	80015b0 <HAL_DMAEx_List_Init+0x150>
 8001516:	f102 4270 	add.w	r2, r2, #4026531840	@ 0xf0000000
 800151a:	3280      	adds	r2, #128	@ 0x80
 800151c:	4293      	cmp	r3, r2
 800151e:	d047      	beq.n	80015b0 <HAL_DMAEx_List_Init+0x150>
 8001520:	f102 5280 	add.w	r2, r2, #268435456	@ 0x10000000
 8001524:	4293      	cmp	r3, r2
 8001526:	d043      	beq.n	80015b0 <HAL_DMAEx_List_Init+0x150>
 8001528:	f102 4270 	add.w	r2, r2, #4026531840	@ 0xf0000000
 800152c:	3280      	adds	r2, #128	@ 0x80
 800152e:	4293      	cmp	r3, r2
 8001530:	d03e      	beq.n	80015b0 <HAL_DMAEx_List_Init+0x150>
 8001532:	f102 5280 	add.w	r2, r2, #268435456	@ 0x10000000
 8001536:	4293      	cmp	r3, r2
 8001538:	d03a      	beq.n	80015b0 <HAL_DMAEx_List_Init+0x150>
 800153a:	f102 4270 	add.w	r2, r2, #4026531840	@ 0xf0000000
 800153e:	3280      	adds	r2, #128	@ 0x80
 8001540:	4293      	cmp	r3, r2
 8001542:	d035      	beq.n	80015b0 <HAL_DMAEx_List_Init+0x150>
 8001544:	f102 5280 	add.w	r2, r2, #268435456	@ 0x10000000
 8001548:	4293      	cmp	r3, r2
 800154a:	d031      	beq.n	80015b0 <HAL_DMAEx_List_Init+0x150>
 800154c:	f102 4270 	add.w	r2, r2, #4026531840	@ 0xf0000000
 8001550:	3280      	adds	r2, #128	@ 0x80
 8001552:	4293      	cmp	r3, r2
 8001554:	d02c      	beq.n	80015b0 <HAL_DMAEx_List_Init+0x150>
 8001556:	f102 5280 	add.w	r2, r2, #268435456	@ 0x10000000
 800155a:	4293      	cmp	r3, r2
 800155c:	d028      	beq.n	80015b0 <HAL_DMAEx_List_Init+0x150>
 800155e:	f102 4270 	add.w	r2, r2, #4026531840	@ 0xf0000000
 8001562:	3280      	adds	r2, #128	@ 0x80
 8001564:	4293      	cmp	r3, r2
 8001566:	d023      	beq.n	80015b0 <HAL_DMAEx_List_Init+0x150>
 8001568:	f102 5280 	add.w	r2, r2, #268435456	@ 0x10000000
 800156c:	4293      	cmp	r3, r2
 800156e:	d01f      	beq.n	80015b0 <HAL_DMAEx_List_Init+0x150>
 8001570:	4283      	cmp	r3, r0
 8001572:	d01d      	beq.n	80015b0 <HAL_DMAEx_List_Init+0x150>
 8001574:	3280      	adds	r2, #128	@ 0x80
 8001576:	4293      	cmp	r3, r2
 8001578:	d01a      	beq.n	80015b0 <HAL_DMAEx_List_Init+0x150>
 800157a:	f102 4270 	add.w	r2, r2, #4026531840	@ 0xf0000000
 800157e:	3280      	adds	r2, #128	@ 0x80
 8001580:	4293      	cmp	r3, r2
 8001582:	d015      	beq.n	80015b0 <HAL_DMAEx_List_Init+0x150>
 8001584:	f102 5280 	add.w	r2, r2, #268435456	@ 0x10000000
 8001588:	4293      	cmp	r3, r2
 800158a:	d011      	beq.n	80015b0 <HAL_DMAEx_List_Init+0x150>
 800158c:	f102 4270 	add.w	r2, r2, #4026531840	@ 0xf0000000
 8001590:	3280      	adds	r2, #128	@ 0x80
 8001592:	4293      	cmp	r3, r2
 8001594:	d00c      	beq.n	80015b0 <HAL_DMAEx_List_Init+0x150>
 8001596:	f102 5280 	add.w	r2, r2, #268435456	@ 0x10000000
 800159a:	4293      	cmp	r3, r2
 800159c:	d008      	beq.n	80015b0 <HAL_DMAEx_List_Init+0x150>
 800159e:	f102 4270 	add.w	r2, r2, #4026531840	@ 0xf0000000
 80015a2:	3280      	adds	r2, #128	@ 0x80
 80015a4:	4293      	cmp	r3, r2
 80015a6:	d003      	beq.n	80015b0 <HAL_DMAEx_List_Init+0x150>
 80015a8:	f102 5280 	add.w	r2, r2, #268435456	@ 0x10000000
 80015ac:	4293      	cmp	r3, r2
 80015ae:	d101      	bne.n	80015b4 <HAL_DMAEx_List_Init+0x154>
 80015b0:	6c22      	ldr	r2, [r4, #64]	@ 0x40
 80015b2:	4311      	orrs	r1, r2
 80015b4:	695a      	ldr	r2, [r3, #20]
 80015b6:	4283      	cmp	r3, r0
 80015b8:	f422 0243 	bic.w	r2, r2, #12779520	@ 0xc30000
 80015bc:	ea42 0201 	orr.w	r2, r2, r1
 80015c0:	615a      	str	r2, [r3, #20]
 80015c2:	f04f 0200 	mov.w	r2, #0
 80015c6:	6c61      	ldr	r1, [r4, #68]	@ 0x44
 80015c8:	641a      	str	r2, [r3, #64]	@ 0x40
 80015ca:	6459      	str	r1, [r3, #68]	@ 0x44
 80015cc:	649a      	str	r2, [r3, #72]	@ 0x48
 80015ce:	64da      	str	r2, [r3, #76]	@ 0x4c
 80015d0:	651a      	str	r2, [r3, #80]	@ 0x50
 80015d2:	d01d      	beq.n	8001610 <HAL_DMAEx_List_Init+0x1b0>
 80015d4:	4a1d      	ldr	r2, [pc, #116]	@ (800164c <HAL_DMAEx_List_Init+0x1ec>)
 80015d6:	4293      	cmp	r3, r2
 80015d8:	d01a      	beq.n	8001610 <HAL_DMAEx_List_Init+0x1b0>
 80015da:	f102 4270 	add.w	r2, r2, #4026531840	@ 0xf0000000
 80015de:	3280      	adds	r2, #128	@ 0x80
 80015e0:	4293      	cmp	r3, r2
 80015e2:	d015      	beq.n	8001610 <HAL_DMAEx_List_Init+0x1b0>
 80015e4:	f102 5280 	add.w	r2, r2, #268435456	@ 0x10000000
 80015e8:	4293      	cmp	r3, r2
 80015ea:	d011      	beq.n	8001610 <HAL_DMAEx_List_Init+0x1b0>
 80015ec:	f102 4270 	add.w	r2, r2, #4026531840	@ 0xf0000000
 80015f0:	3280      	adds	r2, #128	@ 0x80
 80015f2:	4293      	cmp	r3, r2
 80015f4:	d00c      	beq.n	8001610 <HAL_DMAEx_List_Init+0x1b0>
 80015f6:	f102 5280 	add.w	r2, r2, #268435456	@ 0x10000000
 80015fa:	4293      	cmp	r3, r2
 80015fc:	d008      	beq.n	8001610 <HAL_DMAEx_List_Init+0x1b0>
 80015fe:	f102 4270 	add.w	r2, r2, #4026531840	@ 0xf0000000
 8001602:	3280      	adds	r2, #128	@ 0x80
 8001604:	4293      	cmp	r3, r2
 8001606:	d003      	beq.n	8001610 <HAL_DMAEx_List_Init+0x1b0>
 8001608:	f102 5280 	add.w	r2, r2, #268435456	@ 0x10000000
 800160c:	4293      	cmp	r3, r2
 800160e:	d102      	bne.n	8001616 <HAL_DMAEx_List_Init+0x1b6>
 8001610:	2200      	movs	r2, #0
 8001612:	655a      	str	r2, [r3, #84]	@ 0x54
 8001614:	659a      	str	r2, [r3, #88]	@ 0x58
 8001616:	2000      	movs	r0, #0
 8001618:	67d8      	str	r0, [r3, #124]	@ 0x7c
 800161a:	6ca3      	ldr	r3, [r4, #72]	@ 0x48
 800161c:	65a0      	str	r0, [r4, #88]	@ 0x58
 800161e:	6523      	str	r3, [r4, #80]	@ 0x50
 8001620:	2301      	movs	r3, #1
 8001622:	f884 3054 	strb.w	r3, [r4, #84]	@ 0x54
 8001626:	e00b      	b.n	8001640 <HAL_DMAEx_List_Init+0x1e0>
 8001628:	f7ff faea 	bl	8000c00 <HAL_GetTick>
 800162c:	1b40      	subs	r0, r0, r5
 800162e:	2805      	cmp	r0, #5
 8001630:	f67f af29 	bls.w	8001486 <HAL_DMAEx_List_Init+0x26>
 8001634:	2310      	movs	r3, #16
 8001636:	65a3      	str	r3, [r4, #88]	@ 0x58
 8001638:	2303      	movs	r3, #3
 800163a:	f884 3054 	strb.w	r3, [r4, #84]	@ 0x54
 800163e:	2001      	movs	r0, #1
 8001640:	bd38      	pop	{r3, r4, r5, pc}
 8001642:	bf00      	nop
 8001644:	40020050 	.word	0x40020050
 8001648:	40020650 	.word	0x40020650
 800164c:	50020650 	.word	0x50020650

08001650 <HAL_DMAEx_List_Start_IT>:
 8001650:	4603      	mov	r3, r0
 8001652:	b537      	push	{r0, r1, r2, r4, r5, lr}
 8001654:	2800      	cmp	r0, #0
 8001656:	d04b      	beq.n	80016f0 <HAL_DMAEx_List_Start_IT+0xa0>
 8001658:	6f42      	ldr	r2, [r0, #116]	@ 0x74
 800165a:	2a00      	cmp	r2, #0
 800165c:	d048      	beq.n	80016f0 <HAL_DMAEx_List_Start_IT+0xa0>
 800165e:	f890 1054 	ldrb.w	r1, [r0, #84]	@ 0x54
 8001662:	6804      	ldr	r4, [r0, #0]
 8001664:	2901      	cmp	r1, #1
 8001666:	6960      	ldr	r0, [r4, #20]
 8001668:	b2cd      	uxtb	r5, r1
 800166a:	d003      	beq.n	8001674 <HAL_DMAEx_List_Start_IT+0x24>
 800166c:	2d02      	cmp	r5, #2
 800166e:	d13a      	bne.n	80016e6 <HAL_DMAEx_List_Start_IT+0x96>
 8001670:	03c1      	lsls	r1, r0, #15
 8001672:	d538      	bpl.n	80016e6 <HAL_DMAEx_List_Start_IT+0x96>
 8001674:	f893 1054 	ldrb.w	r1, [r3, #84]	@ 0x54
 8001678:	2901      	cmp	r1, #1
 800167a:	b2cd      	uxtb	r5, r1
 800167c:	d12c      	bne.n	80016d8 <HAL_DMAEx_List_Start_IT+0x88>
 800167e:	f893 104c 	ldrb.w	r1, [r3, #76]	@ 0x4c
 8001682:	2002      	movs	r0, #2
 8001684:	2901      	cmp	r1, #1
 8001686:	d02c      	beq.n	80016e2 <HAL_DMAEx_List_Start_IT+0x92>
 8001688:	2100      	movs	r1, #0
 800168a:	f883 0054 	strb.w	r0, [r3, #84]	@ 0x54
 800168e:	f883 504c 	strb.w	r5, [r3, #76]	@ 0x4c
 8001692:	7310      	strb	r0, [r2, #12]
 8001694:	6599      	str	r1, [r3, #88]	@ 0x58
 8001696:	6111      	str	r1, [r2, #16]
 8001698:	6961      	ldr	r1, [r4, #20]
 800169a:	f441 41ba 	orr.w	r1, r1, #23808	@ 0x5d00
 800169e:	6161      	str	r1, [r4, #20]
 80016a0:	6e59      	ldr	r1, [r3, #100]	@ 0x64
 80016a2:	b119      	cbz	r1, 80016ac <HAL_DMAEx_List_Start_IT+0x5c>
 80016a4:	6961      	ldr	r1, [r4, #20]
 80016a6:	f441 7100 	orr.w	r1, r1, #512	@ 0x200
 80016aa:	6161      	str	r1, [r4, #20]
 80016ac:	6f1b      	ldr	r3, [r3, #112]	@ 0x70
 80016ae:	b11b      	cbz	r3, 80016b8 <HAL_DMAEx_List_Start_IT+0x68>
 80016b0:	6963      	ldr	r3, [r4, #20]
 80016b2:	f443 5300 	orr.w	r3, r3, #8192	@ 0x2000
 80016b6:	6163      	str	r3, [r4, #20]
 80016b8:	6815      	ldr	r5, [r2, #0]
 80016ba:	a901      	add	r1, sp, #4
 80016bc:	6a28      	ldr	r0, [r5, #32]
 80016be:	2200      	movs	r2, #0
 80016c0:	f7ff feba 	bl	8001438 <DMA_List_GetCLLRNodeInfo.isra.0>
 80016c4:	0c2b      	lsrs	r3, r5, #16
 80016c6:	041b      	lsls	r3, r3, #16
 80016c8:	f025 0503 	bic.w	r5, r5, #3
 80016cc:	6023      	str	r3, [r4, #0]
 80016ce:	042d      	lsls	r5, r5, #16
 80016d0:	9b01      	ldr	r3, [sp, #4]
 80016d2:	0c2d      	lsrs	r5, r5, #16
 80016d4:	431d      	orrs	r5, r3
 80016d6:	67e5      	str	r5, [r4, #124]	@ 0x7c
 80016d8:	2000      	movs	r0, #0
 80016da:	6963      	ldr	r3, [r4, #20]
 80016dc:	f043 0301 	orr.w	r3, r3, #1
 80016e0:	6163      	str	r3, [r4, #20]
 80016e2:	b003      	add	sp, #12
 80016e4:	bd30      	pop	{r4, r5, pc}
 80016e6:	2240      	movs	r2, #64	@ 0x40
 80016e8:	659a      	str	r2, [r3, #88]	@ 0x58
 80016ea:	2200      	movs	r2, #0
 80016ec:	f883 204c 	strb.w	r2, [r3, #76]	@ 0x4c
 80016f0:	2001      	movs	r0, #1
 80016f2:	e7f6      	b.n	80016e2 <HAL_DMAEx_List_Start_IT+0x92>

080016f4 <HAL_DMAEx_List_BuildNode>:
 80016f4:	b5f0      	push	{r4, r5, r6, r7, lr}
 80016f6:	2800      	cmp	r0, #0
 80016f8:	f000 8091 	beq.w	800181e <HAL_DMAEx_List_BuildNode+0x12a>
 80016fc:	2900      	cmp	r1, #0
 80016fe:	f000 808e 	beq.w	800181e <HAL_DMAEx_List_BuildNode+0x12a>
 8001702:	69c3      	ldr	r3, [r0, #28]
 8001704:	6945      	ldr	r5, [r0, #20]
 8001706:	6802      	ldr	r2, [r0, #0]
 8001708:	431d      	orrs	r5, r3
 800170a:	6bc3      	ldr	r3, [r0, #60]	@ 0x3c
 800170c:	f012 0420 	ands.w	r4, r2, #32
 8001710:	ea45 0503 	orr.w	r5, r5, r3
 8001714:	6903      	ldr	r3, [r0, #16]
 8001716:	ea45 0503 	orr.w	r5, r5, r3
 800171a:	6983      	ldr	r3, [r0, #24]
 800171c:	ea45 0503 	orr.w	r5, r5, r3
 8001720:	600d      	str	r5, [r1, #0]
 8001722:	d010      	beq.n	8001746 <HAL_DMAEx_List_BuildNode+0x52>
 8001724:	6a83      	ldr	r3, [r0, #40]	@ 0x28
 8001726:	6ac6      	ldr	r6, [r0, #44]	@ 0x2c
 8001728:	6b87      	ldr	r7, [r0, #56]	@ 0x38
 800172a:	3b01      	subs	r3, #1
 800172c:	051b      	lsls	r3, r3, #20
 800172e:	433e      	orrs	r6, r7
 8001730:	f003 737c 	and.w	r3, r3, #66060288	@ 0x3f00000
 8001734:	4333      	orrs	r3, r6
 8001736:	6a46      	ldr	r6, [r0, #36]	@ 0x24
 8001738:	3e01      	subs	r6, #1
 800173a:	0136      	lsls	r6, r6, #4
 800173c:	f406 767c 	and.w	r6, r6, #1008	@ 0x3f0
 8001740:	4333      	orrs	r3, r6
 8001742:	432b      	orrs	r3, r5
 8001744:	600b      	str	r3, [r1, #0]
 8001746:	6843      	ldr	r3, [r0, #4]
 8001748:	6b05      	ldr	r5, [r0, #48]	@ 0x30
 800174a:	f423 73c0 	bic.w	r3, r3, #384	@ 0x180
 800174e:	059b      	lsls	r3, r3, #22
 8001750:	0d9b      	lsrs	r3, r3, #22
 8001752:	432b      	orrs	r3, r5
 8001754:	68c5      	ldr	r5, [r0, #12]
 8001756:	604b      	str	r3, [r1, #4]
 8001758:	f5b5 6f80 	cmp.w	r5, #1024	@ 0x400
 800175c:	d13b      	bne.n	80017d6 <HAL_DMAEx_List_BuildNode+0xe2>
 800175e:	b114      	cbz	r4, 8001766 <HAL_DMAEx_List_BuildNode+0x72>
 8001760:	f443 6380 	orr.w	r3, r3, #1024	@ 0x400
 8001764:	604b      	str	r3, [r1, #4]
 8001766:	6c43      	ldr	r3, [r0, #68]	@ 0x44
 8001768:	b14b      	cbz	r3, 800177e <HAL_DMAEx_List_BuildNode+0x8a>
 800176a:	6c04      	ldr	r4, [r0, #64]	@ 0x40
 800176c:	4323      	orrs	r3, r4
 800176e:	684c      	ldr	r4, [r1, #4]
 8001770:	4323      	orrs	r3, r4
 8001772:	6c84      	ldr	r4, [r0, #72]	@ 0x48
 8001774:	0424      	lsls	r4, r4, #16
 8001776:	f404 147c 	and.w	r4, r4, #4128768	@ 0x3f0000
 800177a:	4323      	orrs	r3, r4
 800177c:	604b      	str	r3, [r1, #4]
 800177e:	f8b0 5068 	ldrh.w	r5, [r0, #104]	@ 0x68
 8001782:	f012 0602 	ands.w	r6, r2, #2
 8001786:	608d      	str	r5, [r1, #8]
 8001788:	d01b      	beq.n	80017c2 <HAL_DMAEx_List_BuildNode+0xce>
 800178a:	6cc3      	ldr	r3, [r0, #76]	@ 0x4c
 800178c:	1e5c      	subs	r4, r3, #1
 800178e:	4b25      	ldr	r3, [pc, #148]	@ (8001824 <HAL_DMAEx_List_BuildNode+0x130>)
 8001790:	ea03 4304 	and.w	r3, r3, r4, lsl #16
 8001794:	6d04      	ldr	r4, [r0, #80]	@ 0x50
 8001796:	432b      	orrs	r3, r5
 8001798:	2c00      	cmp	r4, #0
 800179a:	6d44      	ldr	r4, [r0, #84]	@ 0x54
 800179c:	bfb8      	it	lt
 800179e:	f043 5380 	orrlt.w	r3, r3, #268435456	@ 0x10000000
 80017a2:	2c00      	cmp	r4, #0
 80017a4:	6d84      	ldr	r4, [r0, #88]	@ 0x58
 80017a6:	bfb8      	it	lt
 80017a8:	f043 5300 	orrlt.w	r3, r3, #536870912	@ 0x20000000
 80017ac:	2c00      	cmp	r4, #0
 80017ae:	6dc4      	ldr	r4, [r0, #92]	@ 0x5c
 80017b0:	bfb8      	it	lt
 80017b2:	f043 4380 	orrlt.w	r3, r3, #1073741824	@ 0x40000000
 80017b6:	2c00      	cmp	r4, #0
 80017b8:	608b      	str	r3, [r1, #8]
 80017ba:	bfbc      	itt	lt
 80017bc:	f043 4300 	orrlt.w	r3, r3, #2147483648	@ 0x80000000
 80017c0:	608b      	strlt	r3, [r1, #8]
 80017c2:	6e03      	ldr	r3, [r0, #96]	@ 0x60
 80017c4:	60cb      	str	r3, [r1, #12]
 80017c6:	6e43      	ldr	r3, [r0, #100]	@ 0x64
 80017c8:	610b      	str	r3, [r1, #16]
 80017ca:	b956      	cbnz	r6, 80017e2 <HAL_DMAEx_List_BuildNode+0xee>
 80017cc:	f442 62a0 	orr.w	r2, r2, #1280	@ 0x500
 80017d0:	2000      	movs	r0, #0
 80017d2:	620a      	str	r2, [r1, #32]
 80017d4:	bdf0      	pop	{r4, r5, r6, r7, pc}
 80017d6:	f5b5 7f00 	cmp.w	r5, #512	@ 0x200
 80017da:	d1c4      	bne.n	8001766 <HAL_DMAEx_List_BuildNode+0x72>
 80017dc:	f443 7300 	orr.w	r3, r3, #512	@ 0x200
 80017e0:	e7c0      	b.n	8001764 <HAL_DMAEx_List_BuildNode+0x70>
 80017e2:	6d03      	ldr	r3, [r0, #80]	@ 0x50
 80017e4:	6d45      	ldr	r5, [r0, #84]	@ 0x54
 80017e6:	2b00      	cmp	r3, #0
 80017e8:	bfb8      	it	lt
 80017ea:	425b      	neglt	r3, r3
 80017ec:	4c0e      	ldr	r4, [pc, #56]	@ (8001828 <HAL_DMAEx_List_BuildNode+0x134>)
 80017ee:	2d00      	cmp	r5, #0
 80017f0:	bfb8      	it	lt
 80017f2:	426d      	neglt	r5, r5
 80017f4:	f3c3 030c 	ubfx	r3, r3, #0, #13
 80017f8:	ea04 4405 	and.w	r4, r4, r5, lsl #16
 80017fc:	4323      	orrs	r3, r4
 80017fe:	614b      	str	r3, [r1, #20]
 8001800:	6d83      	ldr	r3, [r0, #88]	@ 0x58
 8001802:	6dc0      	ldr	r0, [r0, #92]	@ 0x5c
 8001804:	2b00      	cmp	r3, #0
 8001806:	bfb8      	it	lt
 8001808:	425b      	neglt	r3, r3
 800180a:	2800      	cmp	r0, #0
 800180c:	b29b      	uxth	r3, r3
 800180e:	bfb8      	it	lt
 8001810:	4240      	neglt	r0, r0
 8001812:	ea43 4300 	orr.w	r3, r3, r0, lsl #16
 8001816:	618b      	str	r3, [r1, #24]
 8001818:	f442 62e0 	orr.w	r2, r2, #1792	@ 0x700
 800181c:	e7d8      	b.n	80017d0 <HAL_DMAEx_List_BuildNode+0xdc>
 800181e:	2001      	movs	r0, #1
 8001820:	e7d8      	b.n	80017d4 <HAL_DMAEx_List_BuildNode+0xe0>
 8001822:	bf00      	nop
 8001824:	07ff0000 	.word	0x07ff0000
 8001828:	1fff0000 	.word	0x1fff0000

0800182c <HAL_DMAEx_List_InsertNode>:
 800182c:	e92d 41f0 	stmdb	sp!, {r4, r5, r6, r7, r8, lr}
 8001830:	460e      	mov	r6, r1
 8001832:	4615      	mov	r5, r2
 8001834:	4604      	mov	r4, r0
 8001836:	b088      	sub	sp, #32
 8001838:	b128      	cbz	r0, 8001846 <HAL_DMAEx_List_InsertNode+0x1a>
 800183a:	b122      	cbz	r2, 8001846 <HAL_DMAEx_List_InsertNode+0x1a>
 800183c:	6943      	ldr	r3, [r0, #20]
 800183e:	2b01      	cmp	r3, #1
 8001840:	d105      	bne.n	800184e <HAL_DMAEx_List_InsertNode+0x22>
 8001842:	2304      	movs	r3, #4
 8001844:	6123      	str	r3, [r4, #16]
 8001846:	2001      	movs	r0, #1
 8001848:	b008      	add	sp, #32
 800184a:	e8bd 81f0 	ldmia.w	sp!, {r4, r5, r6, r7, r8, pc}
 800184e:	f8d0 8000 	ldr.w	r8, [r0]
 8001852:	4640      	mov	r0, r8
 8001854:	f7ff fd6f 	bl	8001336 <DMA_List_CheckNodesBaseAddresses>
 8001858:	b108      	cbz	r0, 800185e <HAL_DMAEx_List_InsertNode+0x32>
 800185a:	2305      	movs	r3, #5
 800185c:	e7f2      	b.n	8001844 <HAL_DMAEx_List_InsertNode+0x18>
 800185e:	4640      	mov	r0, r8
 8001860:	f7ff fd7a 	bl	8001358 <DMA_List_CheckNodesTypes>
 8001864:	2800      	cmp	r0, #0
 8001866:	d1ec      	bne.n	8001842 <HAL_DMAEx_List_InsertNode+0x16>
 8001868:	2702      	movs	r7, #2
 800186a:	7327      	strb	r7, [r4, #12]
 800186c:	6120      	str	r0, [r4, #16]
 800186e:	6a28      	ldr	r0, [r5, #32]
 8001870:	aa02      	add	r2, sp, #8
 8001872:	a901      	add	r1, sp, #4
 8001874:	f7ff fde0 	bl	8001438 <DMA_List_GetCLLRNodeInfo.isra.0>
 8001878:	f1b8 0f00 	cmp.w	r8, #0
 800187c:	d113      	bne.n	80018a6 <HAL_DMAEx_List_InsertNode+0x7a>
 800187e:	b93e      	cbnz	r6, 8001890 <HAL_DMAEx_List_InsertNode+0x64>
 8001880:	2701      	movs	r7, #1
 8001882:	6025      	str	r5, [r4, #0]
 8001884:	2000      	movs	r0, #0
 8001886:	2301      	movs	r3, #1
 8001888:	6120      	str	r0, [r4, #16]
 800188a:	60a7      	str	r7, [r4, #8]
 800188c:	7323      	strb	r3, [r4, #12]
 800188e:	e7db      	b.n	8001848 <HAL_DMAEx_List_InsertNode+0x1c>
 8001890:	f025 0503 	bic.w	r5, r5, #3
 8001894:	9b01      	ldr	r3, [sp, #4]
 8001896:	042d      	lsls	r5, r5, #16
 8001898:	0c2d      	lsrs	r5, r5, #16
 800189a:	431d      	orrs	r5, r3
 800189c:	9b02      	ldr	r3, [sp, #8]
 800189e:	6026      	str	r6, [r4, #0]
 80018a0:	f846 5023 	str.w	r5, [r6, r3, lsl #2]
 80018a4:	e7ee      	b.n	8001884 <HAL_DMAEx_List_InsertNode+0x58>
 80018a6:	9f02      	ldr	r7, [sp, #8]
 80018a8:	b976      	cbnz	r6, 80018c8 <HAL_DMAEx_List_InsertNode+0x9c>
 80018aa:	f028 0803 	bic.w	r8, r8, #3
 80018ae:	9b01      	ldr	r3, [sp, #4]
 80018b0:	ea4f 4808 	mov.w	r8, r8, lsl #16
 80018b4:	ea4f 4818 	mov.w	r8, r8, lsr #16
 80018b8:	ea48 0303 	orr.w	r3, r8, r3
 80018bc:	f845 3027 	str.w	r3, [r5, r7, lsl #2]
 80018c0:	6025      	str	r5, [r4, #0]
 80018c2:	68a3      	ldr	r3, [r4, #8]
 80018c4:	1c5f      	adds	r7, r3, #1
 80018c6:	e7dd      	b.n	8001884 <HAL_DMAEx_List_InsertNode+0x58>
 80018c8:	4631      	mov	r1, r6
 80018ca:	4620      	mov	r0, r4
 80018cc:	aa03      	add	r2, sp, #12
 80018ce:	9703      	str	r7, [sp, #12]
 80018d0:	f7ff fd5c 	bl	800138c <DMA_List_FindNode>
 80018d4:	b9b8      	cbnz	r0, 8001906 <HAL_DMAEx_List_InsertNode+0xda>
 80018d6:	f64f 7cfc 	movw	ip, #65532	@ 0xfffc
 80018da:	68a3      	ldr	r3, [r4, #8]
 80018dc:	9805      	ldr	r0, [sp, #20]
 80018de:	9901      	ldr	r1, [sp, #4]
 80018e0:	ea05 020c 	and.w	r2, r5, ip
 80018e4:	4298      	cmp	r0, r3
 80018e6:	ea42 0201 	orr.w	r2, r2, r1
 80018ea:	d109      	bne.n	8001900 <HAL_DMAEx_List_InsertNode+0xd4>
 80018ec:	6863      	ldr	r3, [r4, #4]
 80018ee:	b123      	cbz	r3, 80018fa <HAL_DMAEx_List_InsertNode+0xce>
 80018f0:	ea03 030c 	and.w	r3, r3, ip
 80018f4:	430b      	orrs	r3, r1
 80018f6:	f845 3027 	str.w	r3, [r5, r7, lsl #2]
 80018fa:	f846 2027 	str.w	r2, [r6, r7, lsl #2]
 80018fe:	e7e0      	b.n	80018c2 <HAL_DMAEx_List_InsertNode+0x96>
 8001900:	f856 3027 	ldr.w	r3, [r6, r7, lsl #2]
 8001904:	e7f7      	b.n	80018f6 <HAL_DMAEx_List_InsertNode+0xca>
 8001906:	2306      	movs	r3, #6
 8001908:	e79c      	b.n	8001844 <HAL_DMAEx_List_InsertNode+0x18>

0800190a <HAL_DMAEx_List_SetCircularMode>:
 800190a:	b5f0      	push	{r4, r5, r6, r7, lr}
 800190c:	4604      	mov	r4, r0
 800190e:	b089      	sub	sp, #36	@ 0x24
 8001910:	b118      	cbz	r0, 800191a <HAL_DMAEx_List_SetCircularMode+0x10>
 8001912:	6806      	ldr	r6, [r0, #0]
 8001914:	b926      	cbnz	r6, 8001920 <HAL_DMAEx_List_SetCircularMode+0x16>
 8001916:	2302      	movs	r3, #2
 8001918:	6123      	str	r3, [r4, #16]
 800191a:	2001      	movs	r0, #1
 800191c:	b009      	add	sp, #36	@ 0x24
 800191e:	bdf0      	pop	{r4, r5, r6, r7, pc}
 8001920:	6845      	ldr	r5, [r0, #4]
 8001922:	b11d      	cbz	r5, 800192c <HAL_DMAEx_List_SetCircularMode+0x22>
 8001924:	42ae      	cmp	r6, r5
 8001926:	d01f      	beq.n	8001968 <HAL_DMAEx_List_SetCircularMode+0x5e>
 8001928:	2304      	movs	r3, #4
 800192a:	e7f5      	b.n	8001918 <HAL_DMAEx_List_SetCircularMode+0xe>
 800192c:	6943      	ldr	r3, [r0, #20]
 800192e:	2b01      	cmp	r3, #1
 8001930:	d0fa      	beq.n	8001928 <HAL_DMAEx_List_SetCircularMode+0x1e>
 8001932:	2302      	movs	r3, #2
 8001934:	7303      	strb	r3, [r0, #12]
 8001936:	6105      	str	r5, [r0, #16]
 8001938:	6a30      	ldr	r0, [r6, #32]
 800193a:	aa02      	add	r2, sp, #8
 800193c:	a901      	add	r1, sp, #4
 800193e:	f7ff fd7b 	bl	8001438 <DMA_List_GetCLLRNodeInfo.isra.0>
 8001942:	9f02      	ldr	r7, [sp, #8]
 8001944:	aa03      	add	r2, sp, #12
 8001946:	4629      	mov	r1, r5
 8001948:	4620      	mov	r0, r4
 800194a:	9703      	str	r7, [sp, #12]
 800194c:	f7ff fd1e 	bl	800138c <DMA_List_FindNode>
 8001950:	f64f 73fc 	movw	r3, #65532	@ 0xfffc
 8001954:	9a01      	ldr	r2, [sp, #4]
 8001956:	4033      	ands	r3, r6
 8001958:	4313      	orrs	r3, r2
 800195a:	9a06      	ldr	r2, [sp, #24]
 800195c:	f842 3027 	str.w	r3, [r2, r7, lsl #2]
 8001960:	2301      	movs	r3, #1
 8001962:	6125      	str	r5, [r4, #16]
 8001964:	6066      	str	r6, [r4, #4]
 8001966:	7323      	strb	r3, [r4, #12]
 8001968:	2000      	movs	r0, #0
 800196a:	e7d7      	b.n	800191c <HAL_DMAEx_List_SetCircularMode+0x12>

0800196c <HAL_DMAEx_List_LinkQ>:
 800196c:	b170      	cbz	r0, 800198c <HAL_DMAEx_List_LinkQ+0x20>
 800196e:	b169      	cbz	r1, 800198c <HAL_DMAEx_List_LinkQ+0x20>
 8001970:	f890 3054 	ldrb.w	r3, [r0, #84]	@ 0x54
 8001974:	f890 2054 	ldrb.w	r2, [r0, #84]	@ 0x54
 8001978:	b2db      	uxtb	r3, r3
 800197a:	2a02      	cmp	r2, #2
 800197c:	d001      	beq.n	8001982 <HAL_DMAEx_List_LinkQ+0x16>
 800197e:	2b05      	cmp	r3, #5
 8001980:	d106      	bne.n	8001990 <HAL_DMAEx_List_LinkQ+0x24>
 8001982:	2340      	movs	r3, #64	@ 0x40
 8001984:	6583      	str	r3, [r0, #88]	@ 0x58
 8001986:	2300      	movs	r3, #0
 8001988:	f880 304c 	strb.w	r3, [r0, #76]	@ 0x4c
 800198c:	2001      	movs	r0, #1
 800198e:	4770      	bx	lr
 8001990:	7b0b      	ldrb	r3, [r1, #12]
 8001992:	2b02      	cmp	r3, #2
 8001994:	d102      	bne.n	800199c <HAL_DMAEx_List_LinkQ+0x30>
 8001996:	2301      	movs	r3, #1
 8001998:	610b      	str	r3, [r1, #16]
 800199a:	e7f7      	b.n	800198c <HAL_DMAEx_List_LinkQ+0x20>
 800199c:	6803      	ldr	r3, [r0, #0]
 800199e:	4a1a      	ldr	r2, [pc, #104]	@ (8001a08 <HAL_DMAEx_List_LinkQ+0x9c>)
 80019a0:	4293      	cmp	r3, r2
 80019a2:	d024      	beq.n	80019ee <HAL_DMAEx_List_LinkQ+0x82>
 80019a4:	f102 5280 	add.w	r2, r2, #268435456	@ 0x10000000
 80019a8:	4293      	cmp	r3, r2
 80019aa:	d020      	beq.n	80019ee <HAL_DMAEx_List_LinkQ+0x82>
 80019ac:	f102 4270 	add.w	r2, r2, #4026531840	@ 0xf0000000
 80019b0:	3280      	adds	r2, #128	@ 0x80
 80019b2:	4293      	cmp	r3, r2
 80019b4:	d01b      	beq.n	80019ee <HAL_DMAEx_List_LinkQ+0x82>
 80019b6:	f102 5280 	add.w	r2, r2, #268435456	@ 0x10000000
 80019ba:	4293      	cmp	r3, r2
 80019bc:	d017      	beq.n	80019ee <HAL_DMAEx_List_LinkQ+0x82>
 80019be:	f102 4270 	add.w	r2, r2, #4026531840	@ 0xf0000000
 80019c2:	3280      	adds	r2, #128	@ 0x80
 80019c4:	4293      	cmp	r3, r2
 80019c6:	d012      	beq.n	80019ee <HAL_DMAEx_List_LinkQ+0x82>
 80019c8:	f102 5280 	add.w	r2, r2, #268435456	@ 0x10000000
 80019cc:	4293      	cmp	r3, r2
 80019ce:	d00e      	beq.n	80019ee <HAL_DMAEx_List_LinkQ+0x82>
 80019d0:	f102 4270 	add.w	r2, r2, #4026531840	@ 0xf0000000
 80019d4:	3280      	adds	r2, #128	@ 0x80
 80019d6:	4293      	cmp	r3, r2
 80019d8:	d009      	beq.n	80019ee <HAL_DMAEx_List_LinkQ+0x82>
 80019da:	f102 5280 	add.w	r2, r2, #268435456	@ 0x10000000
 80019de:	4293      	cmp	r3, r2
 80019e0:	d005      	beq.n	80019ee <HAL_DMAEx_List_LinkQ+0x82>
 80019e2:	680b      	ldr	r3, [r1, #0]
 80019e4:	6a1b      	ldr	r3, [r3, #32]
 80019e6:	079b      	lsls	r3, r3, #30
 80019e8:	d501      	bpl.n	80019ee <HAL_DMAEx_List_LinkQ+0x82>
 80019ea:	2303      	movs	r3, #3
 80019ec:	e7d4      	b.n	8001998 <HAL_DMAEx_List_LinkQ+0x2c>
 80019ee:	6d02      	ldr	r2, [r0, #80]	@ 0x50
 80019f0:	684b      	ldr	r3, [r1, #4]
 80019f2:	2a81      	cmp	r2, #129	@ 0x81
 80019f4:	d102      	bne.n	80019fc <HAL_DMAEx_List_LinkQ+0x90>
 80019f6:	b91b      	cbnz	r3, 8001a00 <HAL_DMAEx_List_LinkQ+0x94>
 80019f8:	2304      	movs	r3, #4
 80019fa:	e7cd      	b.n	8001998 <HAL_DMAEx_List_LinkQ+0x2c>
 80019fc:	2b00      	cmp	r3, #0
 80019fe:	d1fb      	bne.n	80019f8 <HAL_DMAEx_List_LinkQ+0x8c>
 8001a00:	6741      	str	r1, [r0, #116]	@ 0x74
 8001a02:	2000      	movs	r0, #0
 8001a04:	4770      	bx	lr
 8001a06:	bf00      	nop
 8001a08:	40020650 	.word	0x40020650

08001a0c <HAL_GPIO_Init>:
 8001a0c:	e92d 4ff0 	stmdb	sp!, {r4, r5, r6, r7, r8, r9, sl, fp, lr}
 8001a10:	4b7f      	ldr	r3, [pc, #508]	@ (8001c10 <HAL_GPIO_Init+0x204>)
 8001a12:	b085      	sub	sp, #20
 8001a14:	ea03 2390 	and.w	r3, r3, r0, lsr #10
 8001a18:	9303      	str	r3, [sp, #12]
 8001a1a:	4b7e      	ldr	r3, [pc, #504]	@ (8001c14 <HAL_GPIO_Init+0x208>)
 8001a1c:	2200      	movs	r2, #0
 8001a1e:	9302      	str	r3, [sp, #8]
 8001a20:	4603      	mov	r3, r0
 8001a22:	4f7d      	ldr	r7, [pc, #500]	@ (8001c18 <HAL_GPIO_Init+0x20c>)
 8001a24:	9101      	str	r1, [sp, #4]
 8001a26:	9901      	ldr	r1, [sp, #4]
 8001a28:	680d      	ldr	r5, [r1, #0]
 8001a2a:	fa35 f402 	lsrs.w	r4, r5, r2
 8001a2e:	d102      	bne.n	8001a36 <HAL_GPIO_Init+0x2a>
 8001a30:	b005      	add	sp, #20
 8001a32:	e8bd 8ff0 	ldmia.w	sp!, {r4, r5, r6, r7, r8, r9, sl, fp, pc}
 8001a36:	2101      	movs	r1, #1
 8001a38:	fa01 fe02 	lsl.w	lr, r1, r2
 8001a3c:	ea1e 0505 	ands.w	r5, lr, r5
 8001a40:	f000 808b 	beq.w	8001b5a <HAL_GPIO_Init+0x14e>
 8001a44:	9901      	ldr	r1, [sp, #4]
 8001a46:	684c      	ldr	r4, [r1, #4]
 8001a48:	4974      	ldr	r1, [pc, #464]	@ (8001c1c <HAL_GPIO_Init+0x210>)
 8001a4a:	f024 0610 	bic.w	r6, r4, #16
 8001a4e:	4288      	cmp	r0, r1
 8001a50:	f040 8088 	bne.w	8001b64 <HAL_GPIO_Init+0x158>
 8001a54:	6803      	ldr	r3, [r0, #0]
 8001a56:	9902      	ldr	r1, [sp, #8]
 8001a58:	ea23 0c0e 	bic.w	ip, r3, lr
 8001a5c:	f004 0301 	and.w	r3, r4, #1
 8001a60:	4093      	lsls	r3, r2
 8001a62:	ea43 030c 	orr.w	r3, r3, ip
 8001a66:	6003      	str	r3, [r0, #0]
 8001a68:	f8d1 c004 	ldr.w	ip, [r1, #4]
 8001a6c:	210f      	movs	r1, #15
 8001a6e:	f00c 0e07 	and.w	lr, ip, #7
 8001a72:	ea4f 0e8e 	mov.w	lr, lr, lsl #2
 8001a76:	fa01 f90e 	lsl.w	r9, r1, lr
 8001a7a:	210b      	movs	r1, #11
 8001a7c:	fa01 fe0e 	lsl.w	lr, r1, lr
 8001a80:	2103      	movs	r1, #3
 8001a82:	9b02      	ldr	r3, [sp, #8]
 8001a84:	ea4f 08dc 	mov.w	r8, ip, lsr #3
 8001a88:	681b      	ldr	r3, [r3, #0]
 8001a8a:	eb03 0888 	add.w	r8, r3, r8, lsl #2
 8001a8e:	f8d8 a020 	ldr.w	sl, [r8, #32]
 8001a92:	ea2a 0909 	bic.w	r9, sl, r9
 8001a96:	ea4e 0e09 	orr.w	lr, lr, r9
 8001a9a:	f8c8 e020 	str.w	lr, [r8, #32]
 8001a9e:	ea4f 0e4c 	mov.w	lr, ip, lsl #1
 8001aa2:	fa01 f90e 	lsl.w	r9, r1, lr
 8001aa6:	2102      	movs	r1, #2
 8001aa8:	f8d3 8000 	ldr.w	r8, [r3]
 8001aac:	fa01 fe0e 	lsl.w	lr, r1, lr
 8001ab0:	ea28 0809 	bic.w	r8, r8, r9
 8001ab4:	ea4e 0e08 	orr.w	lr, lr, r8
 8001ab8:	f8c3 e000 	str.w	lr, [r3]
 8001abc:	3e01      	subs	r6, #1
 8001abe:	2e01      	cmp	r6, #1
 8001ac0:	d97c      	bls.n	8001bbc <HAL_GPIO_Init+0x1b0>
 8001ac2:	2c03      	cmp	r4, #3
 8001ac4:	d049      	beq.n	8001b5a <HAL_GPIO_Init+0x14e>
 8001ac6:	2103      	movs	r1, #3
 8001ac8:	ea4f 0c4c 	mov.w	ip, ip, lsl #1
 8001acc:	68de      	ldr	r6, [r3, #12]
 8001ace:	fa01 fe0c 	lsl.w	lr, r1, ip
 8001ad2:	9901      	ldr	r1, [sp, #4]
 8001ad4:	ea26 0e0e 	bic.w	lr, r6, lr
 8001ad8:	688e      	ldr	r6, [r1, #8]
 8001ada:	fa06 f60c 	lsl.w	r6, r6, ip
 8001ade:	ea46 060e 	orr.w	r6, r6, lr
 8001ae2:	60de      	str	r6, [r3, #12]
 8001ae4:	00e6      	lsls	r6, r4, #3
 8001ae6:	d538      	bpl.n	8001b5a <HAL_GPIO_Init+0x14e>
 8001ae8:	210f      	movs	r1, #15
 8001aea:	f022 0c03 	bic.w	ip, r2, #3
 8001aee:	f10c 4c8c 	add.w	ip, ip, #1174405120	@ 0x46000000
 8001af2:	f002 0603 	and.w	r6, r2, #3
 8001af6:	f50c 3c08 	add.w	ip, ip, #139264	@ 0x22000
 8001afa:	00f6      	lsls	r6, r6, #3
 8001afc:	f8dc 8060 	ldr.w	r8, [ip, #96]	@ 0x60
 8001b00:	fa01 fe06 	lsl.w	lr, r1, r6
 8001b04:	9903      	ldr	r1, [sp, #12]
 8001b06:	ea28 0e0e 	bic.w	lr, r8, lr
 8001b0a:	fa01 f606 	lsl.w	r6, r1, r6
 8001b0e:	ea46 060e 	orr.w	r6, r6, lr
 8001b12:	f8cc 6060 	str.w	r6, [ip, #96]	@ 0x60
 8001b16:	ea6f 0c05 	mvn.w	ip, r5
 8001b1a:	683e      	ldr	r6, [r7, #0]
 8001b1c:	02e1      	lsls	r1, r4, #11
 8001b1e:	bf54      	ite	pl
 8001b20:	ea0c 0606 	andpl.w	r6, ip, r6
 8001b24:	432e      	orrmi	r6, r5
 8001b26:	603e      	str	r6, [r7, #0]
 8001b28:	687e      	ldr	r6, [r7, #4]
 8001b2a:	02a1      	lsls	r1, r4, #10
 8001b2c:	bf54      	ite	pl
 8001b2e:	ea0c 0606 	andpl.w	r6, ip, r6
 8001b32:	432e      	orrmi	r6, r5
 8001b34:	607e      	str	r6, [r7, #4]
 8001b36:	f8d7 6084 	ldr.w	r6, [r7, #132]	@ 0x84
 8001b3a:	03a1      	lsls	r1, r4, #14
 8001b3c:	bf54      	ite	pl
 8001b3e:	ea0c 0606 	andpl.w	r6, ip, r6
 8001b42:	432e      	orrmi	r6, r5
 8001b44:	f8c7 6084 	str.w	r6, [r7, #132]	@ 0x84
 8001b48:	f8d7 6080 	ldr.w	r6, [r7, #128]	@ 0x80
 8001b4c:	03e1      	lsls	r1, r4, #15
 8001b4e:	bf54      	ite	pl
 8001b50:	ea0c 0606 	andpl.w	r6, ip, r6
 8001b54:	432e      	orrmi	r6, r5
 8001b56:	f8c7 6080 	str.w	r6, [r7, #128]	@ 0x80
 8001b5a:	9c02      	ldr	r4, [sp, #8]
 8001b5c:	3201      	adds	r2, #1
 8001b5e:	3408      	adds	r4, #8
 8001b60:	9402      	str	r4, [sp, #8]
 8001b62:	e760      	b.n	8001a26 <HAL_GPIO_Init+0x1a>
 8001b64:	2103      	movs	r1, #3
 8001b66:	ea4f 0942 	mov.w	r9, r2, lsl #1
 8001b6a:	fa01 fc09 	lsl.w	ip, r1, r9
 8001b6e:	2e02      	cmp	r6, #2
 8001b70:	ea6f 0c0c 	mvn.w	ip, ip
 8001b74:	d13e      	bne.n	8001bf4 <HAL_GPIO_Init+0x1e8>
 8001b76:	fa22 fe01 	lsr.w	lr, r2, r1
 8001b7a:	210f      	movs	r1, #15
 8001b7c:	f002 0807 	and.w	r8, r2, #7
 8001b80:	ea4f 0888 	mov.w	r8, r8, lsl #2
 8001b84:	fa01 fb08 	lsl.w	fp, r1, r8
 8001b88:	9901      	ldr	r1, [sp, #4]
 8001b8a:	eb00 0e8e 	add.w	lr, r0, lr, lsl #2
 8001b8e:	f8de a020 	ldr.w	sl, [lr, #32]
 8001b92:	6909      	ldr	r1, [r1, #16]
 8001b94:	ea2a 0a0b 	bic.w	sl, sl, fp
 8001b98:	f001 0b0f 	and.w	fp, r1, #15
 8001b9c:	fa0b fb08 	lsl.w	fp, fp, r8
 8001ba0:	ea4b 0b0a 	orr.w	fp, fp, sl
 8001ba4:	f8ce b020 	str.w	fp, [lr, #32]
 8001ba8:	f8d3 e000 	ldr.w	lr, [r3]
 8001bac:	fa06 f609 	lsl.w	r6, r6, r9
 8001bb0:	ea0e 0e0c 	and.w	lr, lr, ip
 8001bb4:	4694      	mov	ip, r2
 8001bb6:	ea46 060e 	orr.w	r6, r6, lr
 8001bba:	601e      	str	r6, [r3, #0]
 8001bbc:	2103      	movs	r1, #3
 8001bbe:	ea4f 084c 	mov.w	r8, ip, lsl #1
 8001bc2:	689e      	ldr	r6, [r3, #8]
 8001bc4:	fa01 fe08 	lsl.w	lr, r1, r8
 8001bc8:	9901      	ldr	r1, [sp, #4]
 8001bca:	ea26 0e0e 	bic.w	lr, r6, lr
 8001bce:	68ce      	ldr	r6, [r1, #12]
 8001bd0:	2101      	movs	r1, #1
 8001bd2:	fa06 f608 	lsl.w	r6, r6, r8
 8001bd6:	ea46 060e 	orr.w	r6, r6, lr
 8001bda:	609e      	str	r6, [r3, #8]
 8001bdc:	685e      	ldr	r6, [r3, #4]
 8001bde:	fa01 fe0c 	lsl.w	lr, r1, ip
 8001be2:	ea26 0e0e 	bic.w	lr, r6, lr
 8001be6:	0926      	lsrs	r6, r4, #4
 8001be8:	fa06 f60c 	lsl.w	r6, r6, ip
 8001bec:	ea46 060e 	orr.w	r6, r6, lr
 8001bf0:	605e      	str	r6, [r3, #4]
 8001bf2:	e768      	b.n	8001ac6 <HAL_GPIO_Init+0xba>
 8001bf4:	f8d3 e000 	ldr.w	lr, [r3]
 8001bf8:	ea0e 0e0c 	and.w	lr, lr, ip
 8001bfc:	f004 0c03 	and.w	ip, r4, #3
 8001c00:	fa0c fc09 	lsl.w	ip, ip, r9
 8001c04:	ea4c 0c0e 	orr.w	ip, ip, lr
 8001c08:	f8c3 c000 	str.w	ip, [r3]
 8001c0c:	4694      	mov	ip, r2
 8001c0e:	e755      	b.n	8001abc <HAL_GPIO_Init+0xb0>
 8001c10:	002f7f7f 	.word	0x002f7f7f
 8001c14:	08004a04 	.word	0x08004a04
 8001c18:	46022000 	.word	0x46022000
 8001c1c:	46020000 	.word	0x46020000

08001c20 <HAL_ICACHE_Enable>:
 8001c20:	4a03      	ldr	r2, [pc, #12]	@ (8001c30 <HAL_ICACHE_Enable+0x10>)
 8001c22:	2000      	movs	r0, #0
 8001c24:	6813      	ldr	r3, [r2, #0]
 8001c26:	f043 0301 	orr.w	r3, r3, #1
 8001c2a:	6013      	str	r3, [r2, #0]
 8001c2c:	4770      	bx	lr
 8001c2e:	bf00      	nop
 8001c30:	40030400 	.word	0x40030400

08001c34 <HAL_PWREx_ControlVoltageScaling>:
 8001c34:	4b1d      	ldr	r3, [pc, #116]	@ (8001cac <HAL_PWREx_ControlVoltageScaling+0x78>)
 8001c36:	6bda      	ldr	r2, [r3, #60]	@ 0x3c
 8001c38:	f402 3240 	and.w	r2, r2, #196608	@ 0x30000
 8001c3c:	4282      	cmp	r2, r0
 8001c3e:	d108      	bne.n	8001c52 <HAL_PWREx_ControlVoltageScaling+0x1e>
 8001c40:	f5b2 3f80 	cmp.w	r2, #65536	@ 0x10000
 8001c44:	bf82      	ittt	hi
 8001c46:	68da      	ldrhi	r2, [r3, #12]
 8001c48:	f442 2280 	orrhi.w	r2, r2, #262144	@ 0x40000
 8001c4c:	60da      	strhi	r2, [r3, #12]
 8001c4e:	2000      	movs	r0, #0
 8001c50:	4770      	bx	lr
 8001c52:	68da      	ldr	r2, [r3, #12]
 8001c54:	f5b0 3f80 	cmp.w	r0, #65536	@ 0x10000
 8001c58:	f422 22e0 	bic.w	r2, r2, #458752	@ 0x70000
 8001c5c:	ea42 0200 	orr.w	r2, r2, r0
 8001c60:	bf88      	it	hi
 8001c62:	f442 2280 	orrhi.w	r2, r2, #262144	@ 0x40000
 8001c66:	60da      	str	r2, [r3, #12]
 8001c68:	f44f 727a 	mov.w	r2, #1000	@ 0x3e8
 8001c6c:	4b10      	ldr	r3, [pc, #64]	@ (8001cb0 <HAL_PWREx_ControlVoltageScaling+0x7c>)
 8001c6e:	2132      	movs	r1, #50	@ 0x32
 8001c70:	681b      	ldr	r3, [r3, #0]
 8001c72:	fbb3 f3f2 	udiv	r3, r3, r2
 8001c76:	434b      	muls	r3, r1
 8001c78:	fbb3 f3f2 	udiv	r3, r3, r2
 8001c7c:	3301      	adds	r3, #1
 8001c7e:	461a      	mov	r2, r3
 8001c80:	490a      	ldr	r1, [pc, #40]	@ (8001cac <HAL_PWREx_ControlVoltageScaling+0x78>)
 8001c82:	68c8      	ldr	r0, [r1, #12]
 8001c84:	0400      	lsls	r0, r0, #16
 8001c86:	d404      	bmi.n	8001c92 <HAL_PWREx_ControlVoltageScaling+0x5e>
 8001c88:	b90a      	cbnz	r2, 8001c8e <HAL_PWREx_ControlVoltageScaling+0x5a>
 8001c8a:	2003      	movs	r0, #3
 8001c8c:	4770      	bx	lr
 8001c8e:	3a01      	subs	r2, #1
 8001c90:	e7f7      	b.n	8001c82 <HAL_PWREx_ControlVoltageScaling+0x4e>
 8001c92:	2a00      	cmp	r2, #0
 8001c94:	d0f9      	beq.n	8001c8a <HAL_PWREx_ControlVoltageScaling+0x56>
 8001c96:	4a05      	ldr	r2, [pc, #20]	@ (8001cac <HAL_PWREx_ControlVoltageScaling+0x78>)
 8001c98:	6bd1      	ldr	r1, [r2, #60]	@ 0x3c
 8001c9a:	0409      	lsls	r1, r1, #16
 8001c9c:	d403      	bmi.n	8001ca6 <HAL_PWREx_ControlVoltageScaling+0x72>
 8001c9e:	2b00      	cmp	r3, #0
 8001ca0:	d0f3      	beq.n	8001c8a <HAL_PWREx_ControlVoltageScaling+0x56>
 8001ca2:	3b01      	subs	r3, #1
 8001ca4:	e7f8      	b.n	8001c98 <HAL_PWREx_ControlVoltageScaling+0x64>
 8001ca6:	2b00      	cmp	r3, #0
 8001ca8:	d1d1      	bne.n	8001c4e <HAL_PWREx_ControlVoltageScaling+0x1a>
 8001caa:	e7ee      	b.n	8001c8a <HAL_PWREx_ControlVoltageScaling+0x56>
 8001cac:	46020800 	.word	0x46020800
 8001cb0:	20000040 	.word	0x20000040

08001cb4 <HAL_PWREx_GetVoltageRange>:
 8001cb4:	4b02      	ldr	r3, [pc, #8]	@ (8001cc0 <HAL_PWREx_GetVoltageRange+0xc>)
 8001cb6:	6bd8      	ldr	r0, [r3, #60]	@ 0x3c
 8001cb8:	f400 3040 	and.w	r0, r0, #196608	@ 0x30000
 8001cbc:	4770      	bx	lr
 8001cbe:	bf00      	nop
 8001cc0:	46020800 	.word	0x46020800

08001cc4 <RCC_SetFlashLatencyFromMSIRange>:
 8001cc4:	b537      	push	{r0, r1, r2, r4, r5, lr}
 8001cc6:	4d2b      	ldr	r5, [pc, #172]	@ (8001d74 <RCC_SetFlashLatencyFromMSIRange+0xb0>)
 8001cc8:	4604      	mov	r4, r0
 8001cca:	f8d5 3094 	ldr.w	r3, [r5, #148]	@ 0x94
 8001cce:	075b      	lsls	r3, r3, #29
 8001cd0:	d518      	bpl.n	8001d04 <RCC_SetFlashLatencyFromMSIRange+0x40>
 8001cd2:	f7ff ffef 	bl	8001cb4 <HAL_PWREx_GetVoltageRange>
 8001cd6:	f420 3380 	bic.w	r3, r0, #65536	@ 0x10000
 8001cda:	f5b3 3f00 	cmp.w	r3, #131072	@ 0x20000
 8001cde:	d126      	bne.n	8001d2e <RCC_SetFlashLatencyFromMSIRange+0x6a>
 8001ce0:	f1b4 5f80 	cmp.w	r4, #268435456	@ 0x10000000
 8001ce4:	bf2c      	ite	cs
 8001ce6:	2000      	movcs	r0, #0
 8001ce8:	2001      	movcc	r0, #1
 8001cea:	4a23      	ldr	r2, [pc, #140]	@ (8001d78 <RCC_SetFlashLatencyFromMSIRange+0xb4>)
 8001cec:	6813      	ldr	r3, [r2, #0]
 8001cee:	f023 030f 	bic.w	r3, r3, #15
 8001cf2:	4303      	orrs	r3, r0
 8001cf4:	6013      	str	r3, [r2, #0]
 8001cf6:	6813      	ldr	r3, [r2, #0]
 8001cf8:	f003 030f 	and.w	r3, r3, #15
 8001cfc:	1a18      	subs	r0, r3, r0
 8001cfe:	bf18      	it	ne
 8001d00:	2001      	movne	r0, #1
 8001d02:	e01b      	b.n	8001d3c <RCC_SetFlashLatencyFromMSIRange+0x78>
 8001d04:	f8d5 3094 	ldr.w	r3, [r5, #148]	@ 0x94
 8001d08:	f043 0304 	orr.w	r3, r3, #4
 8001d0c:	f8c5 3094 	str.w	r3, [r5, #148]	@ 0x94
 8001d10:	f8d5 3094 	ldr.w	r3, [r5, #148]	@ 0x94
 8001d14:	f003 0304 	and.w	r3, r3, #4
 8001d18:	9301      	str	r3, [sp, #4]
 8001d1a:	9b01      	ldr	r3, [sp, #4]
 8001d1c:	f7ff ffca 	bl	8001cb4 <HAL_PWREx_GetVoltageRange>
 8001d20:	f8d5 3094 	ldr.w	r3, [r5, #148]	@ 0x94
 8001d24:	f023 0304 	bic.w	r3, r3, #4
 8001d28:	f8c5 3094 	str.w	r3, [r5, #148]	@ 0x94
 8001d2c:	e7d3      	b.n	8001cd6 <RCC_SetFlashLatencyFromMSIRange+0x12>
 8001d2e:	f1b4 5f80 	cmp.w	r4, #268435456	@ 0x10000000
 8001d32:	d205      	bcs.n	8001d40 <RCC_SetFlashLatencyFromMSIRange+0x7c>
 8001d34:	f5b0 3f80 	cmp.w	r0, #65536	@ 0x10000
 8001d38:	d015      	beq.n	8001d66 <RCC_SetFlashLatencyFromMSIRange+0xa2>
 8001d3a:	2001      	movs	r0, #1
 8001d3c:	b003      	add	sp, #12
 8001d3e:	bd30      	pop	{r4, r5, pc}
 8001d40:	f1b4 5f00 	cmp.w	r4, #536870912	@ 0x20000000
 8001d44:	d906      	bls.n	8001d54 <RCC_SetFlashLatencyFromMSIRange+0x90>
 8001d46:	b980      	cbnz	r0, 8001d6a <RCC_SetFlashLatencyFromMSIRange+0xa6>
 8001d48:	f1b4 5f40 	cmp.w	r4, #805306368	@ 0x30000000
 8001d4c:	bf8c      	ite	hi
 8001d4e:	2000      	movhi	r0, #0
 8001d50:	2001      	movls	r0, #1
 8001d52:	e7ca      	b.n	8001cea <RCC_SetFlashLatencyFromMSIRange+0x26>
 8001d54:	f1b4 5f80 	cmp.w	r4, #268435456	@ 0x10000000
 8001d58:	d109      	bne.n	8001d6e <RCC_SetFlashLatencyFromMSIRange+0xaa>
 8001d5a:	f5b0 3f80 	cmp.w	r0, #65536	@ 0x10000
 8001d5e:	bf0c      	ite	eq
 8001d60:	2001      	moveq	r0, #1
 8001d62:	2002      	movne	r0, #2
 8001d64:	e7c1      	b.n	8001cea <RCC_SetFlashLatencyFromMSIRange+0x26>
 8001d66:	2003      	movs	r0, #3
 8001d68:	e7bf      	b.n	8001cea <RCC_SetFlashLatencyFromMSIRange+0x26>
 8001d6a:	2000      	movs	r0, #0
 8001d6c:	e7bd      	b.n	8001cea <RCC_SetFlashLatencyFromMSIRange+0x26>
 8001d6e:	2001      	movs	r0, #1
 8001d70:	e7bb      	b.n	8001cea <RCC_SetFlashLatencyFromMSIRange+0x26>
 8001d72:	bf00      	nop
 8001d74:	46020c00 	.word	0x46020c00
 8001d78:	40022000 	.word	0x40022000

08001d7c <HAL_RCC_GetSysClockFreq>:
 8001d7c:	4a38      	ldr	r2, [pc, #224]	@ (8001e60 <HAL_RCC_GetSysClockFreq+0xe4>)
 8001d7e:	b510      	push	{r4, lr}
 8001d80:	69d3      	ldr	r3, [r2, #28]
 8001d82:	6a91      	ldr	r1, [r2, #40]	@ 0x28
 8001d84:	f013 030c 	ands.w	r3, r3, #12
 8001d88:	d005      	beq.n	8001d96 <HAL_RCC_GetSysClockFreq+0x1a>
 8001d8a:	2b0c      	cmp	r3, #12
 8001d8c:	d136      	bne.n	8001dfc <HAL_RCC_GetSysClockFreq+0x80>
 8001d8e:	f001 0103 	and.w	r1, r1, #3
 8001d92:	2901      	cmp	r1, #1
 8001d94:	d132      	bne.n	8001dfc <HAL_RCC_GetSysClockFreq+0x80>
 8001d96:	6891      	ldr	r1, [r2, #8]
 8001d98:	0209      	lsls	r1, r1, #8
 8001d9a:	bf54      	ite	pl
 8001d9c:	f8d2 20f4 	ldrpl.w	r2, [r2, #244]	@ 0xf4
 8001da0:	6892      	ldrmi	r2, [r2, #8]
 8001da2:	4930      	ldr	r1, [pc, #192]	@ (8001e64 <HAL_RCC_GetSysClockFreq+0xe8>)
 8001da4:	bf54      	ite	pl
 8001da6:	f3c2 3203 	ubfxpl	r2, r2, #12, #4
 8001daa:	0f12      	lsrmi	r2, r2, #28
 8001dac:	f851 0022 	ldr.w	r0, [r1, r2, lsl #2]
 8001db0:	2b00      	cmp	r3, #0
 8001db2:	d051      	beq.n	8001e58 <HAL_RCC_GetSysClockFreq+0xdc>
 8001db4:	4a2a      	ldr	r2, [pc, #168]	@ (8001e60 <HAL_RCC_GetSysClockFreq+0xe4>)
 8001db6:	eddf 5a2c 	vldr	s11, [pc, #176]	@ 8001e68 <HAL_RCC_GetSysClockFreq+0xec>
 8001dba:	6a91      	ldr	r1, [r2, #40]	@ 0x28
 8001dbc:	6a93      	ldr	r3, [r2, #40]	@ 0x28
 8001dbe:	6a94      	ldr	r4, [r2, #40]	@ 0x28
 8001dc0:	f3c3 2303 	ubfx	r3, r3, #8, #4
 8001dc4:	3301      	adds	r3, #1
 8001dc6:	ee06 3a90 	vmov	s13, r3
 8001dca:	6b93      	ldr	r3, [r2, #56]	@ 0x38
 8001dcc:	f3c4 1400 	ubfx	r4, r4, #4, #1
 8001dd0:	f3c3 03cc 	ubfx	r3, r3, #3, #13
 8001dd4:	4363      	muls	r3, r4
 8001dd6:	ee07 3a90 	vmov	s15, r3
 8001dda:	f001 0103 	and.w	r1, r1, #3
 8001dde:	2902      	cmp	r1, #2
 8001de0:	eeb8 7ae7 	vcvt.f32.s32	s14, s15
 8001de4:	eef8 6ae6 	vcvt.f32.s32	s13, s13
 8001de8:	eeb7 6a00 	vmov.f32	s12, #112	@ 0x3f800000  1.0
 8001dec:	d014      	beq.n	8001e18 <HAL_RCC_GetSysClockFreq+0x9c>
 8001dee:	2903      	cmp	r1, #3
 8001df0:	d012      	beq.n	8001e18 <HAL_RCC_GetSysClockFreq+0x9c>
 8001df2:	ee07 0a90 	vmov	s15, r0
 8001df6:	eef8 7a67 	vcvt.f32.u32	s15, s15
 8001dfa:	e00f      	b.n	8001e1c <HAL_RCC_GetSysClockFreq+0xa0>
 8001dfc:	69d2      	ldr	r2, [r2, #28]
 8001dfe:	f002 020c 	and.w	r2, r2, #12
 8001e02:	2a04      	cmp	r2, #4
 8001e04:	d006      	beq.n	8001e14 <HAL_RCC_GetSysClockFreq+0x98>
 8001e06:	2b08      	cmp	r3, #8
 8001e08:	d027      	beq.n	8001e5a <HAL_RCC_GetSysClockFreq+0xde>
 8001e0a:	2000      	movs	r0, #0
 8001e0c:	2b0c      	cmp	r3, #12
 8001e0e:	d123      	bne.n	8001e58 <HAL_RCC_GetSysClockFreq+0xdc>
 8001e10:	2000      	movs	r0, #0
 8001e12:	e7cf      	b.n	8001db4 <HAL_RCC_GetSysClockFreq+0x38>
 8001e14:	4815      	ldr	r0, [pc, #84]	@ (8001e6c <HAL_RCC_GetSysClockFreq+0xf0>)
 8001e16:	e7f9      	b.n	8001e0c <HAL_RCC_GetSysClockFreq+0x90>
 8001e18:	eddf 7a15 	vldr	s15, [pc, #84]	@ 8001e70 <HAL_RCC_GetSysClockFreq+0xf4>
 8001e1c:	6b53      	ldr	r3, [r2, #52]	@ 0x34
 8001e1e:	ee87 5aa6 	vdiv.f32	s10, s15, s13
 8001e22:	f3c3 0308 	ubfx	r3, r3, #0, #9
 8001e26:	ee07 3a90 	vmov	s15, r3
 8001e2a:	eef8 7ae7 	vcvt.f32.s32	s15, s15
 8001e2e:	eee7 7a25 	vfma.f32	s15, s14, s11
 8001e32:	4b0b      	ldr	r3, [pc, #44]	@ (8001e60 <HAL_RCC_GetSysClockFreq+0xe4>)
 8001e34:	ee77 7a86 	vadd.f32	s15, s15, s12
 8001e38:	6b5b      	ldr	r3, [r3, #52]	@ 0x34
 8001e3a:	ee67 7a85 	vmul.f32	s15, s15, s10
 8001e3e:	f3c3 6306 	ubfx	r3, r3, #24, #7
 8001e42:	3301      	adds	r3, #1
 8001e44:	ee07 3a10 	vmov	s14, r3
 8001e48:	eef8 6ac7 	vcvt.f32.s32	s13, s14
 8001e4c:	ee87 7aa6 	vdiv.f32	s14, s15, s13
 8001e50:	eefc 7ac7 	vcvt.u32.f32	s15, s14
 8001e54:	ee17 0a90 	vmov	r0, s15
 8001e58:	bd10      	pop	{r4, pc}
 8001e5a:	4804      	ldr	r0, [pc, #16]	@ (8001e6c <HAL_RCC_GetSysClockFreq+0xf0>)
 8001e5c:	e7fc      	b.n	8001e58 <HAL_RCC_GetSysClockFreq+0xdc>
 8001e5e:	bf00      	nop
 8001e60:	46020c00 	.word	0x46020c00
 8001e64:	080049ac 	.word	0x080049ac
 8001e68:	39000000 	.word	0x39000000
 8001e6c:	00f42400 	.word	0x00f42400
 8001e70:	4b742400 	.word	0x4b742400

08001e74 <HAL_RCC_ClockConfig>:
 8001e74:	e92d 41f3 	stmdb	sp!, {r0, r1, r4, r5, r6, r7, r8, lr}
 8001e78:	460d      	mov	r5, r1
 8001e7a:	4604      	mov	r4, r0
 8001e7c:	b918      	cbnz	r0, 8001e86 <HAL_RCC_ClockConfig+0x12>
 8001e7e:	2001      	movs	r0, #1
 8001e80:	b002      	add	sp, #8
 8001e82:	e8bd 81f0 	ldmia.w	sp!, {r4, r5, r6, r7, r8, pc}
 8001e86:	4a9c      	ldr	r2, [pc, #624]	@ (80020f8 <HAL_RCC_ClockConfig+0x284>)
 8001e88:	6813      	ldr	r3, [r2, #0]
 8001e8a:	f003 030f 	and.w	r3, r3, #15
 8001e8e:	428b      	cmp	r3, r1
 8001e90:	d36e      	bcc.n	8001f70 <HAL_RCC_ClockConfig+0xfc>
 8001e92:	6823      	ldr	r3, [r4, #0]
 8001e94:	06d8      	lsls	r0, r3, #27
 8001e96:	d477      	bmi.n	8001f88 <HAL_RCC_ClockConfig+0x114>
 8001e98:	0719      	lsls	r1, r3, #28
 8001e9a:	d50d      	bpl.n	8001eb8 <HAL_RCC_ClockConfig+0x44>
 8001e9c:	4997      	ldr	r1, [pc, #604]	@ (80020fc <HAL_RCC_ClockConfig+0x288>)
 8001e9e:	6920      	ldr	r0, [r4, #16]
 8001ea0:	6a0a      	ldr	r2, [r1, #32]
 8001ea2:	0912      	lsrs	r2, r2, #4
 8001ea4:	f002 0270 	and.w	r2, r2, #112	@ 0x70
 8001ea8:	4290      	cmp	r0, r2
 8001eaa:	bf81      	itttt	hi
 8001eac:	6a0a      	ldrhi	r2, [r1, #32]
 8001eae:	f422 62e0 	bichi.w	r2, r2, #1792	@ 0x700
 8001eb2:	ea42 1200 	orrhi.w	r2, r2, r0, lsl #4
 8001eb6:	620a      	strhi	r2, [r1, #32]
 8001eb8:	075a      	lsls	r2, r3, #29
 8001eba:	d50b      	bpl.n	8001ed4 <HAL_RCC_ClockConfig+0x60>
 8001ebc:	498f      	ldr	r1, [pc, #572]	@ (80020fc <HAL_RCC_ClockConfig+0x288>)
 8001ebe:	68e0      	ldr	r0, [r4, #12]
 8001ec0:	6a0a      	ldr	r2, [r1, #32]
 8001ec2:	f002 0270 	and.w	r2, r2, #112	@ 0x70
 8001ec6:	4290      	cmp	r0, r2
 8001ec8:	bf81      	itttt	hi
 8001eca:	6a0a      	ldrhi	r2, [r1, #32]
 8001ecc:	f022 0270 	bichi.w	r2, r2, #112	@ 0x70
 8001ed0:	4302      	orrhi	r2, r0
 8001ed2:	620a      	strhi	r2, [r1, #32]
 8001ed4:	079f      	lsls	r7, r3, #30
 8001ed6:	d50b      	bpl.n	8001ef0 <HAL_RCC_ClockConfig+0x7c>
 8001ed8:	4988      	ldr	r1, [pc, #544]	@ (80020fc <HAL_RCC_ClockConfig+0x288>)
 8001eda:	68a0      	ldr	r0, [r4, #8]
 8001edc:	6a0a      	ldr	r2, [r1, #32]
 8001ede:	f002 020f 	and.w	r2, r2, #15
 8001ee2:	4290      	cmp	r0, r2
 8001ee4:	bf81      	itttt	hi
 8001ee6:	6a0a      	ldrhi	r2, [r1, #32]
 8001ee8:	f022 020f 	bichi.w	r2, r2, #15
 8001eec:	4302      	orrhi	r2, r0
 8001eee:	620a      	strhi	r2, [r1, #32]
 8001ef0:	07de      	lsls	r6, r3, #31
 8001ef2:	d456      	bmi.n	8001fa2 <HAL_RCC_ClockConfig+0x12e>
 8001ef4:	6822      	ldr	r2, [r4, #0]
 8001ef6:	0790      	lsls	r0, r2, #30
 8001ef8:	f100 80d8 	bmi.w	80020ac <HAL_RCC_ClockConfig+0x238>
 8001efc:	497e      	ldr	r1, [pc, #504]	@ (80020f8 <HAL_RCC_ClockConfig+0x284>)
 8001efe:	680b      	ldr	r3, [r1, #0]
 8001f00:	f003 030f 	and.w	r3, r3, #15
 8001f04:	42ab      	cmp	r3, r5
 8001f06:	f200 80de 	bhi.w	80020c6 <HAL_RCC_ClockConfig+0x252>
 8001f0a:	0750      	lsls	r0, r2, #29
 8001f0c:	f100 80e7 	bmi.w	80020de <HAL_RCC_ClockConfig+0x26a>
 8001f10:	0711      	lsls	r1, r2, #28
 8001f12:	d50d      	bpl.n	8001f30 <HAL_RCC_ClockConfig+0xbc>
 8001f14:	4979      	ldr	r1, [pc, #484]	@ (80020fc <HAL_RCC_ClockConfig+0x288>)
 8001f16:	6920      	ldr	r0, [r4, #16]
 8001f18:	6a0b      	ldr	r3, [r1, #32]
 8001f1a:	091b      	lsrs	r3, r3, #4
 8001f1c:	f003 0370 	and.w	r3, r3, #112	@ 0x70
 8001f20:	4298      	cmp	r0, r3
 8001f22:	bf3f      	itttt	cc
 8001f24:	6a0b      	ldrcc	r3, [r1, #32]
 8001f26:	f423 63e0 	biccc.w	r3, r3, #1792	@ 0x700
 8001f2a:	ea43 1300 	orrcc.w	r3, r3, r0, lsl #4
 8001f2e:	620b      	strcc	r3, [r1, #32]
 8001f30:	06d3      	lsls	r3, r2, #27
 8001f32:	d50b      	bpl.n	8001f4c <HAL_RCC_ClockConfig+0xd8>
 8001f34:	4a71      	ldr	r2, [pc, #452]	@ (80020fc <HAL_RCC_ClockConfig+0x288>)
 8001f36:	6961      	ldr	r1, [r4, #20]
 8001f38:	6a53      	ldr	r3, [r2, #36]	@ 0x24
 8001f3a:	f003 0370 	and.w	r3, r3, #112	@ 0x70
 8001f3e:	4299      	cmp	r1, r3
 8001f40:	bf3f      	itttt	cc
 8001f42:	6a53      	ldrcc	r3, [r2, #36]	@ 0x24
 8001f44:	f023 0370 	biccc.w	r3, r3, #112	@ 0x70
 8001f48:	430b      	orrcc	r3, r1
 8001f4a:	6253      	strcc	r3, [r2, #36]	@ 0x24
 8001f4c:	f7ff ff16 	bl	8001d7c <HAL_RCC_GetSysClockFreq>
 8001f50:	4b6a      	ldr	r3, [pc, #424]	@ (80020fc <HAL_RCC_ClockConfig+0x288>)
 8001f52:	4a6b      	ldr	r2, [pc, #428]	@ (8002100 <HAL_RCC_ClockConfig+0x28c>)
 8001f54:	6a1b      	ldr	r3, [r3, #32]
 8001f56:	f003 030f 	and.w	r3, r3, #15
 8001f5a:	5cd3      	ldrb	r3, [r2, r3]
 8001f5c:	40d8      	lsrs	r0, r3
 8001f5e:	4b69      	ldr	r3, [pc, #420]	@ (8002104 <HAL_RCC_ClockConfig+0x290>)
 8001f60:	6018      	str	r0, [r3, #0]
 8001f62:	4b69      	ldr	r3, [pc, #420]	@ (8002108 <HAL_RCC_ClockConfig+0x294>)
 8001f64:	6818      	ldr	r0, [r3, #0]
 8001f66:	b002      	add	sp, #8
 8001f68:	e8bd 41f0 	ldmia.w	sp!, {r4, r5, r6, r7, r8, lr}
 8001f6c:	f7fe bdca 	b.w	8000b04 <HAL_InitTick>
 8001f70:	6813      	ldr	r3, [r2, #0]
 8001f72:	f023 030f 	bic.w	r3, r3, #15
 8001f76:	430b      	orrs	r3, r1
 8001f78:	6013      	str	r3, [r2, #0]
 8001f7a:	6813      	ldr	r3, [r2, #0]
 8001f7c:	f003 030f 	and.w	r3, r3, #15
 8001f80:	428b      	cmp	r3, r1
 8001f82:	f47f af7c 	bne.w	8001e7e <HAL_RCC_ClockConfig+0xa>
 8001f86:	e784      	b.n	8001e92 <HAL_RCC_ClockConfig+0x1e>
 8001f88:	495c      	ldr	r1, [pc, #368]	@ (80020fc <HAL_RCC_ClockConfig+0x288>)
 8001f8a:	6960      	ldr	r0, [r4, #20]
 8001f8c:	6a4a      	ldr	r2, [r1, #36]	@ 0x24
 8001f8e:	f002 0270 	and.w	r2, r2, #112	@ 0x70
 8001f92:	4290      	cmp	r0, r2
 8001f94:	bf81      	itttt	hi
 8001f96:	6a4a      	ldrhi	r2, [r1, #36]	@ 0x24
 8001f98:	f022 0270 	bichi.w	r2, r2, #112	@ 0x70
 8001f9c:	4302      	orrhi	r2, r0
 8001f9e:	624a      	strhi	r2, [r1, #36]	@ 0x24
 8001fa0:	e77a      	b.n	8001e98 <HAL_RCC_ClockConfig+0x24>
 8001fa2:	6862      	ldr	r2, [r4, #4]
 8001fa4:	4b55      	ldr	r3, [pc, #340]	@ (80020fc <HAL_RCC_ClockConfig+0x288>)
 8001fa6:	2a03      	cmp	r2, #3
 8001fa8:	d14e      	bne.n	8002048 <HAL_RCC_ClockConfig+0x1d4>
 8001faa:	f8d3 2094 	ldr.w	r2, [r3, #148]	@ 0x94
 8001fae:	0751      	lsls	r1, r2, #29
 8001fb0:	d43d      	bmi.n	800202e <HAL_RCC_ClockConfig+0x1ba>
 8001fb2:	2701      	movs	r7, #1
 8001fb4:	f8d3 2094 	ldr.w	r2, [r3, #148]	@ 0x94
 8001fb8:	f042 0204 	orr.w	r2, r2, #4
 8001fbc:	f8c3 2094 	str.w	r2, [r3, #148]	@ 0x94
 8001fc0:	f8d3 3094 	ldr.w	r3, [r3, #148]	@ 0x94
 8001fc4:	f003 0304 	and.w	r3, r3, #4
 8001fc8:	9301      	str	r3, [sp, #4]
 8001fca:	9b01      	ldr	r3, [sp, #4]
 8001fcc:	f7fe fe18 	bl	8000c00 <HAL_GetTick>
 8001fd0:	f8df 8138 	ldr.w	r8, [pc, #312]	@ 800210c <HAL_RCC_ClockConfig+0x298>
 8001fd4:	4606      	mov	r6, r0
 8001fd6:	f8d8 300c 	ldr.w	r3, [r8, #12]
 8001fda:	035a      	lsls	r2, r3, #13
 8001fdc:	d429      	bmi.n	8002032 <HAL_RCC_ClockConfig+0x1be>
 8001fde:	4b47      	ldr	r3, [pc, #284]	@ (80020fc <HAL_RCC_ClockConfig+0x288>)
 8001fe0:	b12f      	cbz	r7, 8001fee <HAL_RCC_ClockConfig+0x17a>
 8001fe2:	f8d3 2094 	ldr.w	r2, [r3, #148]	@ 0x94
 8001fe6:	f022 0204 	bic.w	r2, r2, #4
 8001fea:	f8c3 2094 	str.w	r2, [r3, #148]	@ 0x94
 8001fee:	681b      	ldr	r3, [r3, #0]
 8001ff0:	f013 7f00 	tst.w	r3, #33554432	@ 0x2000000
 8001ff4:	f43f af43 	beq.w	8001e7e <HAL_RCC_ClockConfig+0xa>
 8001ff8:	4e40      	ldr	r6, [pc, #256]	@ (80020fc <HAL_RCC_ClockConfig+0x288>)
 8001ffa:	6862      	ldr	r2, [r4, #4]
 8001ffc:	69f3      	ldr	r3, [r6, #28]
 8001ffe:	f241 3888 	movw	r8, #5000	@ 0x1388
 8002002:	f023 0303 	bic.w	r3, r3, #3
 8002006:	4313      	orrs	r3, r2
 8002008:	61f3      	str	r3, [r6, #28]
 800200a:	f7fe fdf9 	bl	8000c00 <HAL_GetTick>
 800200e:	6863      	ldr	r3, [r4, #4]
 8002010:	4607      	mov	r7, r0
 8002012:	2b03      	cmp	r3, #3
 8002014:	d125      	bne.n	8002062 <HAL_RCC_ClockConfig+0x1ee>
 8002016:	69f3      	ldr	r3, [r6, #28]
 8002018:	f003 030c 	and.w	r3, r3, #12
 800201c:	2b0c      	cmp	r3, #12
 800201e:	f43f af69 	beq.w	8001ef4 <HAL_RCC_ClockConfig+0x80>
 8002022:	f7fe fded 	bl	8000c00 <HAL_GetTick>
 8002026:	1bc0      	subs	r0, r0, r7
 8002028:	4540      	cmp	r0, r8
 800202a:	d9f4      	bls.n	8002016 <HAL_RCC_ClockConfig+0x1a2>
 800202c:	e00a      	b.n	8002044 <HAL_RCC_ClockConfig+0x1d0>
 800202e:	2700      	movs	r7, #0
 8002030:	e7cc      	b.n	8001fcc <HAL_RCC_ClockConfig+0x158>
 8002032:	f8d8 300c 	ldr.w	r3, [r8, #12]
 8002036:	045b      	lsls	r3, r3, #17
 8002038:	d4d1      	bmi.n	8001fde <HAL_RCC_ClockConfig+0x16a>
 800203a:	f7fe fde1 	bl	8000c00 <HAL_GetTick>
 800203e:	1b80      	subs	r0, r0, r6
 8002040:	2802      	cmp	r0, #2
 8002042:	d9f6      	bls.n	8002032 <HAL_RCC_ClockConfig+0x1be>
 8002044:	2003      	movs	r0, #3
 8002046:	e71b      	b.n	8001e80 <HAL_RCC_ClockConfig+0xc>
 8002048:	2a02      	cmp	r2, #2
 800204a:	681b      	ldr	r3, [r3, #0]
 800204c:	d102      	bne.n	8002054 <HAL_RCC_ClockConfig+0x1e0>
 800204e:	f413 3f00 	tst.w	r3, #131072	@ 0x20000
 8002052:	e7cf      	b.n	8001ff4 <HAL_RCC_ClockConfig+0x180>
 8002054:	b912      	cbnz	r2, 800205c <HAL_RCC_ClockConfig+0x1e8>
 8002056:	f013 0f04 	tst.w	r3, #4
 800205a:	e7cb      	b.n	8001ff4 <HAL_RCC_ClockConfig+0x180>
 800205c:	f413 6f80 	tst.w	r3, #1024	@ 0x400
 8002060:	e7c8      	b.n	8001ff4 <HAL_RCC_ClockConfig+0x180>
 8002062:	2b02      	cmp	r3, #2
 8002064:	d10b      	bne.n	800207e <HAL_RCC_ClockConfig+0x20a>
 8002066:	69f3      	ldr	r3, [r6, #28]
 8002068:	f003 030c 	and.w	r3, r3, #12
 800206c:	2b08      	cmp	r3, #8
 800206e:	f43f af41 	beq.w	8001ef4 <HAL_RCC_ClockConfig+0x80>
 8002072:	f7fe fdc5 	bl	8000c00 <HAL_GetTick>
 8002076:	1bc0      	subs	r0, r0, r7
 8002078:	4540      	cmp	r0, r8
 800207a:	d9f4      	bls.n	8002066 <HAL_RCC_ClockConfig+0x1f2>
 800207c:	e7e2      	b.n	8002044 <HAL_RCC_ClockConfig+0x1d0>
 800207e:	b97b      	cbnz	r3, 80020a0 <HAL_RCC_ClockConfig+0x22c>
 8002080:	69f3      	ldr	r3, [r6, #28]
 8002082:	f013 0f0c 	tst.w	r3, #12
 8002086:	f43f af35 	beq.w	8001ef4 <HAL_RCC_ClockConfig+0x80>
 800208a:	f7fe fdb9 	bl	8000c00 <HAL_GetTick>
 800208e:	1bc0      	subs	r0, r0, r7
 8002090:	4540      	cmp	r0, r8
 8002092:	d9f5      	bls.n	8002080 <HAL_RCC_ClockConfig+0x20c>
 8002094:	e7d6      	b.n	8002044 <HAL_RCC_ClockConfig+0x1d0>
 8002096:	f7fe fdb3 	bl	8000c00 <HAL_GetTick>
 800209a:	1bc0      	subs	r0, r0, r7
 800209c:	4540      	cmp	r0, r8
 800209e:	d8d1      	bhi.n	8002044 <HAL_RCC_ClockConfig+0x1d0>
 80020a0:	69f3      	ldr	r3, [r6, #28]
 80020a2:	f003 030c 	and.w	r3, r3, #12
 80020a6:	2b04      	cmp	r3, #4
 80020a8:	d1f5      	bne.n	8002096 <HAL_RCC_ClockConfig+0x222>
 80020aa:	e723      	b.n	8001ef4 <HAL_RCC_ClockConfig+0x80>
 80020ac:	4913      	ldr	r1, [pc, #76]	@ (80020fc <HAL_RCC_ClockConfig+0x288>)
 80020ae:	68a0      	ldr	r0, [r4, #8]
 80020b0:	6a0b      	ldr	r3, [r1, #32]
 80020b2:	f003 030f 	and.w	r3, r3, #15
 80020b6:	4298      	cmp	r0, r3
 80020b8:	bf3f      	itttt	cc
 80020ba:	6a0b      	ldrcc	r3, [r1, #32]
 80020bc:	f023 030f 	biccc.w	r3, r3, #15
 80020c0:	4303      	orrcc	r3, r0
 80020c2:	620b      	strcc	r3, [r1, #32]
 80020c4:	e71a      	b.n	8001efc <HAL_RCC_ClockConfig+0x88>
 80020c6:	680b      	ldr	r3, [r1, #0]
 80020c8:	f023 030f 	bic.w	r3, r3, #15
 80020cc:	432b      	orrs	r3, r5
 80020ce:	600b      	str	r3, [r1, #0]
 80020d0:	680b      	ldr	r3, [r1, #0]
 80020d2:	f003 030f 	and.w	r3, r3, #15
 80020d6:	42ab      	cmp	r3, r5
 80020d8:	f47f aed1 	bne.w	8001e7e <HAL_RCC_ClockConfig+0xa>
 80020dc:	e715      	b.n	8001f0a <HAL_RCC_ClockConfig+0x96>
 80020de:	4907      	ldr	r1, [pc, #28]	@ (80020fc <HAL_RCC_ClockConfig+0x288>)
 80020e0:	68e0      	ldr	r0, [r4, #12]
 80020e2:	6a0b      	ldr	r3, [r1, #32]
 80020e4:	f003 0370 	and.w	r3, r3, #112	@ 0x70
 80020e8:	4298      	cmp	r0, r3
 80020ea:	bf3f      	itttt	cc
 80020ec:	6a0b      	ldrcc	r3, [r1, #32]
 80020ee:	f023 0370 	biccc.w	r3, r3, #112	@ 0x70
 80020f2:	4303      	orrcc	r3, r0
 80020f4:	620b      	strcc	r3, [r1, #32]
 80020f6:	e70b      	b.n	8001f10 <HAL_RCC_ClockConfig+0x9c>
 80020f8:	40022000 	.word	0x40022000
 80020fc:	46020c00 	.word	0x46020c00
 8002100:	080049f4 	.word	0x080049f4
 8002104:	20000040 	.word	0x20000040
 8002108:	20000048 	.word	0x20000048
 800210c:	46020800 	.word	0x46020800

08002110 <HAL_RCC_GetHCLKFreq>:
 8002110:	b508      	push	{r3, lr}
 8002112:	f7ff fe33 	bl	8001d7c <HAL_RCC_GetSysClockFreq>
 8002116:	4b05      	ldr	r3, [pc, #20]	@ (800212c <HAL_RCC_GetHCLKFreq+0x1c>)
 8002118:	4a05      	ldr	r2, [pc, #20]	@ (8002130 <HAL_RCC_GetHCLKFreq+0x20>)
 800211a:	6a1b      	ldr	r3, [r3, #32]
 800211c:	f003 030f 	and.w	r3, r3, #15
 8002120:	5cd3      	ldrb	r3, [r2, r3]
 8002122:	40d8      	lsrs	r0, r3
 8002124:	4b03      	ldr	r3, [pc, #12]	@ (8002134 <HAL_RCC_GetHCLKFreq+0x24>)
 8002126:	6018      	str	r0, [r3, #0]
 8002128:	bd08      	pop	{r3, pc}
 800212a:	bf00      	nop
 800212c:	46020c00 	.word	0x46020c00
 8002130:	080049f4 	.word	0x080049f4
 8002134:	20000040 	.word	0x20000040

08002138 <HAL_RCC_OscConfig>:
 8002138:	e92d 41ff 	stmdb	sp!, {r0, r1, r2, r3, r4, r5, r6, r7, r8, lr}
 800213c:	4604      	mov	r4, r0
 800213e:	2800      	cmp	r0, #0
 8002140:	d039      	beq.n	80021b6 <HAL_RCC_OscConfig+0x7e>
 8002142:	4ba3      	ldr	r3, [pc, #652]	@ (80023d0 <HAL_RCC_OscConfig+0x298>)
 8002144:	69de      	ldr	r6, [r3, #28]
 8002146:	6a9f      	ldr	r7, [r3, #40]	@ 0x28
 8002148:	6803      	ldr	r3, [r0, #0]
 800214a:	f006 060c 	and.w	r6, r6, #12
 800214e:	06d8      	lsls	r0, r3, #27
 8002150:	f007 0703 	and.w	r7, r7, #3
 8002154:	f140 809a 	bpl.w	800228c <HAL_RCC_OscConfig+0x154>
 8002158:	69e3      	ldr	r3, [r4, #28]
 800215a:	b11e      	cbz	r6, 8002164 <HAL_RCC_OscConfig+0x2c>
 800215c:	2e0c      	cmp	r6, #12
 800215e:	d175      	bne.n	800224c <HAL_RCC_OscConfig+0x114>
 8002160:	2f01      	cmp	r7, #1
 8002162:	d173      	bne.n	800224c <HAL_RCC_OscConfig+0x114>
 8002164:	b33b      	cbz	r3, 80021b6 <HAL_RCC_OscConfig+0x7e>
 8002166:	4d9a      	ldr	r5, [pc, #616]	@ (80023d0 <HAL_RCC_OscConfig+0x298>)
 8002168:	6a60      	ldr	r0, [r4, #36]	@ 0x24
 800216a:	68ab      	ldr	r3, [r5, #8]
 800216c:	0219      	lsls	r1, r3, #8
 800216e:	bf56      	itet	pl
 8002170:	f8d5 30f4 	ldrpl.w	r3, [r5, #244]	@ 0xf4
 8002174:	68ab      	ldrmi	r3, [r5, #8]
 8002176:	041b      	lslpl	r3, r3, #16
 8002178:	f003 4370 	and.w	r3, r3, #4026531840	@ 0xf0000000
 800217c:	4298      	cmp	r0, r3
 800217e:	d938      	bls.n	80021f2 <HAL_RCC_OscConfig+0xba>
 8002180:	b1ae      	cbz	r6, 80021ae <HAL_RCC_OscConfig+0x76>
 8002182:	68ab      	ldr	r3, [r5, #8]
 8002184:	f443 0300 	orr.w	r3, r3, #8388608	@ 0x800000
 8002188:	60ab      	str	r3, [r5, #8]
 800218a:	68ab      	ldr	r3, [r5, #8]
 800218c:	6a61      	ldr	r1, [r4, #36]	@ 0x24
 800218e:	f023 4370 	bic.w	r3, r3, #4026531840	@ 0xf0000000
 8002192:	430b      	orrs	r3, r1
 8002194:	60ab      	str	r3, [r5, #8]
 8002196:	f1b1 4f40 	cmp.w	r1, #3221225472	@ 0xc0000000
 800219a:	6a22      	ldr	r2, [r4, #32]
 800219c:	d20d      	bcs.n	80021ba <HAL_RCC_OscConfig+0x82>
 800219e:	2900      	cmp	r1, #0
 80021a0:	68eb      	ldr	r3, [r5, #12]
 80021a2:	da1a      	bge.n	80021da <HAL_RCC_OscConfig+0xa2>
 80021a4:	f423 7378 	bic.w	r3, r3, #992	@ 0x3e0
 80021a8:	ea43 1342 	orr.w	r3, r3, r2, lsl #5
 80021ac:	e009      	b.n	80021c2 <HAL_RCC_OscConfig+0x8a>
 80021ae:	f7ff fd89 	bl	8001cc4 <RCC_SetFlashLatencyFromMSIRange>
 80021b2:	2800      	cmp	r0, #0
 80021b4:	d0e5      	beq.n	8002182 <HAL_RCC_OscConfig+0x4a>
 80021b6:	2001      	movs	r0, #1
 80021b8:	e00c      	b.n	80021d4 <HAL_RCC_OscConfig+0x9c>
 80021ba:	68eb      	ldr	r3, [r5, #12]
 80021bc:	f023 031f 	bic.w	r3, r3, #31
 80021c0:	4313      	orrs	r3, r2
 80021c2:	60eb      	str	r3, [r5, #12]
 80021c4:	f7ff ffa4 	bl	8002110 <HAL_RCC_GetHCLKFreq>
 80021c8:	4b82      	ldr	r3, [pc, #520]	@ (80023d4 <HAL_RCC_OscConfig+0x29c>)
 80021ca:	6818      	ldr	r0, [r3, #0]
 80021cc:	f7fe fc9a 	bl	8000b04 <HAL_InitTick>
 80021d0:	2800      	cmp	r0, #0
 80021d2:	d05b      	beq.n	800228c <HAL_RCC_OscConfig+0x154>
 80021d4:	b004      	add	sp, #16
 80021d6:	e8bd 81f0 	ldmia.w	sp!, {r4, r5, r6, r7, r8, pc}
 80021da:	f1b1 4f80 	cmp.w	r1, #1073741824	@ 0x40000000
 80021de:	bf2b      	itete	cs
 80021e0:	f423 43f8 	biccs.w	r3, r3, #31744	@ 0x7c00
 80021e4:	f423 2378 	biccc.w	r3, r3, #1015808	@ 0xf8000
 80021e8:	ea43 2382 	orrcs.w	r3, r3, r2, lsl #10
 80021ec:	ea43 33c2 	orrcc.w	r3, r3, r2, lsl #15
 80021f0:	e7e7      	b.n	80021c2 <HAL_RCC_OscConfig+0x8a>
 80021f2:	68ab      	ldr	r3, [r5, #8]
 80021f4:	f1b0 4f40 	cmp.w	r0, #3221225472	@ 0xc0000000
 80021f8:	f443 0300 	orr.w	r3, r3, #8388608	@ 0x800000
 80021fc:	60ab      	str	r3, [r5, #8]
 80021fe:	68ab      	ldr	r3, [r5, #8]
 8002200:	f023 4370 	bic.w	r3, r3, #4026531840	@ 0xf0000000
 8002204:	ea43 0300 	orr.w	r3, r3, r0
 8002208:	60ab      	str	r3, [r5, #8]
 800220a:	6a22      	ldr	r2, [r4, #32]
 800220c:	68eb      	ldr	r3, [r5, #12]
 800220e:	d30a      	bcc.n	8002226 <HAL_RCC_OscConfig+0xee>
 8002210:	f023 031f 	bic.w	r3, r3, #31
 8002214:	4313      	orrs	r3, r2
 8002216:	60eb      	str	r3, [r5, #12]
 8002218:	2e00      	cmp	r6, #0
 800221a:	d1d3      	bne.n	80021c4 <HAL_RCC_OscConfig+0x8c>
 800221c:	f7ff fd52 	bl	8001cc4 <RCC_SetFlashLatencyFromMSIRange>
 8002220:	2800      	cmp	r0, #0
 8002222:	d0cf      	beq.n	80021c4 <HAL_RCC_OscConfig+0x8c>
 8002224:	e7c7      	b.n	80021b6 <HAL_RCC_OscConfig+0x7e>
 8002226:	2800      	cmp	r0, #0
 8002228:	da04      	bge.n	8002234 <HAL_RCC_OscConfig+0xfc>
 800222a:	f423 7378 	bic.w	r3, r3, #992	@ 0x3e0
 800222e:	ea43 1342 	orr.w	r3, r3, r2, lsl #5
 8002232:	e7f0      	b.n	8002216 <HAL_RCC_OscConfig+0xde>
 8002234:	f1b0 4f80 	cmp.w	r0, #1073741824	@ 0x40000000
 8002238:	bf2b      	itete	cs
 800223a:	f423 43f8 	biccs.w	r3, r3, #31744	@ 0x7c00
 800223e:	f423 2378 	biccc.w	r3, r3, #1015808	@ 0xf8000
 8002242:	ea43 2382 	orrcs.w	r3, r3, r2, lsl #10
 8002246:	ea43 33c2 	orrcc.w	r3, r3, r2, lsl #15
 800224a:	e7e4      	b.n	8002216 <HAL_RCC_OscConfig+0xde>
 800224c:	4d60      	ldr	r5, [pc, #384]	@ (80023d0 <HAL_RCC_OscConfig+0x298>)
 800224e:	2b00      	cmp	r3, #0
 8002250:	d074      	beq.n	800233c <HAL_RCC_OscConfig+0x204>
 8002252:	682b      	ldr	r3, [r5, #0]
 8002254:	f043 0301 	orr.w	r3, r3, #1
 8002258:	602b      	str	r3, [r5, #0]
 800225a:	f7fe fcd1 	bl	8000c00 <HAL_GetTick>
 800225e:	4680      	mov	r8, r0
 8002260:	682b      	ldr	r3, [r5, #0]
 8002262:	075a      	lsls	r2, r3, #29
 8002264:	d54e      	bpl.n	8002304 <HAL_RCC_OscConfig+0x1cc>
 8002266:	68ab      	ldr	r3, [r5, #8]
 8002268:	f443 0300 	orr.w	r3, r3, #8388608	@ 0x800000
 800226c:	60ab      	str	r3, [r5, #8]
 800226e:	68ab      	ldr	r3, [r5, #8]
 8002270:	6a61      	ldr	r1, [r4, #36]	@ 0x24
 8002272:	f023 4370 	bic.w	r3, r3, #4026531840	@ 0xf0000000
 8002276:	430b      	orrs	r3, r1
 8002278:	60ab      	str	r3, [r5, #8]
 800227a:	f1b1 4f40 	cmp.w	r1, #3221225472	@ 0xc0000000
 800227e:	6a22      	ldr	r2, [r4, #32]
 8002280:	68eb      	ldr	r3, [r5, #12]
 8002282:	d347      	bcc.n	8002314 <HAL_RCC_OscConfig+0x1dc>
 8002284:	f023 031f 	bic.w	r3, r3, #31
 8002288:	4313      	orrs	r3, r2
 800228a:	60eb      	str	r3, [r5, #12]
 800228c:	6823      	ldr	r3, [r4, #0]
 800228e:	07dd      	lsls	r5, r3, #31
 8002290:	d465      	bmi.n	800235e <HAL_RCC_OscConfig+0x226>
 8002292:	6823      	ldr	r3, [r4, #0]
 8002294:	0798      	lsls	r0, r3, #30
 8002296:	f100 80bd 	bmi.w	8002414 <HAL_RCC_OscConfig+0x2dc>
 800229a:	6823      	ldr	r3, [r4, #0]
 800229c:	0718      	lsls	r0, r3, #28
 800229e:	f140 8138 	bpl.w	8002512 <HAL_RCC_OscConfig+0x3da>
 80022a2:	4b4b      	ldr	r3, [pc, #300]	@ (80023d0 <HAL_RCC_OscConfig+0x298>)
 80022a4:	f8d3 2094 	ldr.w	r2, [r3, #148]	@ 0x94
 80022a8:	0751      	lsls	r1, r2, #29
 80022aa:	f100 80f1 	bmi.w	8002490 <HAL_RCC_OscConfig+0x358>
 80022ae:	2701      	movs	r7, #1
 80022b0:	f8d3 2094 	ldr.w	r2, [r3, #148]	@ 0x94
 80022b4:	f042 0204 	orr.w	r2, r2, #4
 80022b8:	f8c3 2094 	str.w	r2, [r3, #148]	@ 0x94
 80022bc:	f8d3 3094 	ldr.w	r3, [r3, #148]	@ 0x94
 80022c0:	f003 0304 	and.w	r3, r3, #4
 80022c4:	9301      	str	r3, [sp, #4]
 80022c6:	9b01      	ldr	r3, [sp, #4]
 80022c8:	4d43      	ldr	r5, [pc, #268]	@ (80023d8 <HAL_RCC_OscConfig+0x2a0>)
 80022ca:	6aab      	ldr	r3, [r5, #40]	@ 0x28
 80022cc:	07da      	lsls	r2, r3, #31
 80022ce:	f140 80e1 	bpl.w	8002494 <HAL_RCC_OscConfig+0x35c>
 80022d2:	6963      	ldr	r3, [r4, #20]
 80022d4:	4d3e      	ldr	r5, [pc, #248]	@ (80023d0 <HAL_RCC_OscConfig+0x298>)
 80022d6:	2b00      	cmp	r3, #0
 80022d8:	f040 80ed 	bne.w	80024b6 <HAL_RCC_OscConfig+0x37e>
 80022dc:	f8d5 30f0 	ldr.w	r3, [r5, #240]	@ 0xf0
 80022e0:	f023 53a0 	bic.w	r3, r3, #335544320	@ 0x14000000
 80022e4:	f8c5 30f0 	str.w	r3, [r5, #240]	@ 0xf0
 80022e8:	f7fe fc8a 	bl	8000c00 <HAL_GetTick>
 80022ec:	4606      	mov	r6, r0
 80022ee:	f8d5 30f0 	ldr.w	r3, [r5, #240]	@ 0xf0
 80022f2:	011b      	lsls	r3, r3, #4
 80022f4:	f140 8105 	bpl.w	8002502 <HAL_RCC_OscConfig+0x3ca>
 80022f8:	f7fe fc82 	bl	8000c00 <HAL_GetTick>
 80022fc:	1b80      	subs	r0, r0, r6
 80022fe:	2805      	cmp	r0, #5
 8002300:	d9f5      	bls.n	80022ee <HAL_RCC_OscConfig+0x1b6>
 8002302:	e005      	b.n	8002310 <HAL_RCC_OscConfig+0x1d8>
 8002304:	f7fe fc7c 	bl	8000c00 <HAL_GetTick>
 8002308:	eba0 0008 	sub.w	r0, r0, r8
 800230c:	2802      	cmp	r0, #2
 800230e:	d9a7      	bls.n	8002260 <HAL_RCC_OscConfig+0x128>
 8002310:	2003      	movs	r0, #3
 8002312:	e75f      	b.n	80021d4 <HAL_RCC_OscConfig+0x9c>
 8002314:	2900      	cmp	r1, #0
 8002316:	da04      	bge.n	8002322 <HAL_RCC_OscConfig+0x1ea>
 8002318:	f423 7378 	bic.w	r3, r3, #992	@ 0x3e0
 800231c:	ea43 1342 	orr.w	r3, r3, r2, lsl #5
 8002320:	e7b3      	b.n	800228a <HAL_RCC_OscConfig+0x152>
 8002322:	f1b1 4f80 	cmp.w	r1, #1073741824	@ 0x40000000
 8002326:	d304      	bcc.n	8002332 <HAL_RCC_OscConfig+0x1fa>
 8002328:	f423 43f8 	bic.w	r3, r3, #31744	@ 0x7c00
 800232c:	ea43 2382 	orr.w	r3, r3, r2, lsl #10
 8002330:	e7ab      	b.n	800228a <HAL_RCC_OscConfig+0x152>
 8002332:	f423 2378 	bic.w	r3, r3, #1015808	@ 0xf8000
 8002336:	ea43 33c2 	orr.w	r3, r3, r2, lsl #15
 800233a:	e7a6      	b.n	800228a <HAL_RCC_OscConfig+0x152>
 800233c:	682b      	ldr	r3, [r5, #0]
 800233e:	f023 0301 	bic.w	r3, r3, #1
 8002342:	602b      	str	r3, [r5, #0]
 8002344:	f7fe fc5c 	bl	8000c00 <HAL_GetTick>
 8002348:	4680      	mov	r8, r0
 800234a:	682b      	ldr	r3, [r5, #0]
 800234c:	075b      	lsls	r3, r3, #29
 800234e:	d59d      	bpl.n	800228c <HAL_RCC_OscConfig+0x154>
 8002350:	f7fe fc56 	bl	8000c00 <HAL_GetTick>
 8002354:	eba0 0008 	sub.w	r0, r0, r8
 8002358:	2802      	cmp	r0, #2
 800235a:	d9f6      	bls.n	800234a <HAL_RCC_OscConfig+0x212>
 800235c:	e7d8      	b.n	8002310 <HAL_RCC_OscConfig+0x1d8>
 800235e:	2e08      	cmp	r6, #8
 8002360:	6863      	ldr	r3, [r4, #4]
 8002362:	d003      	beq.n	800236c <HAL_RCC_OscConfig+0x234>
 8002364:	2e0c      	cmp	r6, #12
 8002366:	d104      	bne.n	8002372 <HAL_RCC_OscConfig+0x23a>
 8002368:	2f03      	cmp	r7, #3
 800236a:	d102      	bne.n	8002372 <HAL_RCC_OscConfig+0x23a>
 800236c:	2b00      	cmp	r3, #0
 800236e:	d190      	bne.n	8002292 <HAL_RCC_OscConfig+0x15a>
 8002370:	e721      	b.n	80021b6 <HAL_RCC_OscConfig+0x7e>
 8002372:	f5b3 3f80 	cmp.w	r3, #65536	@ 0x10000
 8002376:	4d16      	ldr	r5, [pc, #88]	@ (80023d0 <HAL_RCC_OscConfig+0x298>)
 8002378:	d113      	bne.n	80023a2 <HAL_RCC_OscConfig+0x26a>
 800237a:	682b      	ldr	r3, [r5, #0]
 800237c:	f443 3380 	orr.w	r3, r3, #65536	@ 0x10000
 8002380:	602b      	str	r3, [r5, #0]
 8002382:	f7fe fc3d 	bl	8000c00 <HAL_GetTick>
 8002386:	4605      	mov	r5, r0
 8002388:	f8df 8044 	ldr.w	r8, [pc, #68]	@ 80023d0 <HAL_RCC_OscConfig+0x298>
 800238c:	f8d8 3000 	ldr.w	r3, [r8]
 8002390:	0399      	lsls	r1, r3, #14
 8002392:	f53f af7e 	bmi.w	8002292 <HAL_RCC_OscConfig+0x15a>
 8002396:	f7fe fc33 	bl	8000c00 <HAL_GetTick>
 800239a:	1b40      	subs	r0, r0, r5
 800239c:	2864      	cmp	r0, #100	@ 0x64
 800239e:	d9f5      	bls.n	800238c <HAL_RCC_OscConfig+0x254>
 80023a0:	e7b6      	b.n	8002310 <HAL_RCC_OscConfig+0x1d8>
 80023a2:	f5b3 2fa0 	cmp.w	r3, #327680	@ 0x50000
 80023a6:	d108      	bne.n	80023ba <HAL_RCC_OscConfig+0x282>
 80023a8:	682b      	ldr	r3, [r5, #0]
 80023aa:	f443 2380 	orr.w	r3, r3, #262144	@ 0x40000
 80023ae:	602b      	str	r3, [r5, #0]
 80023b0:	682b      	ldr	r3, [r5, #0]
 80023b2:	f423 1380 	bic.w	r3, r3, #1048576	@ 0x100000
 80023b6:	602b      	str	r3, [r5, #0]
 80023b8:	e7df      	b.n	800237a <HAL_RCC_OscConfig+0x242>
 80023ba:	f5b3 1fa8 	cmp.w	r3, #1376256	@ 0x150000
 80023be:	d10d      	bne.n	80023dc <HAL_RCC_OscConfig+0x2a4>
 80023c0:	682b      	ldr	r3, [r5, #0]
 80023c2:	f443 2380 	orr.w	r3, r3, #262144	@ 0x40000
 80023c6:	602b      	str	r3, [r5, #0]
 80023c8:	682b      	ldr	r3, [r5, #0]
 80023ca:	f443 1380 	orr.w	r3, r3, #1048576	@ 0x100000
 80023ce:	e7f2      	b.n	80023b6 <HAL_RCC_OscConfig+0x27e>
 80023d0:	46020c00 	.word	0x46020c00
 80023d4:	20000048 	.word	0x20000048
 80023d8:	46020800 	.word	0x46020800
 80023dc:	682a      	ldr	r2, [r5, #0]
 80023de:	f422 3280 	bic.w	r2, r2, #65536	@ 0x10000
 80023e2:	602a      	str	r2, [r5, #0]
 80023e4:	682a      	ldr	r2, [r5, #0]
 80023e6:	f422 2280 	bic.w	r2, r2, #262144	@ 0x40000
 80023ea:	602a      	str	r2, [r5, #0]
 80023ec:	682a      	ldr	r2, [r5, #0]
 80023ee:	f422 1280 	bic.w	r2, r2, #1048576	@ 0x100000
 80023f2:	602a      	str	r2, [r5, #0]
 80023f4:	2b00      	cmp	r3, #0
 80023f6:	d1c4      	bne.n	8002382 <HAL_RCC_OscConfig+0x24a>
 80023f8:	f7fe fc02 	bl	8000c00 <HAL_GetTick>
 80023fc:	4680      	mov	r8, r0
 80023fe:	682b      	ldr	r3, [r5, #0]
 8002400:	039a      	lsls	r2, r3, #14
 8002402:	f57f af46 	bpl.w	8002292 <HAL_RCC_OscConfig+0x15a>
 8002406:	f7fe fbfb 	bl	8000c00 <HAL_GetTick>
 800240a:	eba0 0008 	sub.w	r0, r0, r8
 800240e:	2864      	cmp	r0, #100	@ 0x64
 8002410:	d9f5      	bls.n	80023fe <HAL_RCC_OscConfig+0x2c6>
 8002412:	e77d      	b.n	8002310 <HAL_RCC_OscConfig+0x1d8>
 8002414:	2e04      	cmp	r6, #4
 8002416:	68e3      	ldr	r3, [r4, #12]
 8002418:	d003      	beq.n	8002422 <HAL_RCC_OscConfig+0x2ea>
 800241a:	2e0c      	cmp	r6, #12
 800241c:	d10d      	bne.n	800243a <HAL_RCC_OscConfig+0x302>
 800241e:	2f02      	cmp	r7, #2
 8002420:	d10b      	bne.n	800243a <HAL_RCC_OscConfig+0x302>
 8002422:	2b00      	cmp	r3, #0
 8002424:	f43f aec7 	beq.w	80021b6 <HAL_RCC_OscConfig+0x7e>
 8002428:	4aa9      	ldr	r2, [pc, #676]	@ (80026d0 <HAL_RCC_OscConfig+0x598>)
 800242a:	6921      	ldr	r1, [r4, #16]
 800242c:	6913      	ldr	r3, [r2, #16]
 800242e:	f423 13f8 	bic.w	r3, r3, #2031616	@ 0x1f0000
 8002432:	ea43 4301 	orr.w	r3, r3, r1, lsl #16
 8002436:	6113      	str	r3, [r2, #16]
 8002438:	e72f      	b.n	800229a <HAL_RCC_OscConfig+0x162>
 800243a:	4da5      	ldr	r5, [pc, #660]	@ (80026d0 <HAL_RCC_OscConfig+0x598>)
 800243c:	b1bb      	cbz	r3, 800246e <HAL_RCC_OscConfig+0x336>
 800243e:	682b      	ldr	r3, [r5, #0]
 8002440:	f443 7380 	orr.w	r3, r3, #256	@ 0x100
 8002444:	602b      	str	r3, [r5, #0]
 8002446:	f7fe fbdb 	bl	8000c00 <HAL_GetTick>
 800244a:	4606      	mov	r6, r0
 800244c:	682b      	ldr	r3, [r5, #0]
 800244e:	055b      	lsls	r3, r3, #21
 8002450:	d507      	bpl.n	8002462 <HAL_RCC_OscConfig+0x32a>
 8002452:	692b      	ldr	r3, [r5, #16]
 8002454:	6922      	ldr	r2, [r4, #16]
 8002456:	f423 13f8 	bic.w	r3, r3, #2031616	@ 0x1f0000
 800245a:	ea43 4302 	orr.w	r3, r3, r2, lsl #16
 800245e:	612b      	str	r3, [r5, #16]
 8002460:	e71b      	b.n	800229a <HAL_RCC_OscConfig+0x162>
 8002462:	f7fe fbcd 	bl	8000c00 <HAL_GetTick>
 8002466:	1b80      	subs	r0, r0, r6
 8002468:	2802      	cmp	r0, #2
 800246a:	d9ef      	bls.n	800244c <HAL_RCC_OscConfig+0x314>
 800246c:	e750      	b.n	8002310 <HAL_RCC_OscConfig+0x1d8>
 800246e:	682b      	ldr	r3, [r5, #0]
 8002470:	f423 7380 	bic.w	r3, r3, #256	@ 0x100
 8002474:	602b      	str	r3, [r5, #0]
 8002476:	f7fe fbc3 	bl	8000c00 <HAL_GetTick>
 800247a:	4606      	mov	r6, r0
 800247c:	682b      	ldr	r3, [r5, #0]
 800247e:	055f      	lsls	r7, r3, #21
 8002480:	f57f af0b 	bpl.w	800229a <HAL_RCC_OscConfig+0x162>
 8002484:	f7fe fbbc 	bl	8000c00 <HAL_GetTick>
 8002488:	1b80      	subs	r0, r0, r6
 800248a:	2802      	cmp	r0, #2
 800248c:	d9f6      	bls.n	800247c <HAL_RCC_OscConfig+0x344>
 800248e:	e73f      	b.n	8002310 <HAL_RCC_OscConfig+0x1d8>
 8002490:	2700      	movs	r7, #0
 8002492:	e719      	b.n	80022c8 <HAL_RCC_OscConfig+0x190>
 8002494:	6aab      	ldr	r3, [r5, #40]	@ 0x28
 8002496:	f043 0301 	orr.w	r3, r3, #1
 800249a:	62ab      	str	r3, [r5, #40]	@ 0x28
 800249c:	f7fe fbb0 	bl	8000c00 <HAL_GetTick>
 80024a0:	4606      	mov	r6, r0
 80024a2:	6aab      	ldr	r3, [r5, #40]	@ 0x28
 80024a4:	07db      	lsls	r3, r3, #31
 80024a6:	f53f af14 	bmi.w	80022d2 <HAL_RCC_OscConfig+0x19a>
 80024aa:	f7fe fba9 	bl	8000c00 <HAL_GetTick>
 80024ae:	1b80      	subs	r0, r0, r6
 80024b0:	2802      	cmp	r0, #2
 80024b2:	d9f6      	bls.n	80024a2 <HAL_RCC_OscConfig+0x36a>
 80024b4:	e72c      	b.n	8002310 <HAL_RCC_OscConfig+0x1d8>
 80024b6:	f8d5 30f0 	ldr.w	r3, [r5, #240]	@ 0xf0
 80024ba:	69a1      	ldr	r1, [r4, #24]
 80024bc:	f003 5280 	and.w	r2, r3, #268435456	@ 0x10000000
 80024c0:	4291      	cmp	r1, r2
 80024c2:	d010      	beq.n	80024e6 <HAL_RCC_OscConfig+0x3ae>
 80024c4:	f003 6240 	and.w	r2, r3, #201326592	@ 0xc000000
 80024c8:	f1b2 6f00 	cmp.w	r2, #134217728	@ 0x8000000
 80024cc:	f43f ae73 	beq.w	80021b6 <HAL_RCC_OscConfig+0x7e>
 80024d0:	0158      	lsls	r0, r3, #5
 80024d2:	d46c      	bmi.n	80025ae <HAL_RCC_OscConfig+0x476>
 80024d4:	4a7e      	ldr	r2, [pc, #504]	@ (80026d0 <HAL_RCC_OscConfig+0x598>)
 80024d6:	69a1      	ldr	r1, [r4, #24]
 80024d8:	f8d2 30f0 	ldr.w	r3, [r2, #240]	@ 0xf0
 80024dc:	f023 5380 	bic.w	r3, r3, #268435456	@ 0x10000000
 80024e0:	430b      	orrs	r3, r1
 80024e2:	f8c2 30f0 	str.w	r3, [r2, #240]	@ 0xf0
 80024e6:	4d7a      	ldr	r5, [pc, #488]	@ (80026d0 <HAL_RCC_OscConfig+0x598>)
 80024e8:	f8d5 30f0 	ldr.w	r3, [r5, #240]	@ 0xf0
 80024ec:	f043 6380 	orr.w	r3, r3, #67108864	@ 0x4000000
 80024f0:	f8c5 30f0 	str.w	r3, [r5, #240]	@ 0xf0
 80024f4:	f7fe fb84 	bl	8000c00 <HAL_GetTick>
 80024f8:	4606      	mov	r6, r0
 80024fa:	f8d5 30f0 	ldr.w	r3, [r5, #240]	@ 0xf0
 80024fe:	011a      	lsls	r2, r3, #4
 8002500:	d568      	bpl.n	80025d4 <HAL_RCC_OscConfig+0x49c>
 8002502:	b137      	cbz	r7, 8002512 <HAL_RCC_OscConfig+0x3da>
 8002504:	4a72      	ldr	r2, [pc, #456]	@ (80026d0 <HAL_RCC_OscConfig+0x598>)
 8002506:	f8d2 3094 	ldr.w	r3, [r2, #148]	@ 0x94
 800250a:	f023 0304 	bic.w	r3, r3, #4
 800250e:	f8c2 3094 	str.w	r3, [r2, #148]	@ 0x94
 8002512:	6823      	ldr	r3, [r4, #0]
 8002514:	075d      	lsls	r5, r3, #29
 8002516:	f140 80a7 	bpl.w	8002668 <HAL_RCC_OscConfig+0x530>
 800251a:	4b6d      	ldr	r3, [pc, #436]	@ (80026d0 <HAL_RCC_OscConfig+0x598>)
 800251c:	f8d3 2094 	ldr.w	r2, [r3, #148]	@ 0x94
 8002520:	0750      	lsls	r0, r2, #29
 8002522:	d45d      	bmi.n	80025e0 <HAL_RCC_OscConfig+0x4a8>
 8002524:	2701      	movs	r7, #1
 8002526:	f8d3 2094 	ldr.w	r2, [r3, #148]	@ 0x94
 800252a:	f042 0204 	orr.w	r2, r2, #4
 800252e:	f8c3 2094 	str.w	r2, [r3, #148]	@ 0x94
 8002532:	f8d3 3094 	ldr.w	r3, [r3, #148]	@ 0x94
 8002536:	f003 0304 	and.w	r3, r3, #4
 800253a:	9302      	str	r3, [sp, #8]
 800253c:	9b02      	ldr	r3, [sp, #8]
 800253e:	4d65      	ldr	r5, [pc, #404]	@ (80026d4 <HAL_RCC_OscConfig+0x59c>)
 8002540:	6aab      	ldr	r3, [r5, #40]	@ 0x28
 8002542:	07d9      	lsls	r1, r3, #31
 8002544:	d54e      	bpl.n	80025e4 <HAL_RCC_OscConfig+0x4ac>
 8002546:	68a3      	ldr	r3, [r4, #8]
 8002548:	4d61      	ldr	r5, [pc, #388]	@ (80026d0 <HAL_RCC_OscConfig+0x598>)
 800254a:	f013 0f01 	tst.w	r3, #1
 800254e:	d159      	bne.n	8002604 <HAL_RCC_OscConfig+0x4cc>
 8002550:	f8d5 20f0 	ldr.w	r2, [r5, #240]	@ 0xf0
 8002554:	f022 0201 	bic.w	r2, r2, #1
 8002558:	f8c5 20f0 	str.w	r2, [r5, #240]	@ 0xf0
 800255c:	f8d5 20f0 	ldr.w	r2, [r5, #240]	@ 0xf0
 8002560:	f022 0204 	bic.w	r2, r2, #4
 8002564:	f8c5 20f0 	str.w	r2, [r5, #240]	@ 0xf0
 8002568:	2b00      	cmp	r3, #0
 800256a:	d15a      	bne.n	8002622 <HAL_RCC_OscConfig+0x4ea>
 800256c:	f7fe fb48 	bl	8000c00 <HAL_GetTick>
 8002570:	f241 3888 	movw	r8, #5000	@ 0x1388
 8002574:	4606      	mov	r6, r0
 8002576:	f8d5 30f0 	ldr.w	r3, [r5, #240]	@ 0xf0
 800257a:	079a      	lsls	r2, r3, #30
 800257c:	f100 80a0 	bmi.w	80026c0 <HAL_RCC_OscConfig+0x588>
 8002580:	f8d5 30f0 	ldr.w	r3, [r5, #240]	@ 0xf0
 8002584:	061b      	lsls	r3, r3, #24
 8002586:	d567      	bpl.n	8002658 <HAL_RCC_OscConfig+0x520>
 8002588:	f241 3888 	movw	r8, #5000	@ 0x1388
 800258c:	f8d5 30f0 	ldr.w	r3, [r5, #240]	@ 0xf0
 8002590:	f023 0380 	bic.w	r3, r3, #128	@ 0x80
 8002594:	f8c5 30f0 	str.w	r3, [r5, #240]	@ 0xf0
 8002598:	4d4d      	ldr	r5, [pc, #308]	@ (80026d0 <HAL_RCC_OscConfig+0x598>)
 800259a:	f8d5 30f0 	ldr.w	r3, [r5, #240]	@ 0xf0
 800259e:	0518      	lsls	r0, r3, #20
 80025a0:	d55a      	bpl.n	8002658 <HAL_RCC_OscConfig+0x520>
 80025a2:	f7fe fb2d 	bl	8000c00 <HAL_GetTick>
 80025a6:	1b80      	subs	r0, r0, r6
 80025a8:	4540      	cmp	r0, r8
 80025aa:	d9f6      	bls.n	800259a <HAL_RCC_OscConfig+0x462>
 80025ac:	e6b0      	b.n	8002310 <HAL_RCC_OscConfig+0x1d8>
 80025ae:	f8d5 30f0 	ldr.w	r3, [r5, #240]	@ 0xf0
 80025b2:	f023 53a0 	bic.w	r3, r3, #335544320	@ 0x14000000
 80025b6:	f8c5 30f0 	str.w	r3, [r5, #240]	@ 0xf0
 80025ba:	f7fe fb21 	bl	8000c00 <HAL_GetTick>
 80025be:	4606      	mov	r6, r0
 80025c0:	f8d5 30f0 	ldr.w	r3, [r5, #240]	@ 0xf0
 80025c4:	0119      	lsls	r1, r3, #4
 80025c6:	d585      	bpl.n	80024d4 <HAL_RCC_OscConfig+0x39c>
 80025c8:	f7fe fb1a 	bl	8000c00 <HAL_GetTick>
 80025cc:	1b80      	subs	r0, r0, r6
 80025ce:	2805      	cmp	r0, #5
 80025d0:	d9f6      	bls.n	80025c0 <HAL_RCC_OscConfig+0x488>
 80025d2:	e69d      	b.n	8002310 <HAL_RCC_OscConfig+0x1d8>
 80025d4:	f7fe fb14 	bl	8000c00 <HAL_GetTick>
 80025d8:	1b80      	subs	r0, r0, r6
 80025da:	2805      	cmp	r0, #5
 80025dc:	d98d      	bls.n	80024fa <HAL_RCC_OscConfig+0x3c2>
 80025de:	e697      	b.n	8002310 <HAL_RCC_OscConfig+0x1d8>
 80025e0:	2700      	movs	r7, #0
 80025e2:	e7ac      	b.n	800253e <HAL_RCC_OscConfig+0x406>
 80025e4:	6aab      	ldr	r3, [r5, #40]	@ 0x28
 80025e6:	f043 0301 	orr.w	r3, r3, #1
 80025ea:	62ab      	str	r3, [r5, #40]	@ 0x28
 80025ec:	f7fe fb08 	bl	8000c00 <HAL_GetTick>
 80025f0:	4606      	mov	r6, r0
 80025f2:	6aab      	ldr	r3, [r5, #40]	@ 0x28
 80025f4:	07da      	lsls	r2, r3, #31
 80025f6:	d4a6      	bmi.n	8002546 <HAL_RCC_OscConfig+0x40e>
 80025f8:	f7fe fb02 	bl	8000c00 <HAL_GetTick>
 80025fc:	1b80      	subs	r0, r0, r6
 80025fe:	2802      	cmp	r0, #2
 8002600:	d9f7      	bls.n	80025f2 <HAL_RCC_OscConfig+0x4ba>
 8002602:	e685      	b.n	8002310 <HAL_RCC_OscConfig+0x1d8>
 8002604:	f013 0f04 	tst.w	r3, #4
 8002608:	f8d5 30f0 	ldr.w	r3, [r5, #240]	@ 0xf0
 800260c:	bf1e      	ittt	ne
 800260e:	f043 0304 	orrne.w	r3, r3, #4
 8002612:	f8c5 30f0 	strne.w	r3, [r5, #240]	@ 0xf0
 8002616:	f8d5 30f0 	ldrne.w	r3, [r5, #240]	@ 0xf0
 800261a:	f043 0301 	orr.w	r3, r3, #1
 800261e:	f8c5 30f0 	str.w	r3, [r5, #240]	@ 0xf0
 8002622:	f7fe faed 	bl	8000c00 <HAL_GetTick>
 8002626:	f241 3888 	movw	r8, #5000	@ 0x1388
 800262a:	4605      	mov	r5, r0
 800262c:	4e28      	ldr	r6, [pc, #160]	@ (80026d0 <HAL_RCC_OscConfig+0x598>)
 800262e:	f8d6 30f0 	ldr.w	r3, [r6, #240]	@ 0xf0
 8002632:	079b      	lsls	r3, r3, #30
 8002634:	d527      	bpl.n	8002686 <HAL_RCC_OscConfig+0x54e>
 8002636:	68a3      	ldr	r3, [r4, #8]
 8002638:	f013 0f80 	tst.w	r3, #128	@ 0x80
 800263c:	f8d6 30f0 	ldr.w	r3, [r6, #240]	@ 0xf0
 8002640:	d02d      	beq.n	800269e <HAL_RCC_OscConfig+0x566>
 8002642:	f241 3888 	movw	r8, #5000	@ 0x1388
 8002646:	f043 0380 	orr.w	r3, r3, #128	@ 0x80
 800264a:	f8c6 30f0 	str.w	r3, [r6, #240]	@ 0xf0
 800264e:	4e20      	ldr	r6, [pc, #128]	@ (80026d0 <HAL_RCC_OscConfig+0x598>)
 8002650:	f8d6 30f0 	ldr.w	r3, [r6, #240]	@ 0xf0
 8002654:	0518      	lsls	r0, r3, #20
 8002656:	d51c      	bpl.n	8002692 <HAL_RCC_OscConfig+0x55a>
 8002658:	b137      	cbz	r7, 8002668 <HAL_RCC_OscConfig+0x530>
 800265a:	4a1d      	ldr	r2, [pc, #116]	@ (80026d0 <HAL_RCC_OscConfig+0x598>)
 800265c:	f8d2 3094 	ldr.w	r3, [r2, #148]	@ 0x94
 8002660:	f023 0304 	bic.w	r3, r3, #4
 8002664:	f8c2 3094 	str.w	r3, [r2, #148]	@ 0x94
 8002668:	6823      	ldr	r3, [r4, #0]
 800266a:	0699      	lsls	r1, r3, #26
 800266c:	d434      	bmi.n	80026d8 <HAL_RCC_OscConfig+0x5a0>
 800266e:	6823      	ldr	r3, [r4, #0]
 8002670:	061a      	lsls	r2, r3, #24
 8002672:	d454      	bmi.n	800271e <HAL_RCC_OscConfig+0x5e6>
 8002674:	6823      	ldr	r3, [r4, #0]
 8002676:	0658      	lsls	r0, r3, #25
 8002678:	d474      	bmi.n	8002764 <HAL_RCC_OscConfig+0x62c>
 800267a:	6ba1      	ldr	r1, [r4, #56]	@ 0x38
 800267c:	2900      	cmp	r1, #0
 800267e:	f040 80c1 	bne.w	8002804 <HAL_RCC_OscConfig+0x6cc>
 8002682:	2000      	movs	r0, #0
 8002684:	e5a6      	b.n	80021d4 <HAL_RCC_OscConfig+0x9c>
 8002686:	f7fe fabb 	bl	8000c00 <HAL_GetTick>
 800268a:	1b40      	subs	r0, r0, r5
 800268c:	4540      	cmp	r0, r8
 800268e:	d9ce      	bls.n	800262e <HAL_RCC_OscConfig+0x4f6>
 8002690:	e63e      	b.n	8002310 <HAL_RCC_OscConfig+0x1d8>
 8002692:	f7fe fab5 	bl	8000c00 <HAL_GetTick>
 8002696:	1b40      	subs	r0, r0, r5
 8002698:	4540      	cmp	r0, r8
 800269a:	d9d9      	bls.n	8002650 <HAL_RCC_OscConfig+0x518>
 800269c:	e638      	b.n	8002310 <HAL_RCC_OscConfig+0x1d8>
 800269e:	f241 3888 	movw	r8, #5000	@ 0x1388
 80026a2:	f023 0380 	bic.w	r3, r3, #128	@ 0x80
 80026a6:	f8c6 30f0 	str.w	r3, [r6, #240]	@ 0xf0
 80026aa:	4e09      	ldr	r6, [pc, #36]	@ (80026d0 <HAL_RCC_OscConfig+0x598>)
 80026ac:	f8d6 30f0 	ldr.w	r3, [r6, #240]	@ 0xf0
 80026b0:	0519      	lsls	r1, r3, #20
 80026b2:	d5d1      	bpl.n	8002658 <HAL_RCC_OscConfig+0x520>
 80026b4:	f7fe faa4 	bl	8000c00 <HAL_GetTick>
 80026b8:	1b40      	subs	r0, r0, r5
 80026ba:	4540      	cmp	r0, r8
 80026bc:	d9f6      	bls.n	80026ac <HAL_RCC_OscConfig+0x574>
 80026be:	e627      	b.n	8002310 <HAL_RCC_OscConfig+0x1d8>
 80026c0:	f7fe fa9e 	bl	8000c00 <HAL_GetTick>
 80026c4:	1b80      	subs	r0, r0, r6
 80026c6:	4540      	cmp	r0, r8
 80026c8:	f67f af55 	bls.w	8002576 <HAL_RCC_OscConfig+0x43e>
 80026cc:	e620      	b.n	8002310 <HAL_RCC_OscConfig+0x1d8>
 80026ce:	bf00      	nop
 80026d0:	46020c00 	.word	0x46020c00
 80026d4:	46020800 	.word	0x46020800
 80026d8:	6ae3      	ldr	r3, [r4, #44]	@ 0x2c
 80026da:	4d9b      	ldr	r5, [pc, #620]	@ (8002948 <HAL_RCC_OscConfig+0x810>)
 80026dc:	b17b      	cbz	r3, 80026fe <HAL_RCC_OscConfig+0x5c6>
 80026de:	682b      	ldr	r3, [r5, #0]
 80026e0:	f443 5380 	orr.w	r3, r3, #4096	@ 0x1000
 80026e4:	602b      	str	r3, [r5, #0]
 80026e6:	f7fe fa8b 	bl	8000c00 <HAL_GetTick>
 80026ea:	4606      	mov	r6, r0
 80026ec:	682b      	ldr	r3, [r5, #0]
 80026ee:	049b      	lsls	r3, r3, #18
 80026f0:	d4bd      	bmi.n	800266e <HAL_RCC_OscConfig+0x536>
 80026f2:	f7fe fa85 	bl	8000c00 <HAL_GetTick>
 80026f6:	1b80      	subs	r0, r0, r6
 80026f8:	2802      	cmp	r0, #2
 80026fa:	d9f7      	bls.n	80026ec <HAL_RCC_OscConfig+0x5b4>
 80026fc:	e608      	b.n	8002310 <HAL_RCC_OscConfig+0x1d8>
 80026fe:	682b      	ldr	r3, [r5, #0]
 8002700:	f423 5380 	bic.w	r3, r3, #4096	@ 0x1000
 8002704:	602b      	str	r3, [r5, #0]
 8002706:	f7fe fa7b 	bl	8000c00 <HAL_GetTick>
 800270a:	4606      	mov	r6, r0
 800270c:	682b      	ldr	r3, [r5, #0]
 800270e:	049f      	lsls	r7, r3, #18
 8002710:	d5ad      	bpl.n	800266e <HAL_RCC_OscConfig+0x536>
 8002712:	f7fe fa75 	bl	8000c00 <HAL_GetTick>
 8002716:	1b80      	subs	r0, r0, r6
 8002718:	2802      	cmp	r0, #2
 800271a:	d9f7      	bls.n	800270c <HAL_RCC_OscConfig+0x5d4>
 800271c:	e5f8      	b.n	8002310 <HAL_RCC_OscConfig+0x1d8>
 800271e:	6b23      	ldr	r3, [r4, #48]	@ 0x30
 8002720:	4d89      	ldr	r5, [pc, #548]	@ (8002948 <HAL_RCC_OscConfig+0x810>)
 8002722:	b17b      	cbz	r3, 8002744 <HAL_RCC_OscConfig+0x60c>
 8002724:	682b      	ldr	r3, [r5, #0]
 8002726:	f443 4380 	orr.w	r3, r3, #16384	@ 0x4000
 800272a:	602b      	str	r3, [r5, #0]
 800272c:	f7fe fa68 	bl	8000c00 <HAL_GetTick>
 8002730:	4606      	mov	r6, r0
 8002732:	682b      	ldr	r3, [r5, #0]
 8002734:	0419      	lsls	r1, r3, #16
 8002736:	d49d      	bmi.n	8002674 <HAL_RCC_OscConfig+0x53c>
 8002738:	f7fe fa62 	bl	8000c00 <HAL_GetTick>
 800273c:	1b80      	subs	r0, r0, r6
 800273e:	2802      	cmp	r0, #2
 8002740:	d9f7      	bls.n	8002732 <HAL_RCC_OscConfig+0x5fa>
 8002742:	e5e5      	b.n	8002310 <HAL_RCC_OscConfig+0x1d8>
 8002744:	682b      	ldr	r3, [r5, #0]
 8002746:	f423 4380 	bic.w	r3, r3, #16384	@ 0x4000
 800274a:	602b      	str	r3, [r5, #0]
 800274c:	f7fe fa58 	bl	8000c00 <HAL_GetTick>
 8002750:	4606      	mov	r6, r0
 8002752:	682b      	ldr	r3, [r5, #0]
 8002754:	041a      	lsls	r2, r3, #16
 8002756:	d58d      	bpl.n	8002674 <HAL_RCC_OscConfig+0x53c>
 8002758:	f7fe fa52 	bl	8000c00 <HAL_GetTick>
 800275c:	1b80      	subs	r0, r0, r6
 800275e:	2802      	cmp	r0, #2
 8002760:	d9f7      	bls.n	8002752 <HAL_RCC_OscConfig+0x61a>
 8002762:	e5d5      	b.n	8002310 <HAL_RCC_OscConfig+0x1d8>
 8002764:	6b63      	ldr	r3, [r4, #52]	@ 0x34
 8002766:	4d78      	ldr	r5, [pc, #480]	@ (8002948 <HAL_RCC_OscConfig+0x810>)
 8002768:	2b00      	cmp	r3, #0
 800276a:	d03a      	beq.n	80027e2 <HAL_RCC_OscConfig+0x6aa>
 800276c:	68ab      	ldr	r3, [r5, #8]
 800276e:	f443 0300 	orr.w	r3, r3, #8388608	@ 0x800000
 8002772:	60ab      	str	r3, [r5, #8]
 8002774:	68ab      	ldr	r3, [r5, #8]
 8002776:	6aa2      	ldr	r2, [r4, #40]	@ 0x28
 8002778:	f023 6370 	bic.w	r3, r3, #251658240	@ 0xf000000
 800277c:	4313      	orrs	r3, r2
 800277e:	60ab      	str	r3, [r5, #8]
 8002780:	e9d4 2308 	ldrd	r2, r3, [r4, #32]
 8002784:	f1b3 4f40 	cmp.w	r3, #3221225472	@ 0xc0000000
 8002788:	d316      	bcc.n	80027b8 <HAL_RCC_OscConfig+0x680>
 800278a:	68eb      	ldr	r3, [r5, #12]
 800278c:	f023 031f 	bic.w	r3, r3, #31
 8002790:	4313      	orrs	r3, r2
 8002792:	60eb      	str	r3, [r5, #12]
 8002794:	4d6c      	ldr	r5, [pc, #432]	@ (8002948 <HAL_RCC_OscConfig+0x810>)
 8002796:	682b      	ldr	r3, [r5, #0]
 8002798:	f043 0310 	orr.w	r3, r3, #16
 800279c:	602b      	str	r3, [r5, #0]
 800279e:	f7fe fa2f 	bl	8000c00 <HAL_GetTick>
 80027a2:	4606      	mov	r6, r0
 80027a4:	682b      	ldr	r3, [r5, #0]
 80027a6:	069b      	lsls	r3, r3, #26
 80027a8:	f53f af67 	bmi.w	800267a <HAL_RCC_OscConfig+0x542>
 80027ac:	f7fe fa28 	bl	8000c00 <HAL_GetTick>
 80027b0:	1b80      	subs	r0, r0, r6
 80027b2:	2802      	cmp	r0, #2
 80027b4:	d9f6      	bls.n	80027a4 <HAL_RCC_OscConfig+0x66c>
 80027b6:	e5ab      	b.n	8002310 <HAL_RCC_OscConfig+0x1d8>
 80027b8:	2b00      	cmp	r3, #0
 80027ba:	da05      	bge.n	80027c8 <HAL_RCC_OscConfig+0x690>
 80027bc:	68eb      	ldr	r3, [r5, #12]
 80027be:	f423 7378 	bic.w	r3, r3, #992	@ 0x3e0
 80027c2:	ea43 1342 	orr.w	r3, r3, r2, lsl #5
 80027c6:	e7e4      	b.n	8002792 <HAL_RCC_OscConfig+0x65a>
 80027c8:	f1b3 4f80 	cmp.w	r3, #1073741824	@ 0x40000000
 80027cc:	68eb      	ldr	r3, [r5, #12]
 80027ce:	bf2b      	itete	cs
 80027d0:	f423 43f8 	biccs.w	r3, r3, #31744	@ 0x7c00
 80027d4:	f423 2378 	biccc.w	r3, r3, #1015808	@ 0xf8000
 80027d8:	ea43 2382 	orrcs.w	r3, r3, r2, lsl #10
 80027dc:	ea43 33c2 	orrcc.w	r3, r3, r2, lsl #15
 80027e0:	e7d7      	b.n	8002792 <HAL_RCC_OscConfig+0x65a>
 80027e2:	682b      	ldr	r3, [r5, #0]
 80027e4:	f023 0310 	bic.w	r3, r3, #16
 80027e8:	602b      	str	r3, [r5, #0]
 80027ea:	f7fe fa09 	bl	8000c00 <HAL_GetTick>
 80027ee:	4606      	mov	r6, r0
 80027f0:	682b      	ldr	r3, [r5, #0]
 80027f2:	069f      	lsls	r7, r3, #26
 80027f4:	f57f af41 	bpl.w	800267a <HAL_RCC_OscConfig+0x542>
 80027f8:	f7fe fa02 	bl	8000c00 <HAL_GetTick>
 80027fc:	1b80      	subs	r0, r0, r6
 80027fe:	2802      	cmp	r0, #2
 8002800:	d9f6      	bls.n	80027f0 <HAL_RCC_OscConfig+0x6b8>
 8002802:	e585      	b.n	8002310 <HAL_RCC_OscConfig+0x1d8>
 8002804:	4d50      	ldr	r5, [pc, #320]	@ (8002948 <HAL_RCC_OscConfig+0x810>)
 8002806:	69eb      	ldr	r3, [r5, #28]
 8002808:	f003 030c 	and.w	r3, r3, #12
 800280c:	2b0c      	cmp	r3, #12
 800280e:	f000 80a1 	beq.w	8002954 <HAL_RCC_OscConfig+0x81c>
 8002812:	682b      	ldr	r3, [r5, #0]
 8002814:	2902      	cmp	r1, #2
 8002816:	f023 7380 	bic.w	r3, r3, #16777216	@ 0x1000000
 800281a:	602b      	str	r3, [r5, #0]
 800281c:	f040 8081 	bne.w	8002922 <HAL_RCC_OscConfig+0x7ea>
 8002820:	f7fe f9ee 	bl	8000c00 <HAL_GetTick>
 8002824:	4606      	mov	r6, r0
 8002826:	6829      	ldr	r1, [r5, #0]
 8002828:	f011 7100 	ands.w	r1, r1, #33554432	@ 0x2000000
 800282c:	d16d      	bne.n	800290a <HAL_RCC_OscConfig+0x7d2>
 800282e:	f8d5 3094 	ldr.w	r3, [r5, #148]	@ 0x94
 8002832:	075e      	lsls	r6, r3, #29
 8002834:	d40c      	bmi.n	8002850 <HAL_RCC_OscConfig+0x718>
 8002836:	2101      	movs	r1, #1
 8002838:	f8d5 3094 	ldr.w	r3, [r5, #148]	@ 0x94
 800283c:	f043 0304 	orr.w	r3, r3, #4
 8002840:	f8c5 3094 	str.w	r3, [r5, #148]	@ 0x94
 8002844:	f8d5 3094 	ldr.w	r3, [r5, #148]	@ 0x94
 8002848:	f003 0304 	and.w	r3, r3, #4
 800284c:	9303      	str	r3, [sp, #12]
 800284e:	9b03      	ldr	r3, [sp, #12]
 8002850:	4d3e      	ldr	r5, [pc, #248]	@ (800294c <HAL_RCC_OscConfig+0x814>)
 8002852:	68ee      	ldr	r6, [r5, #12]
 8002854:	68eb      	ldr	r3, [r5, #12]
 8002856:	f423 2380 	bic.w	r3, r3, #262144	@ 0x40000
 800285a:	60eb      	str	r3, [r5, #12]
 800285c:	4b3a      	ldr	r3, [pc, #232]	@ (8002948 <HAL_RCC_OscConfig+0x810>)
 800285e:	6c67      	ldr	r7, [r4, #68]	@ 0x44
 8002860:	6a98      	ldr	r0, [r3, #40]	@ 0x28
 8002862:	6be2      	ldr	r2, [r4, #60]	@ 0x3c
 8002864:	f420 407f 	bic.w	r0, r0, #65280	@ 0xff00
 8002868:	433a      	orrs	r2, r7
 800286a:	f020 0003 	bic.w	r0, r0, #3
 800286e:	4302      	orrs	r2, r0
 8002870:	6c20      	ldr	r0, [r4, #64]	@ 0x40
 8002872:	3801      	subs	r0, #1
 8002874:	ea42 2200 	orr.w	r2, r2, r0, lsl #8
 8002878:	629a      	str	r2, [r3, #40]	@ 0x28
 800287a:	6ca2      	ldr	r2, [r4, #72]	@ 0x48
 800287c:	6b5f      	ldr	r7, [r3, #52]	@ 0x34
 800287e:	4834      	ldr	r0, [pc, #208]	@ (8002950 <HAL_RCC_OscConfig+0x818>)
 8002880:	3a01      	subs	r2, #1
 8002882:	4038      	ands	r0, r7
 8002884:	f3c2 0208 	ubfx	r2, r2, #0, #9
 8002888:	4302      	orrs	r2, r0
 800288a:	6ce0      	ldr	r0, [r4, #76]	@ 0x4c
 800288c:	3801      	subs	r0, #1
 800288e:	0240      	lsls	r0, r0, #9
 8002890:	b280      	uxth	r0, r0
 8002892:	4302      	orrs	r2, r0
 8002894:	6d20      	ldr	r0, [r4, #80]	@ 0x50
 8002896:	3801      	subs	r0, #1
 8002898:	0400      	lsls	r0, r0, #16
 800289a:	f400 00fe 	and.w	r0, r0, #8323072	@ 0x7f0000
 800289e:	4302      	orrs	r2, r0
 80028a0:	6d60      	ldr	r0, [r4, #84]	@ 0x54
 80028a2:	3801      	subs	r0, #1
 80028a4:	0600      	lsls	r0, r0, #24
 80028a6:	f000 40fe 	and.w	r0, r0, #2130706432	@ 0x7f000000
 80028aa:	4302      	orrs	r2, r0
 80028ac:	635a      	str	r2, [r3, #52]	@ 0x34
 80028ae:	6a9a      	ldr	r2, [r3, #40]	@ 0x28
 80028b0:	f022 0210 	bic.w	r2, r2, #16
 80028b4:	629a      	str	r2, [r3, #40]	@ 0x28
 80028b6:	6de2      	ldr	r2, [r4, #92]	@ 0x5c
 80028b8:	00d2      	lsls	r2, r2, #3
 80028ba:	639a      	str	r2, [r3, #56]	@ 0x38
 80028bc:	6a9a      	ldr	r2, [r3, #40]	@ 0x28
 80028be:	f042 0210 	orr.w	r2, r2, #16
 80028c2:	629a      	str	r2, [r3, #40]	@ 0x28
 80028c4:	6a9a      	ldr	r2, [r3, #40]	@ 0x28
 80028c6:	6da0      	ldr	r0, [r4, #88]	@ 0x58
 80028c8:	f022 020c 	bic.w	r2, r2, #12
 80028cc:	4302      	orrs	r2, r0
 80028ce:	629a      	str	r2, [r3, #40]	@ 0x28
 80028d0:	0370      	lsls	r0, r6, #13
 80028d2:	bf42      	ittt	mi
 80028d4:	68ea      	ldrmi	r2, [r5, #12]
 80028d6:	f442 2280 	orrmi.w	r2, r2, #262144	@ 0x40000
 80028da:	60ea      	strmi	r2, [r5, #12]
 80028dc:	b129      	cbz	r1, 80028ea <HAL_RCC_OscConfig+0x7b2>
 80028de:	f8d3 2094 	ldr.w	r2, [r3, #148]	@ 0x94
 80028e2:	f022 0204 	bic.w	r2, r2, #4
 80028e6:	f8c3 2094 	str.w	r2, [r3, #148]	@ 0x94
 80028ea:	681a      	ldr	r2, [r3, #0]
 80028ec:	4c16      	ldr	r4, [pc, #88]	@ (8002948 <HAL_RCC_OscConfig+0x810>)
 80028ee:	f042 7280 	orr.w	r2, r2, #16777216	@ 0x1000000
 80028f2:	601a      	str	r2, [r3, #0]
 80028f4:	f7fe f984 	bl	8000c00 <HAL_GetTick>
 80028f8:	4605      	mov	r5, r0
 80028fa:	6823      	ldr	r3, [r4, #0]
 80028fc:	019a      	lsls	r2, r3, #6
 80028fe:	d50a      	bpl.n	8002916 <HAL_RCC_OscConfig+0x7de>
 8002900:	6aa3      	ldr	r3, [r4, #40]	@ 0x28
 8002902:	f443 2380 	orr.w	r3, r3, #262144	@ 0x40000
 8002906:	62a3      	str	r3, [r4, #40]	@ 0x28
 8002908:	e6bb      	b.n	8002682 <HAL_RCC_OscConfig+0x54a>
 800290a:	f7fe f979 	bl	8000c00 <HAL_GetTick>
 800290e:	1b80      	subs	r0, r0, r6
 8002910:	2802      	cmp	r0, #2
 8002912:	d988      	bls.n	8002826 <HAL_RCC_OscConfig+0x6ee>
 8002914:	e4fc      	b.n	8002310 <HAL_RCC_OscConfig+0x1d8>
 8002916:	f7fe f973 	bl	8000c00 <HAL_GetTick>
 800291a:	1b40      	subs	r0, r0, r5
 800291c:	2802      	cmp	r0, #2
 800291e:	d9ec      	bls.n	80028fa <HAL_RCC_OscConfig+0x7c2>
 8002920:	e4f6      	b.n	8002310 <HAL_RCC_OscConfig+0x1d8>
 8002922:	f7fe f96d 	bl	8000c00 <HAL_GetTick>
 8002926:	4604      	mov	r4, r0
 8002928:	682b      	ldr	r3, [r5, #0]
 800292a:	019b      	lsls	r3, r3, #6
 800292c:	d406      	bmi.n	800293c <HAL_RCC_OscConfig+0x804>
 800292e:	6aab      	ldr	r3, [r5, #40]	@ 0x28
 8002930:	f423 23e0 	bic.w	r3, r3, #458752	@ 0x70000
 8002934:	f023 0303 	bic.w	r3, r3, #3
 8002938:	62ab      	str	r3, [r5, #40]	@ 0x28
 800293a:	e6a2      	b.n	8002682 <HAL_RCC_OscConfig+0x54a>
 800293c:	f7fe f960 	bl	8000c00 <HAL_GetTick>
 8002940:	1b00      	subs	r0, r0, r4
 8002942:	2802      	cmp	r0, #2
 8002944:	d9f0      	bls.n	8002928 <HAL_RCC_OscConfig+0x7f0>
 8002946:	e4e3      	b.n	8002310 <HAL_RCC_OscConfig+0x1d8>
 8002948:	46020c00 	.word	0x46020c00
 800294c:	46020800 	.word	0x46020800
 8002950:	80800000 	.word	0x80800000
 8002954:	2901      	cmp	r1, #1
 8002956:	6aaa      	ldr	r2, [r5, #40]	@ 0x28
 8002958:	6b6b      	ldr	r3, [r5, #52]	@ 0x34
 800295a:	f43f ac2c 	beq.w	80021b6 <HAL_RCC_OscConfig+0x7e>
 800295e:	6be0      	ldr	r0, [r4, #60]	@ 0x3c
 8002960:	f002 0103 	and.w	r1, r2, #3
 8002964:	4281      	cmp	r1, r0
 8002966:	f47f ac26 	bne.w	80021b6 <HAL_RCC_OscConfig+0x7e>
 800296a:	6c21      	ldr	r1, [r4, #64]	@ 0x40
 800296c:	f3c2 2003 	ubfx	r0, r2, #8, #4
 8002970:	3901      	subs	r1, #1
 8002972:	4288      	cmp	r0, r1
 8002974:	f47f ac1f 	bne.w	80021b6 <HAL_RCC_OscConfig+0x7e>
 8002978:	6c61      	ldr	r1, [r4, #68]	@ 0x44
 800297a:	f402 4270 	and.w	r2, r2, #61440	@ 0xf000
 800297e:	428a      	cmp	r2, r1
 8002980:	f47f ac19 	bne.w	80021b6 <HAL_RCC_OscConfig+0x7e>
 8002984:	6ca2      	ldr	r2, [r4, #72]	@ 0x48
 8002986:	f3c3 0108 	ubfx	r1, r3, #0, #9
 800298a:	3a01      	subs	r2, #1
 800298c:	4291      	cmp	r1, r2
 800298e:	f47f ac12 	bne.w	80021b6 <HAL_RCC_OscConfig+0x7e>
 8002992:	6ce2      	ldr	r2, [r4, #76]	@ 0x4c
 8002994:	f3c3 2146 	ubfx	r1, r3, #9, #7
 8002998:	3a01      	subs	r2, #1
 800299a:	4291      	cmp	r1, r2
 800299c:	f47f ac0b 	bne.w	80021b6 <HAL_RCC_OscConfig+0x7e>
 80029a0:	6d22      	ldr	r2, [r4, #80]	@ 0x50
 80029a2:	f3c3 4106 	ubfx	r1, r3, #16, #7
 80029a6:	3a01      	subs	r2, #1
 80029a8:	4291      	cmp	r1, r2
 80029aa:	f47f ac04 	bne.w	80021b6 <HAL_RCC_OscConfig+0x7e>
 80029ae:	6d62      	ldr	r2, [r4, #84]	@ 0x54
 80029b0:	f3c3 6306 	ubfx	r3, r3, #24, #7
 80029b4:	3a01      	subs	r2, #1
 80029b6:	4293      	cmp	r3, r2
 80029b8:	f47f abfd 	bne.w	80021b6 <HAL_RCC_OscConfig+0x7e>
 80029bc:	4b0d      	ldr	r3, [pc, #52]	@ (80029f4 <HAL_RCC_OscConfig+0x8bc>)
 80029be:	6de1      	ldr	r1, [r4, #92]	@ 0x5c
 80029c0:	6b9a      	ldr	r2, [r3, #56]	@ 0x38
 80029c2:	f3c2 02cc 	ubfx	r2, r2, #3, #13
 80029c6:	428a      	cmp	r2, r1
 80029c8:	f43f ae5b 	beq.w	8002682 <HAL_RCC_OscConfig+0x54a>
 80029cc:	6a9a      	ldr	r2, [r3, #40]	@ 0x28
 80029ce:	f022 0210 	bic.w	r2, r2, #16
 80029d2:	629a      	str	r2, [r3, #40]	@ 0x28
 80029d4:	f7fe f914 	bl	8000c00 <HAL_GetTick>
 80029d8:	4605      	mov	r5, r0
 80029da:	f7fe f911 	bl	8000c00 <HAL_GetTick>
 80029de:	42a8      	cmp	r0, r5
 80029e0:	d0fb      	beq.n	80029da <HAL_RCC_OscConfig+0x8a2>
 80029e2:	6de2      	ldr	r2, [r4, #92]	@ 0x5c
 80029e4:	4b03      	ldr	r3, [pc, #12]	@ (80029f4 <HAL_RCC_OscConfig+0x8bc>)
 80029e6:	00d2      	lsls	r2, r2, #3
 80029e8:	639a      	str	r2, [r3, #56]	@ 0x38
 80029ea:	6a9a      	ldr	r2, [r3, #40]	@ 0x28
 80029ec:	f042 0210 	orr.w	r2, r2, #16
 80029f0:	629a      	str	r2, [r3, #40]	@ 0x28
 80029f2:	e646      	b.n	8002682 <HAL_RCC_OscConfig+0x54a>
 80029f4:	46020c00 	.word	0x46020c00

080029f8 <HAL_RCC_GetPCLK1Freq>:
 80029f8:	b508      	push	{r3, lr}
 80029fa:	f7ff fb89 	bl	8002110 <HAL_RCC_GetHCLKFreq>
 80029fe:	4b04      	ldr	r3, [pc, #16]	@ (8002a10 <HAL_RCC_GetPCLK1Freq+0x18>)
 8002a00:	4a04      	ldr	r2, [pc, #16]	@ (8002a14 <HAL_RCC_GetPCLK1Freq+0x1c>)
 8002a02:	6a1b      	ldr	r3, [r3, #32]
 8002a04:	f3c3 1302 	ubfx	r3, r3, #4, #3
 8002a08:	5cd3      	ldrb	r3, [r2, r3]
 8002a0a:	40d8      	lsrs	r0, r3
 8002a0c:	bd08      	pop	{r3, pc}
 8002a0e:	bf00      	nop
 8002a10:	46020c00 	.word	0x46020c00
 8002a14:	080049ec 	.word	0x080049ec

08002a18 <HAL_RCC_GetPCLK2Freq>:
 8002a18:	b508      	push	{r3, lr}
 8002a1a:	f7ff fb79 	bl	8002110 <HAL_RCC_GetHCLKFreq>
 8002a1e:	4b04      	ldr	r3, [pc, #16]	@ (8002a30 <HAL_RCC_GetPCLK2Freq+0x18>)
 8002a20:	4a04      	ldr	r2, [pc, #16]	@ (8002a34 <HAL_RCC_GetPCLK2Freq+0x1c>)
 8002a22:	6a1b      	ldr	r3, [r3, #32]
 8002a24:	f3c3 2302 	ubfx	r3, r3, #8, #3
 8002a28:	5cd3      	ldrb	r3, [r2, r3]
 8002a2a:	40d8      	lsrs	r0, r3
 8002a2c:	bd08      	pop	{r3, pc}
 8002a2e:	bf00      	nop
 8002a30:	46020c00 	.word	0x46020c00
 8002a34:	080049ec 	.word	0x080049ec

08002a38 <HAL_RCC_GetPCLK3Freq>:
 8002a38:	b508      	push	{r3, lr}
 8002a3a:	f7ff fb69 	bl	8002110 <HAL_RCC_GetHCLKFreq>
 8002a3e:	4b04      	ldr	r3, [pc, #16]	@ (8002a50 <HAL_RCC_GetPCLK3Freq+0x18>)
 8002a40:	4a04      	ldr	r2, [pc, #16]	@ (8002a54 <HAL_RCC_GetPCLK3Freq+0x1c>)
 8002a42:	6a5b      	ldr	r3, [r3, #36]	@ 0x24
 8002a44:	f3c3 1302 	ubfx	r3, r3, #4, #3
 8002a48:	5cd3      	ldrb	r3, [r2, r3]
 8002a4a:	40d8      	lsrs	r0, r3
 8002a4c:	bd08      	pop	{r3, pc}
 8002a4e:	bf00      	nop
 8002a50:	46020c00 	.word	0x46020c00
 8002a54:	080049ec 	.word	0x080049ec

08002a58 <RCCEx_PLL3_Config>:
 8002a58:	b570      	push	{r4, r5, r6, lr}
 8002a5a:	4c32      	ldr	r4, [pc, #200]	@ (8002b24 <RCCEx_PLL3_Config+0xcc>)
 8002a5c:	4605      	mov	r5, r0
 8002a5e:	6823      	ldr	r3, [r4, #0]
 8002a60:	f023 5380 	bic.w	r3, r3, #268435456	@ 0x10000000
 8002a64:	6023      	str	r3, [r4, #0]
 8002a66:	f7fe f8cb 	bl	8000c00 <HAL_GetTick>
 8002a6a:	4606      	mov	r6, r0
 8002a6c:	6823      	ldr	r3, [r4, #0]
 8002a6e:	009a      	lsls	r2, r3, #2
 8002a70:	d44b      	bmi.n	8002b0a <RCCEx_PLL3_Config+0xb2>
 8002a72:	6b23      	ldr	r3, [r4, #48]	@ 0x30
 8002a74:	6829      	ldr	r1, [r5, #0]
 8002a76:	686a      	ldr	r2, [r5, #4]
 8002a78:	f423 6370 	bic.w	r3, r3, #3840	@ 0xf00
 8002a7c:	f023 0303 	bic.w	r3, r3, #3
 8002a80:	3a01      	subs	r2, #1
 8002a82:	430b      	orrs	r3, r1
 8002a84:	ea43 2302 	orr.w	r3, r3, r2, lsl #8
 8002a88:	6323      	str	r3, [r4, #48]	@ 0x30
 8002a8a:	68ab      	ldr	r3, [r5, #8]
 8002a8c:	6c61      	ldr	r1, [r4, #68]	@ 0x44
 8002a8e:	4a26      	ldr	r2, [pc, #152]	@ (8002b28 <RCCEx_PLL3_Config+0xd0>)
 8002a90:	3b01      	subs	r3, #1
 8002a92:	400a      	ands	r2, r1
 8002a94:	f3c3 0308 	ubfx	r3, r3, #0, #9
 8002a98:	4313      	orrs	r3, r2
 8002a9a:	68ea      	ldr	r2, [r5, #12]
 8002a9c:	3a01      	subs	r2, #1
 8002a9e:	0252      	lsls	r2, r2, #9
 8002aa0:	b292      	uxth	r2, r2
 8002aa2:	4313      	orrs	r3, r2
 8002aa4:	692a      	ldr	r2, [r5, #16]
 8002aa6:	3a01      	subs	r2, #1
 8002aa8:	0412      	lsls	r2, r2, #16
 8002aaa:	f402 02fe 	and.w	r2, r2, #8323072	@ 0x7f0000
 8002aae:	4313      	orrs	r3, r2
 8002ab0:	696a      	ldr	r2, [r5, #20]
 8002ab2:	3a01      	subs	r2, #1
 8002ab4:	0612      	lsls	r2, r2, #24
 8002ab6:	f002 42fe 	and.w	r2, r2, #2130706432	@ 0x7f000000
 8002aba:	4313      	orrs	r3, r2
 8002abc:	6463      	str	r3, [r4, #68]	@ 0x44
 8002abe:	6b23      	ldr	r3, [r4, #48]	@ 0x30
 8002ac0:	69aa      	ldr	r2, [r5, #24]
 8002ac2:	f023 030c 	bic.w	r3, r3, #12
 8002ac6:	4313      	orrs	r3, r2
 8002ac8:	6323      	str	r3, [r4, #48]	@ 0x30
 8002aca:	6b23      	ldr	r3, [r4, #48]	@ 0x30
 8002acc:	6a2a      	ldr	r2, [r5, #32]
 8002ace:	4313      	orrs	r3, r2
 8002ad0:	6323      	str	r3, [r4, #48]	@ 0x30
 8002ad2:	6b23      	ldr	r3, [r4, #48]	@ 0x30
 8002ad4:	f023 0310 	bic.w	r3, r3, #16
 8002ad8:	6323      	str	r3, [r4, #48]	@ 0x30
 8002ada:	6ca3      	ldr	r3, [r4, #72]	@ 0x48
 8002adc:	69ea      	ldr	r2, [r5, #28]
 8002ade:	f36f 03cf 	bfc	r3, #3, #13
 8002ae2:	ea43 03c2 	orr.w	r3, r3, r2, lsl #3
 8002ae6:	64a3      	str	r3, [r4, #72]	@ 0x48
 8002ae8:	6b23      	ldr	r3, [r4, #48]	@ 0x30
 8002aea:	4d0e      	ldr	r5, [pc, #56]	@ (8002b24 <RCCEx_PLL3_Config+0xcc>)
 8002aec:	f043 0310 	orr.w	r3, r3, #16
 8002af0:	6323      	str	r3, [r4, #48]	@ 0x30
 8002af2:	6823      	ldr	r3, [r4, #0]
 8002af4:	f043 5380 	orr.w	r3, r3, #268435456	@ 0x10000000
 8002af8:	6023      	str	r3, [r4, #0]
 8002afa:	f7fe f881 	bl	8000c00 <HAL_GetTick>
 8002afe:	4604      	mov	r4, r0
 8002b00:	682b      	ldr	r3, [r5, #0]
 8002b02:	009b      	lsls	r3, r3, #2
 8002b04:	d508      	bpl.n	8002b18 <RCCEx_PLL3_Config+0xc0>
 8002b06:	2000      	movs	r0, #0
 8002b08:	e005      	b.n	8002b16 <RCCEx_PLL3_Config+0xbe>
 8002b0a:	f7fe f879 	bl	8000c00 <HAL_GetTick>
 8002b0e:	1b80      	subs	r0, r0, r6
 8002b10:	2802      	cmp	r0, #2
 8002b12:	d9ab      	bls.n	8002a6c <RCCEx_PLL3_Config+0x14>
 8002b14:	2003      	movs	r0, #3
 8002b16:	bd70      	pop	{r4, r5, r6, pc}
 8002b18:	f7fe f872 	bl	8000c00 <HAL_GetTick>
 8002b1c:	1b00      	subs	r0, r0, r4
 8002b1e:	2802      	cmp	r0, #2
 8002b20:	d9ee      	bls.n	8002b00 <RCCEx_PLL3_Config+0xa8>
 8002b22:	e7f7      	b.n	8002b14 <RCCEx_PLL3_Config+0xbc>
 8002b24:	46020c00 	.word	0x46020c00
 8002b28:	80800000 	.word	0x80800000

08002b2c <RCCEx_PLL2_Config>:
 8002b2c:	b570      	push	{r4, r5, r6, lr}
 8002b2e:	4c32      	ldr	r4, [pc, #200]	@ (8002bf8 <RCCEx_PLL2_Config+0xcc>)
 8002b30:	4605      	mov	r5, r0
 8002b32:	6823      	ldr	r3, [r4, #0]
 8002b34:	f023 6380 	bic.w	r3, r3, #67108864	@ 0x4000000
 8002b38:	6023      	str	r3, [r4, #0]
 8002b3a:	f7fe f861 	bl	8000c00 <HAL_GetTick>
 8002b3e:	4606      	mov	r6, r0
 8002b40:	6823      	ldr	r3, [r4, #0]
 8002b42:	011a      	lsls	r2, r3, #4
 8002b44:	d44b      	bmi.n	8002bde <RCCEx_PLL2_Config+0xb2>
 8002b46:	6ae3      	ldr	r3, [r4, #44]	@ 0x2c
 8002b48:	6829      	ldr	r1, [r5, #0]
 8002b4a:	686a      	ldr	r2, [r5, #4]
 8002b4c:	f423 6370 	bic.w	r3, r3, #3840	@ 0xf00
 8002b50:	f023 0303 	bic.w	r3, r3, #3
 8002b54:	3a01      	subs	r2, #1
 8002b56:	430b      	orrs	r3, r1
 8002b58:	ea43 2302 	orr.w	r3, r3, r2, lsl #8
 8002b5c:	62e3      	str	r3, [r4, #44]	@ 0x2c
 8002b5e:	68ab      	ldr	r3, [r5, #8]
 8002b60:	6be1      	ldr	r1, [r4, #60]	@ 0x3c
 8002b62:	4a26      	ldr	r2, [pc, #152]	@ (8002bfc <RCCEx_PLL2_Config+0xd0>)
 8002b64:	3b01      	subs	r3, #1
 8002b66:	400a      	ands	r2, r1
 8002b68:	f3c3 0308 	ubfx	r3, r3, #0, #9
 8002b6c:	4313      	orrs	r3, r2
 8002b6e:	68ea      	ldr	r2, [r5, #12]
 8002b70:	3a01      	subs	r2, #1
 8002b72:	0252      	lsls	r2, r2, #9
 8002b74:	b292      	uxth	r2, r2
 8002b76:	4313      	orrs	r3, r2
 8002b78:	692a      	ldr	r2, [r5, #16]
 8002b7a:	3a01      	subs	r2, #1
 8002b7c:	0412      	lsls	r2, r2, #16
 8002b7e:	f402 02fe 	and.w	r2, r2, #8323072	@ 0x7f0000
 8002b82:	4313      	orrs	r3, r2
 8002b84:	696a      	ldr	r2, [r5, #20]
 8002b86:	3a01      	subs	r2, #1
 8002b88:	0612      	lsls	r2, r2, #24
 8002b8a:	f002 42fe 	and.w	r2, r2, #2130706432	@ 0x7f000000
 8002b8e:	4313      	orrs	r3, r2
 8002b90:	63e3      	str	r3, [r4, #60]	@ 0x3c
 8002b92:	6ae3      	ldr	r3, [r4, #44]	@ 0x2c
 8002b94:	69aa      	ldr	r2, [r5, #24]
 8002b96:	f023 030c 	bic.w	r3, r3, #12
 8002b9a:	4313      	orrs	r3, r2
 8002b9c:	62e3      	str	r3, [r4, #44]	@ 0x2c
 8002b9e:	6ae3      	ldr	r3, [r4, #44]	@ 0x2c
 8002ba0:	6a2a      	ldr	r2, [r5, #32]
 8002ba2:	4313      	orrs	r3, r2
 8002ba4:	62e3      	str	r3, [r4, #44]	@ 0x2c
 8002ba6:	6ae3      	ldr	r3, [r4, #44]	@ 0x2c
 8002ba8:	f023 0310 	bic.w	r3, r3, #16
 8002bac:	62e3      	str	r3, [r4, #44]	@ 0x2c
 8002bae:	6c23      	ldr	r3, [r4, #64]	@ 0x40
 8002bb0:	69ea      	ldr	r2, [r5, #28]
 8002bb2:	f36f 03cf 	bfc	r3, #3, #13
 8002bb6:	ea43 03c2 	orr.w	r3, r3, r2, lsl #3
 8002bba:	6423      	str	r3, [r4, #64]	@ 0x40
 8002bbc:	6ae3      	ldr	r3, [r4, #44]	@ 0x2c
 8002bbe:	4d0e      	ldr	r5, [pc, #56]	@ (8002bf8 <RCCEx_PLL2_Config+0xcc>)
 8002bc0:	f043 0310 	orr.w	r3, r3, #16
 8002bc4:	62e3      	str	r3, [r4, #44]	@ 0x2c
 8002bc6:	6823      	ldr	r3, [r4, #0]
 8002bc8:	f043 6380 	orr.w	r3, r3, #67108864	@ 0x4000000
 8002bcc:	6023      	str	r3, [r4, #0]
 8002bce:	f7fe f817 	bl	8000c00 <HAL_GetTick>
 8002bd2:	4604      	mov	r4, r0
 8002bd4:	682b      	ldr	r3, [r5, #0]
 8002bd6:	011b      	lsls	r3, r3, #4
 8002bd8:	d508      	bpl.n	8002bec <RCCEx_PLL2_Config+0xc0>
 8002bda:	2000      	movs	r0, #0
 8002bdc:	e005      	b.n	8002bea <RCCEx_PLL2_Config+0xbe>
 8002bde:	f7fe f80f 	bl	8000c00 <HAL_GetTick>
 8002be2:	1b80      	subs	r0, r0, r6
 8002be4:	2802      	cmp	r0, #2
 8002be6:	d9ab      	bls.n	8002b40 <RCCEx_PLL2_Config+0x14>
 8002be8:	2003      	movs	r0, #3
 8002bea:	bd70      	pop	{r4, r5, r6, pc}
 8002bec:	f7fe f808 	bl	8000c00 <HAL_GetTick>
 8002bf0:	1b00      	subs	r0, r0, r4
 8002bf2:	2802      	cmp	r0, #2
 8002bf4:	d9ee      	bls.n	8002bd4 <RCCEx_PLL2_Config+0xa8>
 8002bf6:	e7f7      	b.n	8002be8 <RCCEx_PLL2_Config+0xbc>
 8002bf8:	46020c00 	.word	0x46020c00
 8002bfc:	80800000 	.word	0x80800000

08002c00 <HAL_RCCEx_PeriphCLKConfig>:
 8002c00:	6803      	ldr	r3, [r0, #0]
 8002c02:	e92d 47f3 	stmdb	sp!, {r0, r1, r4, r5, r6, r7, r8, r9, sl, lr}
 8002c06:	07de      	lsls	r6, r3, #31
 8002c08:	4604      	mov	r4, r0
 8002c0a:	d508      	bpl.n	8002c1e <HAL_RCCEx_PeriphCLKConfig+0x1e>
 8002c0c:	49a6      	ldr	r1, [pc, #664]	@ (8002ea8 <HAL_RCCEx_PeriphCLKConfig+0x2a8>)
 8002c0e:	6d00      	ldr	r0, [r0, #80]	@ 0x50
 8002c10:	f8d1 20e0 	ldr.w	r2, [r1, #224]	@ 0xe0
 8002c14:	f022 0203 	bic.w	r2, r2, #3
 8002c18:	4302      	orrs	r2, r0
 8002c1a:	f8c1 20e0 	str.w	r2, [r1, #224]	@ 0xe0
 8002c1e:	079d      	lsls	r5, r3, #30
 8002c20:	d508      	bpl.n	8002c34 <HAL_RCCEx_PeriphCLKConfig+0x34>
 8002c22:	49a1      	ldr	r1, [pc, #644]	@ (8002ea8 <HAL_RCCEx_PeriphCLKConfig+0x2a8>)
 8002c24:	6d60      	ldr	r0, [r4, #84]	@ 0x54
 8002c26:	f8d1 20e0 	ldr.w	r2, [r1, #224]	@ 0xe0
 8002c2a:	f022 020c 	bic.w	r2, r2, #12
 8002c2e:	4302      	orrs	r2, r0
 8002c30:	f8c1 20e0 	str.w	r2, [r1, #224]	@ 0xe0
 8002c34:	0758      	lsls	r0, r3, #29
 8002c36:	d508      	bpl.n	8002c4a <HAL_RCCEx_PeriphCLKConfig+0x4a>
 8002c38:	499b      	ldr	r1, [pc, #620]	@ (8002ea8 <HAL_RCCEx_PeriphCLKConfig+0x2a8>)
 8002c3a:	6da0      	ldr	r0, [r4, #88]	@ 0x58
 8002c3c:	f8d1 20e0 	ldr.w	r2, [r1, #224]	@ 0xe0
 8002c40:	f022 0230 	bic.w	r2, r2, #48	@ 0x30
 8002c44:	4302      	orrs	r2, r0
 8002c46:	f8c1 20e0 	str.w	r2, [r1, #224]	@ 0xe0
 8002c4a:	0719      	lsls	r1, r3, #28
 8002c4c:	d508      	bpl.n	8002c60 <HAL_RCCEx_PeriphCLKConfig+0x60>
 8002c4e:	4996      	ldr	r1, [pc, #600]	@ (8002ea8 <HAL_RCCEx_PeriphCLKConfig+0x2a8>)
 8002c50:	6de0      	ldr	r0, [r4, #92]	@ 0x5c
 8002c52:	f8d1 20e0 	ldr.w	r2, [r1, #224]	@ 0xe0
 8002c56:	f022 02c0 	bic.w	r2, r2, #192	@ 0xc0
 8002c5a:	4302      	orrs	r2, r0
 8002c5c:	f8c1 20e0 	str.w	r2, [r1, #224]	@ 0xe0
 8002c60:	06da      	lsls	r2, r3, #27
 8002c62:	d508      	bpl.n	8002c76 <HAL_RCCEx_PeriphCLKConfig+0x76>
 8002c64:	4990      	ldr	r1, [pc, #576]	@ (8002ea8 <HAL_RCCEx_PeriphCLKConfig+0x2a8>)
 8002c66:	6e20      	ldr	r0, [r4, #96]	@ 0x60
 8002c68:	f8d1 20e0 	ldr.w	r2, [r1, #224]	@ 0xe0
 8002c6c:	f422 7240 	bic.w	r2, r2, #768	@ 0x300
 8002c70:	4302      	orrs	r2, r0
 8002c72:	f8c1 20e0 	str.w	r2, [r1, #224]	@ 0xe0
 8002c76:	069f      	lsls	r7, r3, #26
 8002c78:	d508      	bpl.n	8002c8c <HAL_RCCEx_PeriphCLKConfig+0x8c>
 8002c7a:	498b      	ldr	r1, [pc, #556]	@ (8002ea8 <HAL_RCCEx_PeriphCLKConfig+0x2a8>)
 8002c7c:	6e60      	ldr	r0, [r4, #100]	@ 0x64
 8002c7e:	f8d1 20e8 	ldr.w	r2, [r1, #232]	@ 0xe8
 8002c82:	f022 0207 	bic.w	r2, r2, #7
 8002c86:	4302      	orrs	r2, r0
 8002c88:	f8c1 20e8 	str.w	r2, [r1, #232]	@ 0xe8
 8002c8c:	065e      	lsls	r6, r3, #25
 8002c8e:	d508      	bpl.n	8002ca2 <HAL_RCCEx_PeriphCLKConfig+0xa2>
 8002c90:	4985      	ldr	r1, [pc, #532]	@ (8002ea8 <HAL_RCCEx_PeriphCLKConfig+0x2a8>)
 8002c92:	6ea0      	ldr	r0, [r4, #104]	@ 0x68
 8002c94:	f8d1 20e0 	ldr.w	r2, [r1, #224]	@ 0xe0
 8002c98:	f422 6240 	bic.w	r2, r2, #3072	@ 0xc00
 8002c9c:	4302      	orrs	r2, r0
 8002c9e:	f8c1 20e0 	str.w	r2, [r1, #224]	@ 0xe0
 8002ca2:	061d      	lsls	r5, r3, #24
 8002ca4:	d508      	bpl.n	8002cb8 <HAL_RCCEx_PeriphCLKConfig+0xb8>
 8002ca6:	4980      	ldr	r1, [pc, #512]	@ (8002ea8 <HAL_RCCEx_PeriphCLKConfig+0x2a8>)
 8002ca8:	6ee0      	ldr	r0, [r4, #108]	@ 0x6c
 8002caa:	f8d1 20e0 	ldr.w	r2, [r1, #224]	@ 0xe0
 8002cae:	f422 5240 	bic.w	r2, r2, #12288	@ 0x3000
 8002cb2:	4302      	orrs	r2, r0
 8002cb4:	f8c1 20e0 	str.w	r2, [r1, #224]	@ 0xe0
 8002cb8:	05d8      	lsls	r0, r3, #23
 8002cba:	d508      	bpl.n	8002cce <HAL_RCCEx_PeriphCLKConfig+0xce>
 8002cbc:	497a      	ldr	r1, [pc, #488]	@ (8002ea8 <HAL_RCCEx_PeriphCLKConfig+0x2a8>)
 8002cbe:	6f20      	ldr	r0, [r4, #112]	@ 0x70
 8002cc0:	f8d1 20e8 	ldr.w	r2, [r1, #232]	@ 0xe8
 8002cc4:	f022 02c0 	bic.w	r2, r2, #192	@ 0xc0
 8002cc8:	4302      	orrs	r2, r0
 8002cca:	f8c1 20e8 	str.w	r2, [r1, #232]	@ 0xe8
 8002cce:	0259      	lsls	r1, r3, #9
 8002cd0:	d508      	bpl.n	8002ce4 <HAL_RCCEx_PeriphCLKConfig+0xe4>
 8002cd2:	4975      	ldr	r1, [pc, #468]	@ (8002ea8 <HAL_RCCEx_PeriphCLKConfig+0x2a8>)
 8002cd4:	6f60      	ldr	r0, [r4, #116]	@ 0x74
 8002cd6:	f8d1 20e0 	ldr.w	r2, [r1, #224]	@ 0xe0
 8002cda:	f422 4240 	bic.w	r2, r2, #49152	@ 0xc000
 8002cde:	4302      	orrs	r2, r0
 8002ce0:	f8c1 20e0 	str.w	r2, [r1, #224]	@ 0xe0
 8002ce4:	059a      	lsls	r2, r3, #22
 8002ce6:	d508      	bpl.n	8002cfa <HAL_RCCEx_PeriphCLKConfig+0xfa>
 8002ce8:	496f      	ldr	r1, [pc, #444]	@ (8002ea8 <HAL_RCCEx_PeriphCLKConfig+0x2a8>)
 8002cea:	6fa0      	ldr	r0, [r4, #120]	@ 0x78
 8002cec:	f8d1 20e8 	ldr.w	r2, [r1, #232]	@ 0xe8
 8002cf0:	f422 6240 	bic.w	r2, r2, #3072	@ 0xc00
 8002cf4:	4302      	orrs	r2, r0
 8002cf6:	f8c1 20e8 	str.w	r2, [r1, #232]	@ 0xe8
 8002cfa:	055f      	lsls	r7, r3, #21
 8002cfc:	d508      	bpl.n	8002d10 <HAL_RCCEx_PeriphCLKConfig+0x110>
 8002cfe:	496a      	ldr	r1, [pc, #424]	@ (8002ea8 <HAL_RCCEx_PeriphCLKConfig+0x2a8>)
 8002d00:	6fe0      	ldr	r0, [r4, #124]	@ 0x7c
 8002d02:	f8d1 20e0 	ldr.w	r2, [r1, #224]	@ 0xe0
 8002d06:	f422 2240 	bic.w	r2, r2, #786432	@ 0xc0000
 8002d0a:	4302      	orrs	r2, r0
 8002d0c:	f8c1 20e0 	str.w	r2, [r1, #224]	@ 0xe0
 8002d10:	051e      	lsls	r6, r3, #20
 8002d12:	d509      	bpl.n	8002d28 <HAL_RCCEx_PeriphCLKConfig+0x128>
 8002d14:	4964      	ldr	r1, [pc, #400]	@ (8002ea8 <HAL_RCCEx_PeriphCLKConfig+0x2a8>)
 8002d16:	f8d4 0080 	ldr.w	r0, [r4, #128]	@ 0x80
 8002d1a:	f8d1 20e8 	ldr.w	r2, [r1, #232]	@ 0xe8
 8002d1e:	f422 7240 	bic.w	r2, r2, #768	@ 0x300
 8002d22:	4302      	orrs	r2, r0
 8002d24:	f8c1 20e8 	str.w	r2, [r1, #232]	@ 0xe8
 8002d28:	049d      	lsls	r5, r3, #18
 8002d2a:	d527      	bpl.n	8002d7c <HAL_RCCEx_PeriphCLKConfig+0x17c>
 8002d2c:	f8d4 3090 	ldr.w	r3, [r4, #144]	@ 0x90
 8002d30:	2b40      	cmp	r3, #64	@ 0x40
 8002d32:	d025      	beq.n	8002d80 <HAL_RCCEx_PeriphCLKConfig+0x180>
 8002d34:	d814      	bhi.n	8002d60 <HAL_RCCEx_PeriphCLKConfig+0x160>
 8002d36:	b34b      	cbz	r3, 8002d8c <HAL_RCCEx_PeriphCLKConfig+0x18c>
 8002d38:	2b20      	cmp	r3, #32
 8002d3a:	d02f      	beq.n	8002d9c <HAL_RCCEx_PeriphCLKConfig+0x19c>
 8002d3c:	2601      	movs	r6, #1
 8002d3e:	6823      	ldr	r3, [r4, #0]
 8002d40:	0458      	lsls	r0, r3, #17
 8002d42:	d50b      	bpl.n	8002d5c <HAL_RCCEx_PeriphCLKConfig+0x15c>
 8002d44:	f8d4 3094 	ldr.w	r3, [r4, #148]	@ 0x94
 8002d48:	f5b3 7f00 	cmp.w	r3, #512	@ 0x200
 8002d4c:	d058      	beq.n	8002e00 <HAL_RCCEx_PeriphCLKConfig+0x200>
 8002d4e:	d82a      	bhi.n	8002da6 <HAL_RCCEx_PeriphCLKConfig+0x1a6>
 8002d50:	2b00      	cmp	r3, #0
 8002d52:	d05b      	beq.n	8002e0c <HAL_RCCEx_PeriphCLKConfig+0x20c>
 8002d54:	f5b3 7f80 	cmp.w	r3, #256	@ 0x100
 8002d58:	d05e      	beq.n	8002e18 <HAL_RCCEx_PeriphCLKConfig+0x218>
 8002d5a:	2601      	movs	r6, #1
 8002d5c:	4635      	mov	r5, r6
 8002d5e:	e035      	b.n	8002dcc <HAL_RCCEx_PeriphCLKConfig+0x1cc>
 8002d60:	2b60      	cmp	r3, #96	@ 0x60
 8002d62:	d001      	beq.n	8002d68 <HAL_RCCEx_PeriphCLKConfig+0x168>
 8002d64:	2b80      	cmp	r3, #128	@ 0x80
 8002d66:	d1e9      	bne.n	8002d3c <HAL_RCCEx_PeriphCLKConfig+0x13c>
 8002d68:	4a4f      	ldr	r2, [pc, #316]	@ (8002ea8 <HAL_RCCEx_PeriphCLKConfig+0x2a8>)
 8002d6a:	f8d4 1090 	ldr.w	r1, [r4, #144]	@ 0x90
 8002d6e:	f8d2 30e4 	ldr.w	r3, [r2, #228]	@ 0xe4
 8002d72:	f023 03e0 	bic.w	r3, r3, #224	@ 0xe0
 8002d76:	430b      	orrs	r3, r1
 8002d78:	f8c2 30e4 	str.w	r3, [r2, #228]	@ 0xe4
 8002d7c:	2600      	movs	r6, #0
 8002d7e:	e7de      	b.n	8002d3e <HAL_RCCEx_PeriphCLKConfig+0x13e>
 8002d80:	4a49      	ldr	r2, [pc, #292]	@ (8002ea8 <HAL_RCCEx_PeriphCLKConfig+0x2a8>)
 8002d82:	6a93      	ldr	r3, [r2, #40]	@ 0x28
 8002d84:	f443 3380 	orr.w	r3, r3, #65536	@ 0x10000
 8002d88:	6293      	str	r3, [r2, #40]	@ 0x28
 8002d8a:	e7ed      	b.n	8002d68 <HAL_RCCEx_PeriphCLKConfig+0x168>
 8002d8c:	f104 0008 	add.w	r0, r4, #8
 8002d90:	f7ff fecc 	bl	8002b2c <RCCEx_PLL2_Config>
 8002d94:	4606      	mov	r6, r0
 8002d96:	2800      	cmp	r0, #0
 8002d98:	d1d1      	bne.n	8002d3e <HAL_RCCEx_PeriphCLKConfig+0x13e>
 8002d9a:	e7e5      	b.n	8002d68 <HAL_RCCEx_PeriphCLKConfig+0x168>
 8002d9c:	f104 002c 	add.w	r0, r4, #44	@ 0x2c
 8002da0:	f7ff fe5a 	bl	8002a58 <RCCEx_PLL3_Config>
 8002da4:	e7f6      	b.n	8002d94 <HAL_RCCEx_PeriphCLKConfig+0x194>
 8002da6:	f5b3 7f40 	cmp.w	r3, #768	@ 0x300
 8002daa:	d002      	beq.n	8002db2 <HAL_RCCEx_PeriphCLKConfig+0x1b2>
 8002dac:	f5b3 6f80 	cmp.w	r3, #1024	@ 0x400
 8002db0:	d1d3      	bne.n	8002d5a <HAL_RCCEx_PeriphCLKConfig+0x15a>
 8002db2:	4635      	mov	r5, r6
 8002db4:	2d00      	cmp	r5, #0
 8002db6:	d134      	bne.n	8002e22 <HAL_RCCEx_PeriphCLKConfig+0x222>
 8002db8:	4a3b      	ldr	r2, [pc, #236]	@ (8002ea8 <HAL_RCCEx_PeriphCLKConfig+0x2a8>)
 8002dba:	f8d4 1094 	ldr.w	r1, [r4, #148]	@ 0x94
 8002dbe:	f8d2 30e4 	ldr.w	r3, [r2, #228]	@ 0xe4
 8002dc2:	f423 63e0 	bic.w	r3, r3, #1792	@ 0x700
 8002dc6:	430b      	orrs	r3, r1
 8002dc8:	f8c2 30e4 	str.w	r3, [r2, #228]	@ 0xe4
 8002dcc:	6823      	ldr	r3, [r4, #0]
 8002dce:	0419      	lsls	r1, r3, #16
 8002dd0:	d50a      	bpl.n	8002de8 <HAL_RCCEx_PeriphCLKConfig+0x1e8>
 8002dd2:	f8d4 30a4 	ldr.w	r3, [r4, #164]	@ 0xa4
 8002dd6:	f5b3 5f00 	cmp.w	r3, #8192	@ 0x2000
 8002dda:	d036      	beq.n	8002e4a <HAL_RCCEx_PeriphCLKConfig+0x24a>
 8002ddc:	f423 5280 	bic.w	r2, r3, #4096	@ 0x1000
 8002de0:	d821      	bhi.n	8002e26 <HAL_RCCEx_PeriphCLKConfig+0x226>
 8002de2:	b332      	cbz	r2, 8002e32 <HAL_RCCEx_PeriphCLKConfig+0x232>
 8002de4:	2601      	movs	r6, #1
 8002de6:	4635      	mov	r5, r6
 8002de8:	6823      	ldr	r3, [r4, #0]
 8002dea:	03da      	lsls	r2, r3, #15
 8002dec:	d545      	bpl.n	8002e7a <HAL_RCCEx_PeriphCLKConfig+0x27a>
 8002dee:	f8d4 3088 	ldr.w	r3, [r4, #136]	@ 0x88
 8002df2:	2b04      	cmp	r3, #4
 8002df4:	d85a      	bhi.n	8002eac <HAL_RCCEx_PeriphCLKConfig+0x2ac>
 8002df6:	e8df f003 	tbb	[pc, r3]
 8002dfa:	3035      	.short	0x3035
 8002dfc:	3550      	.short	0x3550
 8002dfe:	35          	.byte	0x35
 8002dff:	00          	.byte	0x00
 8002e00:	4a29      	ldr	r2, [pc, #164]	@ (8002ea8 <HAL_RCCEx_PeriphCLKConfig+0x2a8>)
 8002e02:	6a93      	ldr	r3, [r2, #40]	@ 0x28
 8002e04:	f443 3380 	orr.w	r3, r3, #65536	@ 0x10000
 8002e08:	6293      	str	r3, [r2, #40]	@ 0x28
 8002e0a:	e7d2      	b.n	8002db2 <HAL_RCCEx_PeriphCLKConfig+0x1b2>
 8002e0c:	f104 0008 	add.w	r0, r4, #8
 8002e10:	f7ff fe8c 	bl	8002b2c <RCCEx_PLL2_Config>
 8002e14:	4605      	mov	r5, r0
 8002e16:	e7cd      	b.n	8002db4 <HAL_RCCEx_PeriphCLKConfig+0x1b4>
 8002e18:	f104 002c 	add.w	r0, r4, #44	@ 0x2c
 8002e1c:	f7ff fe1c 	bl	8002a58 <RCCEx_PLL3_Config>
 8002e20:	e7f8      	b.n	8002e14 <HAL_RCCEx_PeriphCLKConfig+0x214>
 8002e22:	462e      	mov	r6, r5
 8002e24:	e7d2      	b.n	8002dcc <HAL_RCCEx_PeriphCLKConfig+0x1cc>
 8002e26:	f5b2 4f80 	cmp.w	r2, #16384	@ 0x4000
 8002e2a:	d002      	beq.n	8002e32 <HAL_RCCEx_PeriphCLKConfig+0x232>
 8002e2c:	f5b3 5f40 	cmp.w	r3, #12288	@ 0x3000
 8002e30:	d1d8      	bne.n	8002de4 <HAL_RCCEx_PeriphCLKConfig+0x1e4>
 8002e32:	b985      	cbnz	r5, 8002e56 <HAL_RCCEx_PeriphCLKConfig+0x256>
 8002e34:	4a1c      	ldr	r2, [pc, #112]	@ (8002ea8 <HAL_RCCEx_PeriphCLKConfig+0x2a8>)
 8002e36:	f8d4 10a4 	ldr.w	r1, [r4, #164]	@ 0xa4
 8002e3a:	f8d2 30e8 	ldr.w	r3, [r2, #232]	@ 0xe8
 8002e3e:	f423 43e0 	bic.w	r3, r3, #28672	@ 0x7000
 8002e42:	430b      	orrs	r3, r1
 8002e44:	f8c2 30e8 	str.w	r3, [r2, #232]	@ 0xe8
 8002e48:	e7ce      	b.n	8002de8 <HAL_RCCEx_PeriphCLKConfig+0x1e8>
 8002e4a:	f104 0008 	add.w	r0, r4, #8
 8002e4e:	f7ff fe6d 	bl	8002b2c <RCCEx_PLL2_Config>
 8002e52:	4605      	mov	r5, r0
 8002e54:	e7ed      	b.n	8002e32 <HAL_RCCEx_PeriphCLKConfig+0x232>
 8002e56:	462e      	mov	r6, r5
 8002e58:	e7c6      	b.n	8002de8 <HAL_RCCEx_PeriphCLKConfig+0x1e8>
 8002e5a:	4a13      	ldr	r2, [pc, #76]	@ (8002ea8 <HAL_RCCEx_PeriphCLKConfig+0x2a8>)
 8002e5c:	6a93      	ldr	r3, [r2, #40]	@ 0x28
 8002e5e:	f443 3380 	orr.w	r3, r3, #65536	@ 0x10000
 8002e62:	6293      	str	r3, [r2, #40]	@ 0x28
 8002e64:	bb2d      	cbnz	r5, 8002eb2 <HAL_RCCEx_PeriphCLKConfig+0x2b2>
 8002e66:	4a10      	ldr	r2, [pc, #64]	@ (8002ea8 <HAL_RCCEx_PeriphCLKConfig+0x2a8>)
 8002e68:	f8d4 1088 	ldr.w	r1, [r4, #136]	@ 0x88
 8002e6c:	f8d2 30e4 	ldr.w	r3, [r2, #228]	@ 0xe4
 8002e70:	f023 0307 	bic.w	r3, r3, #7
 8002e74:	430b      	orrs	r3, r1
 8002e76:	f8c2 30e4 	str.w	r3, [r2, #228]	@ 0xe4
 8002e7a:	6823      	ldr	r3, [r4, #0]
 8002e7c:	039b      	lsls	r3, r3, #14
 8002e7e:	d52c      	bpl.n	8002eda <HAL_RCCEx_PeriphCLKConfig+0x2da>
 8002e80:	f8d4 308c 	ldr.w	r3, [r4, #140]	@ 0x8c
 8002e84:	f5b3 3f00 	cmp.w	r3, #131072	@ 0x20000
 8002e88:	d07f      	beq.n	8002f8a <HAL_RCCEx_PeriphCLKConfig+0x38a>
 8002e8a:	d814      	bhi.n	8002eb6 <HAL_RCCEx_PeriphCLKConfig+0x2b6>
 8002e8c:	b1cb      	cbz	r3, 8002ec2 <HAL_RCCEx_PeriphCLKConfig+0x2c2>
 8002e8e:	f5b3 3f80 	cmp.w	r3, #65536	@ 0x10000
 8002e92:	d074      	beq.n	8002f7e <HAL_RCCEx_PeriphCLKConfig+0x37e>
 8002e94:	2601      	movs	r6, #1
 8002e96:	4635      	mov	r5, r6
 8002e98:	e01f      	b.n	8002eda <HAL_RCCEx_PeriphCLKConfig+0x2da>
 8002e9a:	f104 002c 	add.w	r0, r4, #44	@ 0x2c
 8002e9e:	f7ff fddb 	bl	8002a58 <RCCEx_PLL3_Config>
 8002ea2:	4605      	mov	r5, r0
 8002ea4:	e7de      	b.n	8002e64 <HAL_RCCEx_PeriphCLKConfig+0x264>
 8002ea6:	bf00      	nop
 8002ea8:	46020c00 	.word	0x46020c00
 8002eac:	2601      	movs	r6, #1
 8002eae:	4635      	mov	r5, r6
 8002eb0:	e7e3      	b.n	8002e7a <HAL_RCCEx_PeriphCLKConfig+0x27a>
 8002eb2:	462e      	mov	r6, r5
 8002eb4:	e7e1      	b.n	8002e7a <HAL_RCCEx_PeriphCLKConfig+0x27a>
 8002eb6:	f5b3 3f40 	cmp.w	r3, #196608	@ 0x30000
 8002eba:	d002      	beq.n	8002ec2 <HAL_RCCEx_PeriphCLKConfig+0x2c2>
 8002ebc:	f5b3 2f80 	cmp.w	r3, #262144	@ 0x40000
 8002ec0:	d1e8      	bne.n	8002e94 <HAL_RCCEx_PeriphCLKConfig+0x294>
 8002ec2:	2d00      	cmp	r5, #0
 8002ec4:	d167      	bne.n	8002f96 <HAL_RCCEx_PeriphCLKConfig+0x396>
 8002ec6:	4ab4      	ldr	r2, [pc, #720]	@ (8003198 <HAL_RCCEx_PeriphCLKConfig+0x598>)
 8002ec8:	f8d4 108c 	ldr.w	r1, [r4, #140]	@ 0x8c
 8002ecc:	f8d2 30e8 	ldr.w	r3, [r2, #232]	@ 0xe8
 8002ed0:	f423 23e0 	bic.w	r3, r3, #458752	@ 0x70000
 8002ed4:	430b      	orrs	r3, r1
 8002ed6:	f8c2 30e8 	str.w	r3, [r2, #232]	@ 0xe8
 8002eda:	6823      	ldr	r3, [r4, #0]
 8002edc:	035f      	lsls	r7, r3, #13
 8002ede:	d53b      	bpl.n	8002f58 <HAL_RCCEx_PeriphCLKConfig+0x358>
 8002ee0:	4bad      	ldr	r3, [pc, #692]	@ (8003198 <HAL_RCCEx_PeriphCLKConfig+0x598>)
 8002ee2:	f8d3 2094 	ldr.w	r2, [r3, #148]	@ 0x94
 8002ee6:	0750      	lsls	r0, r2, #29
 8002ee8:	d457      	bmi.n	8002f9a <HAL_RCCEx_PeriphCLKConfig+0x39a>
 8002eea:	f04f 0801 	mov.w	r8, #1
 8002eee:	f8d3 2094 	ldr.w	r2, [r3, #148]	@ 0x94
 8002ef2:	f042 0204 	orr.w	r2, r2, #4
 8002ef6:	f8c3 2094 	str.w	r2, [r3, #148]	@ 0x94
 8002efa:	f8d3 3094 	ldr.w	r3, [r3, #148]	@ 0x94
 8002efe:	f003 0304 	and.w	r3, r3, #4
 8002f02:	9301      	str	r3, [sp, #4]
 8002f04:	9b01      	ldr	r3, [sp, #4]
 8002f06:	4fa5      	ldr	r7, [pc, #660]	@ (800319c <HAL_RCCEx_PeriphCLKConfig+0x59c>)
 8002f08:	6abb      	ldr	r3, [r7, #40]	@ 0x28
 8002f0a:	f043 0301 	orr.w	r3, r3, #1
 8002f0e:	62bb      	str	r3, [r7, #40]	@ 0x28
 8002f10:	f7fd fe76 	bl	8000c00 <HAL_GetTick>
 8002f14:	4681      	mov	r9, r0
 8002f16:	6abb      	ldr	r3, [r7, #40]	@ 0x28
 8002f18:	07d9      	lsls	r1, r3, #31
 8002f1a:	d541      	bpl.n	8002fa0 <HAL_RCCEx_PeriphCLKConfig+0x3a0>
 8002f1c:	2d00      	cmp	r5, #0
 8002f1e:	d16e      	bne.n	8002ffe <HAL_RCCEx_PeriphCLKConfig+0x3fe>
 8002f20:	4f9d      	ldr	r7, [pc, #628]	@ (8003198 <HAL_RCCEx_PeriphCLKConfig+0x598>)
 8002f22:	f8d4 20bc 	ldr.w	r2, [r4, #188]	@ 0xbc
 8002f26:	f8d7 30f0 	ldr.w	r3, [r7, #240]	@ 0xf0
 8002f2a:	f413 7340 	ands.w	r3, r3, #768	@ 0x300
 8002f2e:	d140      	bne.n	8002fb2 <HAL_RCCEx_PeriphCLKConfig+0x3b2>
 8002f30:	4a99      	ldr	r2, [pc, #612]	@ (8003198 <HAL_RCCEx_PeriphCLKConfig+0x598>)
 8002f32:	f8d4 10bc 	ldr.w	r1, [r4, #188]	@ 0xbc
 8002f36:	f8d2 30f0 	ldr.w	r3, [r2, #240]	@ 0xf0
 8002f3a:	f423 7340 	bic.w	r3, r3, #768	@ 0x300
 8002f3e:	430b      	orrs	r3, r1
 8002f40:	f8c2 30f0 	str.w	r3, [r2, #240]	@ 0xf0
 8002f44:	f1b8 0f00 	cmp.w	r8, #0
 8002f48:	d006      	beq.n	8002f58 <HAL_RCCEx_PeriphCLKConfig+0x358>
 8002f4a:	4a93      	ldr	r2, [pc, #588]	@ (8003198 <HAL_RCCEx_PeriphCLKConfig+0x598>)
 8002f4c:	f8d2 3094 	ldr.w	r3, [r2, #148]	@ 0x94
 8002f50:	f023 0304 	bic.w	r3, r3, #4
 8002f54:	f8c2 3094 	str.w	r3, [r2, #148]	@ 0x94
 8002f58:	6823      	ldr	r3, [r4, #0]
 8002f5a:	02df      	lsls	r7, r3, #11
 8002f5c:	d561      	bpl.n	8003022 <HAL_RCCEx_PeriphCLKConfig+0x422>
 8002f5e:	f8d4 309c 	ldr.w	r3, [r4, #156]	@ 0x9c
 8002f62:	f1b3 6f00 	cmp.w	r3, #134217728	@ 0x8000000
 8002f66:	f000 80e6 	beq.w	8003136 <HAL_RCCEx_PeriphCLKConfig+0x536>
 8002f6a:	d84a      	bhi.n	8003002 <HAL_RCCEx_PeriphCLKConfig+0x402>
 8002f6c:	2b00      	cmp	r3, #0
 8002f6e:	d04b      	beq.n	8003008 <HAL_RCCEx_PeriphCLKConfig+0x408>
 8002f70:	f1b3 6f80 	cmp.w	r3, #67108864	@ 0x4000000
 8002f74:	f000 80d9 	beq.w	800312a <HAL_RCCEx_PeriphCLKConfig+0x52a>
 8002f78:	2601      	movs	r6, #1
 8002f7a:	4635      	mov	r5, r6
 8002f7c:	e051      	b.n	8003022 <HAL_RCCEx_PeriphCLKConfig+0x422>
 8002f7e:	4a86      	ldr	r2, [pc, #536]	@ (8003198 <HAL_RCCEx_PeriphCLKConfig+0x598>)
 8002f80:	6a93      	ldr	r3, [r2, #40]	@ 0x28
 8002f82:	f443 3380 	orr.w	r3, r3, #65536	@ 0x10000
 8002f86:	6293      	str	r3, [r2, #40]	@ 0x28
 8002f88:	e79b      	b.n	8002ec2 <HAL_RCCEx_PeriphCLKConfig+0x2c2>
 8002f8a:	f104 002c 	add.w	r0, r4, #44	@ 0x2c
 8002f8e:	f7ff fd63 	bl	8002a58 <RCCEx_PLL3_Config>
 8002f92:	4605      	mov	r5, r0
 8002f94:	e795      	b.n	8002ec2 <HAL_RCCEx_PeriphCLKConfig+0x2c2>
 8002f96:	462e      	mov	r6, r5
 8002f98:	e79f      	b.n	8002eda <HAL_RCCEx_PeriphCLKConfig+0x2da>
 8002f9a:	f04f 0800 	mov.w	r8, #0
 8002f9e:	e7b2      	b.n	8002f06 <HAL_RCCEx_PeriphCLKConfig+0x306>
 8002fa0:	f7fd fe2e 	bl	8000c00 <HAL_GetTick>
 8002fa4:	eba0 0009 	sub.w	r0, r0, r9
 8002fa8:	2802      	cmp	r0, #2
 8002faa:	d9b4      	bls.n	8002f16 <HAL_RCCEx_PeriphCLKConfig+0x316>
 8002fac:	2603      	movs	r6, #3
 8002fae:	4635      	mov	r5, r6
 8002fb0:	e7c8      	b.n	8002f44 <HAL_RCCEx_PeriphCLKConfig+0x344>
 8002fb2:	4293      	cmp	r3, r2
 8002fb4:	d0bc      	beq.n	8002f30 <HAL_RCCEx_PeriphCLKConfig+0x330>
 8002fb6:	f8d7 20f0 	ldr.w	r2, [r7, #240]	@ 0xf0
 8002fba:	f8d7 30f0 	ldr.w	r3, [r7, #240]	@ 0xf0
 8002fbe:	f422 7140 	bic.w	r1, r2, #768	@ 0x300
 8002fc2:	f443 3380 	orr.w	r3, r3, #65536	@ 0x10000
 8002fc6:	f8c7 30f0 	str.w	r3, [r7, #240]	@ 0xf0
 8002fca:	f8d7 30f0 	ldr.w	r3, [r7, #240]	@ 0xf0
 8002fce:	07d2      	lsls	r2, r2, #31
 8002fd0:	f423 3380 	bic.w	r3, r3, #65536	@ 0x10000
 8002fd4:	f8c7 30f0 	str.w	r3, [r7, #240]	@ 0xf0
 8002fd8:	f8c7 10f0 	str.w	r1, [r7, #240]	@ 0xf0
 8002fdc:	d5a8      	bpl.n	8002f30 <HAL_RCCEx_PeriphCLKConfig+0x330>
 8002fde:	f7fd fe0f 	bl	8000c00 <HAL_GetTick>
 8002fe2:	f241 3a88 	movw	sl, #5000	@ 0x1388
 8002fe6:	4681      	mov	r9, r0
 8002fe8:	f8d7 30f0 	ldr.w	r3, [r7, #240]	@ 0xf0
 8002fec:	079b      	lsls	r3, r3, #30
 8002fee:	d49f      	bmi.n	8002f30 <HAL_RCCEx_PeriphCLKConfig+0x330>
 8002ff0:	f7fd fe06 	bl	8000c00 <HAL_GetTick>
 8002ff4:	eba0 0009 	sub.w	r0, r0, r9
 8002ff8:	4550      	cmp	r0, sl
 8002ffa:	d9f5      	bls.n	8002fe8 <HAL_RCCEx_PeriphCLKConfig+0x3e8>
 8002ffc:	e7d6      	b.n	8002fac <HAL_RCCEx_PeriphCLKConfig+0x3ac>
 8002ffe:	462e      	mov	r6, r5
 8003000:	e7a0      	b.n	8002f44 <HAL_RCCEx_PeriphCLKConfig+0x344>
 8003002:	f1b3 6f40 	cmp.w	r3, #201326592	@ 0xc000000
 8003006:	d1b7      	bne.n	8002f78 <HAL_RCCEx_PeriphCLKConfig+0x378>
 8003008:	2d00      	cmp	r5, #0
 800300a:	f040 809a 	bne.w	8003142 <HAL_RCCEx_PeriphCLKConfig+0x542>
 800300e:	4a62      	ldr	r2, [pc, #392]	@ (8003198 <HAL_RCCEx_PeriphCLKConfig+0x598>)
 8003010:	f8d4 109c 	ldr.w	r1, [r4, #156]	@ 0x9c
 8003014:	f8d2 30e0 	ldr.w	r3, [r2, #224]	@ 0xe0
 8003018:	f023 6340 	bic.w	r3, r3, #201326592	@ 0xc000000
 800301c:	430b      	orrs	r3, r1
 800301e:	f8c2 30e0 	str.w	r3, [r2, #224]	@ 0xe0
 8003022:	6823      	ldr	r3, [r4, #0]
 8003024:	0318      	lsls	r0, r3, #12
 8003026:	d513      	bpl.n	8003050 <HAL_RCCEx_PeriphCLKConfig+0x450>
 8003028:	f8d4 1098 	ldr.w	r1, [r4, #152]	@ 0x98
 800302c:	f431 5280 	bics.w	r2, r1, #4096	@ 0x1000
 8003030:	d003      	beq.n	800303a <HAL_RCCEx_PeriphCLKConfig+0x43a>
 8003032:	f5b1 5f00 	cmp.w	r1, #8192	@ 0x2000
 8003036:	f040 8086 	bne.w	8003146 <HAL_RCCEx_PeriphCLKConfig+0x546>
 800303a:	2d00      	cmp	r5, #0
 800303c:	f040 8086 	bne.w	800314c <HAL_RCCEx_PeriphCLKConfig+0x54c>
 8003040:	4855      	ldr	r0, [pc, #340]	@ (8003198 <HAL_RCCEx_PeriphCLKConfig+0x598>)
 8003042:	f8d0 20e4 	ldr.w	r2, [r0, #228]	@ 0xe4
 8003046:	f422 5240 	bic.w	r2, r2, #12288	@ 0x3000
 800304a:	430a      	orrs	r2, r1
 800304c:	f8c0 20e4 	str.w	r2, [r0, #228]	@ 0xe4
 8003050:	0299      	lsls	r1, r3, #10
 8003052:	d510      	bpl.n	8003076 <HAL_RCCEx_PeriphCLKConfig+0x476>
 8003054:	f8d4 00a0 	ldr.w	r0, [r4, #160]	@ 0xa0
 8003058:	494f      	ldr	r1, [pc, #316]	@ (8003198 <HAL_RCCEx_PeriphCLKConfig+0x598>)
 800305a:	f5b0 4f80 	cmp.w	r0, #16384	@ 0x4000
 800305e:	bf02      	ittt	eq
 8003060:	6a8a      	ldreq	r2, [r1, #40]	@ 0x28
 8003062:	f442 3280 	orreq.w	r2, r2, #65536	@ 0x10000
 8003066:	628a      	streq	r2, [r1, #40]	@ 0x28
 8003068:	f8d1 20e4 	ldr.w	r2, [r1, #228]	@ 0xe4
 800306c:	f422 4280 	bic.w	r2, r2, #16384	@ 0x4000
 8003070:	4302      	orrs	r2, r0
 8003072:	f8c1 20e4 	str.w	r2, [r1, #228]	@ 0xe4
 8003076:	021a      	lsls	r2, r3, #8
 8003078:	d509      	bpl.n	800308e <HAL_RCCEx_PeriphCLKConfig+0x48e>
 800307a:	4947      	ldr	r1, [pc, #284]	@ (8003198 <HAL_RCCEx_PeriphCLKConfig+0x598>)
 800307c:	f8d4 00b0 	ldr.w	r0, [r4, #176]	@ 0xb0
 8003080:	f8d1 20e0 	ldr.w	r2, [r1, #224]	@ 0xe0
 8003084:	f422 1240 	bic.w	r2, r2, #3145728	@ 0x300000
 8003088:	4302      	orrs	r2, r0
 800308a:	f8c1 20e0 	str.w	r2, [r1, #224]	@ 0xe0
 800308e:	01df      	lsls	r7, r3, #7
 8003090:	d509      	bpl.n	80030a6 <HAL_RCCEx_PeriphCLKConfig+0x4a6>
 8003092:	4941      	ldr	r1, [pc, #260]	@ (8003198 <HAL_RCCEx_PeriphCLKConfig+0x598>)
 8003094:	f8d4 00b4 	ldr.w	r0, [r4, #180]	@ 0xb4
 8003098:	f8d1 20e0 	ldr.w	r2, [r1, #224]	@ 0xe0
 800309c:	f422 3240 	bic.w	r2, r2, #196608	@ 0x30000
 80030a0:	4302      	orrs	r2, r0
 80030a2:	f8c1 20e0 	str.w	r2, [r1, #224]	@ 0xe0
 80030a6:	0198      	lsls	r0, r3, #6
 80030a8:	d509      	bpl.n	80030be <HAL_RCCEx_PeriphCLKConfig+0x4be>
 80030aa:	493b      	ldr	r1, [pc, #236]	@ (8003198 <HAL_RCCEx_PeriphCLKConfig+0x598>)
 80030ac:	f8d4 00b8 	ldr.w	r0, [r4, #184]	@ 0xb8
 80030b0:	f8d1 20e8 	ldr.w	r2, [r1, #232]	@ 0xe8
 80030b4:	f022 0218 	bic.w	r2, r2, #24
 80030b8:	4302      	orrs	r2, r0
 80030ba:	f8c1 20e8 	str.w	r2, [r1, #232]	@ 0xe8
 80030be:	0159      	lsls	r1, r3, #5
 80030c0:	d515      	bpl.n	80030ee <HAL_RCCEx_PeriphCLKConfig+0x4ee>
 80030c2:	f8d4 30ac 	ldr.w	r3, [r4, #172]	@ 0xac
 80030c6:	f5b3 1f00 	cmp.w	r3, #2097152	@ 0x200000
 80030ca:	d141      	bne.n	8003150 <HAL_RCCEx_PeriphCLKConfig+0x550>
 80030cc:	4a32      	ldr	r2, [pc, #200]	@ (8003198 <HAL_RCCEx_PeriphCLKConfig+0x598>)
 80030ce:	6a93      	ldr	r3, [r2, #40]	@ 0x28
 80030d0:	f443 3300 	orr.w	r3, r3, #131072	@ 0x20000
 80030d4:	6293      	str	r3, [r2, #40]	@ 0x28
 80030d6:	2d00      	cmp	r5, #0
 80030d8:	d143      	bne.n	8003162 <HAL_RCCEx_PeriphCLKConfig+0x562>
 80030da:	4a2f      	ldr	r2, [pc, #188]	@ (8003198 <HAL_RCCEx_PeriphCLKConfig+0x598>)
 80030dc:	f8d4 10ac 	ldr.w	r1, [r4, #172]	@ 0xac
 80030e0:	f8d2 30e4 	ldr.w	r3, [r2, #228]	@ 0xe4
 80030e4:	f423 1340 	bic.w	r3, r3, #3145728	@ 0x300000
 80030e8:	430b      	orrs	r3, r1
 80030ea:	f8c2 30e4 	str.w	r3, [r2, #228]	@ 0xe4
 80030ee:	6823      	ldr	r3, [r4, #0]
 80030f0:	011a      	lsls	r2, r3, #4
 80030f2:	d549      	bpl.n	8003188 <HAL_RCCEx_PeriphCLKConfig+0x588>
 80030f4:	f8d4 3084 	ldr.w	r3, [r4, #132]	@ 0x84
 80030f8:	f1b3 7f80 	cmp.w	r3, #16777216	@ 0x1000000
 80030fc:	d033      	beq.n	8003166 <HAL_RCCEx_PeriphCLKConfig+0x566>
 80030fe:	f1b3 7f00 	cmp.w	r3, #33554432	@ 0x2000000
 8003102:	d043      	beq.n	800318c <HAL_RCCEx_PeriphCLKConfig+0x58c>
 8003104:	b3a3      	cbz	r3, 8003170 <HAL_RCCEx_PeriphCLKConfig+0x570>
 8003106:	2501      	movs	r5, #1
 8003108:	6823      	ldr	r3, [r4, #0]
 800310a:	00db      	lsls	r3, r3, #3
 800310c:	d509      	bpl.n	8003122 <HAL_RCCEx_PeriphCLKConfig+0x522>
 800310e:	4a22      	ldr	r2, [pc, #136]	@ (8003198 <HAL_RCCEx_PeriphCLKConfig+0x598>)
 8003110:	f8d4 10a8 	ldr.w	r1, [r4, #168]	@ 0xa8
 8003114:	f8d2 30e8 	ldr.w	r3, [r2, #232]	@ 0xe8
 8003118:	f423 4300 	bic.w	r3, r3, #32768	@ 0x8000
 800311c:	430b      	orrs	r3, r1
 800311e:	f8c2 30e8 	str.w	r3, [r2, #232]	@ 0xe8
 8003122:	4628      	mov	r0, r5
 8003124:	b002      	add	sp, #8
 8003126:	e8bd 87f0 	ldmia.w	sp!, {r4, r5, r6, r7, r8, r9, sl, pc}
 800312a:	f104 0008 	add.w	r0, r4, #8
 800312e:	f7ff fcfd 	bl	8002b2c <RCCEx_PLL2_Config>
 8003132:	4605      	mov	r5, r0
 8003134:	e768      	b.n	8003008 <HAL_RCCEx_PeriphCLKConfig+0x408>
 8003136:	4a18      	ldr	r2, [pc, #96]	@ (8003198 <HAL_RCCEx_PeriphCLKConfig+0x598>)
 8003138:	6a93      	ldr	r3, [r2, #40]	@ 0x28
 800313a:	f443 3300 	orr.w	r3, r3, #131072	@ 0x20000
 800313e:	6293      	str	r3, [r2, #40]	@ 0x28
 8003140:	e762      	b.n	8003008 <HAL_RCCEx_PeriphCLKConfig+0x408>
 8003142:	462e      	mov	r6, r5
 8003144:	e76d      	b.n	8003022 <HAL_RCCEx_PeriphCLKConfig+0x422>
 8003146:	2601      	movs	r6, #1
 8003148:	4635      	mov	r5, r6
 800314a:	e781      	b.n	8003050 <HAL_RCCEx_PeriphCLKConfig+0x450>
 800314c:	462e      	mov	r6, r5
 800314e:	e77f      	b.n	8003050 <HAL_RCCEx_PeriphCLKConfig+0x450>
 8003150:	f5b3 1f40 	cmp.w	r3, #3145728	@ 0x300000
 8003154:	d1bf      	bne.n	80030d6 <HAL_RCCEx_PeriphCLKConfig+0x4d6>
 8003156:	f104 0008 	add.w	r0, r4, #8
 800315a:	f7ff fce7 	bl	8002b2c <RCCEx_PLL2_Config>
 800315e:	4605      	mov	r5, r0
 8003160:	e7b9      	b.n	80030d6 <HAL_RCCEx_PeriphCLKConfig+0x4d6>
 8003162:	462e      	mov	r6, r5
 8003164:	e7c3      	b.n	80030ee <HAL_RCCEx_PeriphCLKConfig+0x4ee>
 8003166:	4a0c      	ldr	r2, [pc, #48]	@ (8003198 <HAL_RCCEx_PeriphCLKConfig+0x598>)
 8003168:	6a93      	ldr	r3, [r2, #40]	@ 0x28
 800316a:	f443 3300 	orr.w	r3, r3, #131072	@ 0x20000
 800316e:	6293      	str	r3, [r2, #40]	@ 0x28
 8003170:	2d00      	cmp	r5, #0
 8003172:	d1c9      	bne.n	8003108 <HAL_RCCEx_PeriphCLKConfig+0x508>
 8003174:	4a08      	ldr	r2, [pc, #32]	@ (8003198 <HAL_RCCEx_PeriphCLKConfig+0x598>)
 8003176:	f8d4 1084 	ldr.w	r1, [r4, #132]	@ 0x84
 800317a:	f8d2 30e0 	ldr.w	r3, [r2, #224]	@ 0xe0
 800317e:	f023 7340 	bic.w	r3, r3, #50331648	@ 0x3000000
 8003182:	430b      	orrs	r3, r1
 8003184:	f8c2 30e0 	str.w	r3, [r2, #224]	@ 0xe0
 8003188:	4635      	mov	r5, r6
 800318a:	e7bd      	b.n	8003108 <HAL_RCCEx_PeriphCLKConfig+0x508>
 800318c:	f104 0008 	add.w	r0, r4, #8
 8003190:	f7ff fccc 	bl	8002b2c <RCCEx_PLL2_Config>
 8003194:	4605      	mov	r5, r0
 8003196:	e7eb      	b.n	8003170 <HAL_RCCEx_PeriphCLKConfig+0x570>
 8003198:	46020c00 	.word	0x46020c00
 800319c:	46020800 	.word	0x46020800

080031a0 <HAL_RCCEx_GetPLL1ClockFreq>:
 80031a0:	4a48      	ldr	r2, [pc, #288]	@ (80032c4 <HAL_RCCEx_GetPLL1ClockFreq+0x124>)
 80031a2:	b530      	push	{r4, r5, lr}
 80031a4:	6b53      	ldr	r3, [r2, #52]	@ 0x34
 80031a6:	6a94      	ldr	r4, [r2, #40]	@ 0x28
 80031a8:	6a91      	ldr	r1, [r2, #40]	@ 0x28
 80031aa:	6a95      	ldr	r5, [r2, #40]	@ 0x28
 80031ac:	f3c1 2103 	ubfx	r1, r1, #8, #4
 80031b0:	3101      	adds	r1, #1
 80031b2:	ee06 1a90 	vmov	s13, r1
 80031b6:	6b91      	ldr	r1, [r2, #56]	@ 0x38
 80031b8:	f3c5 1500 	ubfx	r5, r5, #4, #1
 80031bc:	f3c1 01cc 	ubfx	r1, r1, #3, #13
 80031c0:	4369      	muls	r1, r5
 80031c2:	ee07 1a90 	vmov	s15, r1
 80031c6:	f004 0403 	and.w	r4, r4, #3
 80031ca:	2c02      	cmp	r4, #2
 80031cc:	eeb8 7ae7 	vcvt.f32.s32	s14, s15
 80031d0:	eef8 6ae6 	vcvt.f32.s32	s13, s13
 80031d4:	eddf 5a3c 	vldr	s11, [pc, #240]	@ 80032c8 <HAL_RCCEx_GetPLL1ClockFreq+0x128>
 80031d8:	eeb7 6a00 	vmov.f32	s12, #112	@ 0x3f800000  1.0
 80031dc:	d05f      	beq.n	800329e <HAL_RCCEx_GetPLL1ClockFreq+0xfe>
 80031de:	2c03      	cmp	r4, #3
 80031e0:	d05d      	beq.n	800329e <HAL_RCCEx_GetPLL1ClockFreq+0xfe>
 80031e2:	f3c3 0308 	ubfx	r3, r3, #0, #9
 80031e6:	ee07 3a90 	vmov	s15, r3
 80031ea:	6893      	ldr	r3, [r2, #8]
 80031ec:	4937      	ldr	r1, [pc, #220]	@ (80032cc <HAL_RCCEx_GetPLL1ClockFreq+0x12c>)
 80031ee:	021b      	lsls	r3, r3, #8
 80031f0:	bf4b      	itete	mi
 80031f2:	6893      	ldrmi	r3, [r2, #8]
 80031f4:	f8d2 30f4 	ldrpl.w	r3, [r2, #244]	@ 0xf4
 80031f8:	0f1b      	lsrmi	r3, r3, #28
 80031fa:	f3c3 3303 	ubfxpl	r3, r3, #12, #4
 80031fe:	eb01 0383 	add.w	r3, r1, r3, lsl #2
 8003202:	eef8 7ae7 	vcvt.f32.s32	s15, s15
 8003206:	ed93 5a00 	vldr	s10, [r3]
 800320a:	eee7 7a25 	vfma.f32	s15, s14, s11
 800320e:	eeb8 5a45 	vcvt.f32.u32	s10, s10
 8003212:	ee77 7a86 	vadd.f32	s15, s15, s12
 8003216:	eec5 4a26 	vdiv.f32	s9, s10, s13
 800321a:	ee67 7aa4 	vmul.f32	s15, s15, s9
 800321e:	4a29      	ldr	r2, [pc, #164]	@ (80032c4 <HAL_RCCEx_GetPLL1ClockFreq+0x124>)
 8003220:	6a93      	ldr	r3, [r2, #40]	@ 0x28
 8003222:	f413 3380 	ands.w	r3, r3, #65536	@ 0x10000
 8003226:	d00e      	beq.n	8003246 <HAL_RCCEx_GetPLL1ClockFreq+0xa6>
 8003228:	6b53      	ldr	r3, [r2, #52]	@ 0x34
 800322a:	f3c3 2346 	ubfx	r3, r3, #9, #7
 800322e:	ee06 3a90 	vmov	s13, r3
 8003232:	eef8 6ae6 	vcvt.f32.s32	s13, s13
 8003236:	ee76 6a86 	vadd.f32	s13, s13, s12
 800323a:	ee87 7aa6 	vdiv.f32	s14, s15, s13
 800323e:	eebc 7ac7 	vcvt.u32.f32	s14, s14
 8003242:	ee17 3a10 	vmov	r3, s14
 8003246:	4a1f      	ldr	r2, [pc, #124]	@ (80032c4 <HAL_RCCEx_GetPLL1ClockFreq+0x124>)
 8003248:	6003      	str	r3, [r0, #0]
 800324a:	6a93      	ldr	r3, [r2, #40]	@ 0x28
 800324c:	f413 3300 	ands.w	r3, r3, #131072	@ 0x20000
 8003250:	d00e      	beq.n	8003270 <HAL_RCCEx_GetPLL1ClockFreq+0xd0>
 8003252:	6b53      	ldr	r3, [r2, #52]	@ 0x34
 8003254:	f3c3 4306 	ubfx	r3, r3, #16, #7
 8003258:	ee06 3a90 	vmov	s13, r3
 800325c:	eef8 6ae6 	vcvt.f32.s32	s13, s13
 8003260:	ee76 6a86 	vadd.f32	s13, s13, s12
 8003264:	ee87 7aa6 	vdiv.f32	s14, s15, s13
 8003268:	eebc 7ac7 	vcvt.u32.f32	s14, s14
 800326c:	ee17 3a10 	vmov	r3, s14
 8003270:	4a14      	ldr	r2, [pc, #80]	@ (80032c4 <HAL_RCCEx_GetPLL1ClockFreq+0x124>)
 8003272:	6043      	str	r3, [r0, #4]
 8003274:	6a93      	ldr	r3, [r2, #40]	@ 0x28
 8003276:	f413 2380 	ands.w	r3, r3, #262144	@ 0x40000
 800327a:	d00e      	beq.n	800329a <HAL_RCCEx_GetPLL1ClockFreq+0xfa>
 800327c:	6b53      	ldr	r3, [r2, #52]	@ 0x34
 800327e:	f3c3 6306 	ubfx	r3, r3, #24, #7
 8003282:	ee06 3a90 	vmov	s13, r3
 8003286:	eef8 6ae6 	vcvt.f32.s32	s13, s13
 800328a:	ee76 6a86 	vadd.f32	s13, s13, s12
 800328e:	ee87 7aa6 	vdiv.f32	s14, s15, s13
 8003292:	eefc 7ac7 	vcvt.u32.f32	s15, s14
 8003296:	ee17 3a90 	vmov	r3, s15
 800329a:	6083      	str	r3, [r0, #8]
 800329c:	bd30      	pop	{r4, r5, pc}
 800329e:	eddf 7a0c 	vldr	s15, [pc, #48]	@ 80032d0 <HAL_RCCEx_GetPLL1ClockFreq+0x130>
 80032a2:	6b53      	ldr	r3, [r2, #52]	@ 0x34
 80032a4:	ee87 5aa6 	vdiv.f32	s10, s15, s13
 80032a8:	f3c3 0308 	ubfx	r3, r3, #0, #9
 80032ac:	ee07 3a90 	vmov	s15, r3
 80032b0:	eef8 7ae7 	vcvt.f32.s32	s15, s15
 80032b4:	eee7 7a25 	vfma.f32	s15, s14, s11
 80032b8:	ee77 7a86 	vadd.f32	s15, s15, s12
 80032bc:	ee67 7a85 	vmul.f32	s15, s15, s10
 80032c0:	e7ad      	b.n	800321e <HAL_RCCEx_GetPLL1ClockFreq+0x7e>
 80032c2:	bf00      	nop
 80032c4:	46020c00 	.word	0x46020c00
 80032c8:	39000000 	.word	0x39000000
 80032cc:	080049ac 	.word	0x080049ac
 80032d0:	4b742400 	.word	0x4b742400

080032d4 <HAL_RCCEx_GetPLL2ClockFreq>:
 80032d4:	4a48      	ldr	r2, [pc, #288]	@ (80033f8 <HAL_RCCEx_GetPLL2ClockFreq+0x124>)
 80032d6:	b530      	push	{r4, r5, lr}
 80032d8:	6bd3      	ldr	r3, [r2, #60]	@ 0x3c
 80032da:	6ad4      	ldr	r4, [r2, #44]	@ 0x2c
 80032dc:	6ad1      	ldr	r1, [r2, #44]	@ 0x2c
 80032de:	6ad5      	ldr	r5, [r2, #44]	@ 0x2c
 80032e0:	f3c1 2103 	ubfx	r1, r1, #8, #4
 80032e4:	3101      	adds	r1, #1
 80032e6:	ee06 1a90 	vmov	s13, r1
 80032ea:	6c11      	ldr	r1, [r2, #64]	@ 0x40
 80032ec:	f3c5 1500 	ubfx	r5, r5, #4, #1
 80032f0:	f3c1 01cc 	ubfx	r1, r1, #3, #13
 80032f4:	4369      	muls	r1, r5
 80032f6:	ee07 1a90 	vmov	s15, r1
 80032fa:	f004 0403 	and.w	r4, r4, #3
 80032fe:	2c02      	cmp	r4, #2
 8003300:	eeb8 7ae7 	vcvt.f32.s32	s14, s15
 8003304:	eef8 6ae6 	vcvt.f32.s32	s13, s13
 8003308:	eddf 5a3c 	vldr	s11, [pc, #240]	@ 80033fc <HAL_RCCEx_GetPLL2ClockFreq+0x128>
 800330c:	eeb7 6a00 	vmov.f32	s12, #112	@ 0x3f800000  1.0
 8003310:	d05f      	beq.n	80033d2 <HAL_RCCEx_GetPLL2ClockFreq+0xfe>
 8003312:	2c03      	cmp	r4, #3
 8003314:	d05d      	beq.n	80033d2 <HAL_RCCEx_GetPLL2ClockFreq+0xfe>
 8003316:	f3c3 0308 	ubfx	r3, r3, #0, #9
 800331a:	ee07 3a90 	vmov	s15, r3
 800331e:	6893      	ldr	r3, [r2, #8]
 8003320:	4937      	ldr	r1, [pc, #220]	@ (8003400 <HAL_RCCEx_GetPLL2ClockFreq+0x12c>)
 8003322:	021b      	lsls	r3, r3, #8
 8003324:	bf4b      	itete	mi
 8003326:	6893      	ldrmi	r3, [r2, #8]
 8003328:	f8d2 30f4 	ldrpl.w	r3, [r2, #244]	@ 0xf4
 800332c:	0f1b      	lsrmi	r3, r3, #28
 800332e:	f3c3 3303 	ubfxpl	r3, r3, #12, #4
 8003332:	eb01 0383 	add.w	r3, r1, r3, lsl #2
 8003336:	eef8 7ae7 	vcvt.f32.s32	s15, s15
 800333a:	ed93 5a00 	vldr	s10, [r3]
 800333e:	eee7 7a25 	vfma.f32	s15, s14, s11
 8003342:	eeb8 5a45 	vcvt.f32.u32	s10, s10
 8003346:	ee77 7a86 	vadd.f32	s15, s15, s12
 800334a:	eec5 4a26 	vdiv.f32	s9, s10, s13
 800334e:	ee67 7aa4 	vmul.f32	s15, s15, s9
 8003352:	4a29      	ldr	r2, [pc, #164]	@ (80033f8 <HAL_RCCEx_GetPLL2ClockFreq+0x124>)
 8003354:	6ad3      	ldr	r3, [r2, #44]	@ 0x2c
 8003356:	f413 3380 	ands.w	r3, r3, #65536	@ 0x10000
 800335a:	d00e      	beq.n	800337a <HAL_RCCEx_GetPLL2ClockFreq+0xa6>
 800335c:	6bd3      	ldr	r3, [r2, #60]	@ 0x3c
 800335e:	f3c3 2346 	ubfx	r3, r3, #9, #7
 8003362:	ee06 3a90 	vmov	s13, r3
 8003366:	eef8 6ae6 	vcvt.f32.s32	s13, s13
 800336a:	ee76 6a86 	vadd.f32	s13, s13, s12
 800336e:	ee87 7aa6 	vdiv.f32	s14, s15, s13
 8003372:	eebc 7ac7 	vcvt.u32.f32	s14, s14
 8003376:	ee17 3a10 	vmov	r3, s14
 800337a:	4a1f      	ldr	r2, [pc, #124]	@ (80033f8 <HAL_RCCEx_GetPLL2ClockFreq+0x124>)
 800337c:	6003      	str	r3, [r0, #0]
 800337e:	6ad3      	ldr	r3, [r2, #44]	@ 0x2c
 8003380:	f413 3300 	ands.w	r3, r3, #131072	@ 0x20000
 8003384:	d00e      	beq.n	80033a4 <HAL_RCCEx_GetPLL2ClockFreq+0xd0>
 8003386:	6bd3      	ldr	r3, [r2, #60]	@ 0x3c
 8003388:	f3c3 4306 	ubfx	r3, r3, #16, #7
 800338c:	ee06 3a90 	vmov	s13, r3
 8003390:	eef8 6ae6 	vcvt.f32.s32	s13, s13
 8003394:	ee76 6a86 	vadd.f32	s13, s13, s12
 8003398:	ee87 7aa6 	vdiv.f32	s14, s15, s13
 800339c:	eebc 7ac7 	vcvt.u32.f32	s14, s14
 80033a0:	ee17 3a10 	vmov	r3, s14
 80033a4:	4a14      	ldr	r2, [pc, #80]	@ (80033f8 <HAL_RCCEx_GetPLL2ClockFreq+0x124>)
 80033a6:	6043      	str	r3, [r0, #4]
 80033a8:	6ad3      	ldr	r3, [r2, #44]	@ 0x2c
 80033aa:	f413 2380 	ands.w	r3, r3, #262144	@ 0x40000
 80033ae:	d00e      	beq.n	80033ce <HAL_RCCEx_GetPLL2ClockFreq+0xfa>
 80033b0:	6bd3      	ldr	r3, [r2, #60]	@ 0x3c
 80033b2:	f3c3 6306 	ubfx	r3, r3, #24, #7
 80033b6:	ee06 3a90 	vmov	s13, r3
 80033ba:	eef8 6ae6 	vcvt.f32.s32	s13, s13
 80033be:	ee76 6a86 	vadd.f32	s13, s13, s12
 80033c2:	ee87 7aa6 	vdiv.f32	s14, s15, s13
 80033c6:	eefc 7ac7 	vcvt.u32.f32	s15, s14
 80033ca:	ee17 3a90 	vmov	r3, s15
 80033ce:	6083      	str	r3, [r0, #8]
 80033d0:	bd30      	pop	{r4, r5, pc}
 80033d2:	eddf 7a0c 	vldr	s15, [pc, #48]	@ 8003404 <HAL_RCCEx_GetPLL2ClockFreq+0x130>
 80033d6:	6bd3      	ldr	r3, [r2, #60]	@ 0x3c
 80033d8:	ee87 5aa6 	vdiv.f32	s10, s15, s13
 80033dc:	f3c3 0308 	ubfx	r3, r3, #0, #9
 80033e0:	ee07 3a90 	vmov	s15, r3
 80033e4:	eef8 7ae7 	vcvt.f32.s32	s15, s15
 80033e8:	eee7 7a25 	vfma.f32	s15, s14, s11
 80033ec:	ee77 7a86 	vadd.f32	s15, s15, s12
 80033f0:	ee67 7a85 	vmul.f32	s15, s15, s10
 80033f4:	e7ad      	b.n	8003352 <HAL_RCCEx_GetPLL2ClockFreq+0x7e>
 80033f6:	bf00      	nop
 80033f8:	46020c00 	.word	0x46020c00
 80033fc:	39000000 	.word	0x39000000
 8003400:	080049ac 	.word	0x080049ac
 8003404:	4b742400 	.word	0x4b742400

08003408 <HAL_RCCEx_GetPLL3ClockFreq>:
 8003408:	4a48      	ldr	r2, [pc, #288]	@ (800352c <HAL_RCCEx_GetPLL3ClockFreq+0x124>)
 800340a:	b530      	push	{r4, r5, lr}
 800340c:	6c53      	ldr	r3, [r2, #68]	@ 0x44
 800340e:	6b14      	ldr	r4, [r2, #48]	@ 0x30
 8003410:	6b11      	ldr	r1, [r2, #48]	@ 0x30
 8003412:	6b15      	ldr	r5, [r2, #48]	@ 0x30
 8003414:	f3c1 2103 	ubfx	r1, r1, #8, #4
 8003418:	3101      	adds	r1, #1
 800341a:	ee06 1a90 	vmov	s13, r1
 800341e:	6c91      	ldr	r1, [r2, #72]	@ 0x48
 8003420:	f3c5 1500 	ubfx	r5, r5, #4, #1
 8003424:	f3c1 01cc 	ubfx	r1, r1, #3, #13
 8003428:	4369      	muls	r1, r5
 800342a:	ee07 1a90 	vmov	s15, r1
 800342e:	f004 0403 	and.w	r4, r4, #3
 8003432:	2c02      	cmp	r4, #2
 8003434:	eeb8 7ae7 	vcvt.f32.s32	s14, s15
 8003438:	eef8 6ae6 	vcvt.f32.s32	s13, s13
 800343c:	eddf 5a3c 	vldr	s11, [pc, #240]	@ 8003530 <HAL_RCCEx_GetPLL3ClockFreq+0x128>
 8003440:	eeb7 6a00 	vmov.f32	s12, #112	@ 0x3f800000  1.0
 8003444:	d05f      	beq.n	8003506 <HAL_RCCEx_GetPLL3ClockFreq+0xfe>
 8003446:	2c03      	cmp	r4, #3
 8003448:	d05d      	beq.n	8003506 <HAL_RCCEx_GetPLL3ClockFreq+0xfe>
 800344a:	f3c3 0308 	ubfx	r3, r3, #0, #9
 800344e:	ee07 3a90 	vmov	s15, r3
 8003452:	6893      	ldr	r3, [r2, #8]
 8003454:	4937      	ldr	r1, [pc, #220]	@ (8003534 <HAL_RCCEx_GetPLL3ClockFreq+0x12c>)
 8003456:	021b      	lsls	r3, r3, #8
 8003458:	bf4b      	itete	mi
 800345a:	6893      	ldrmi	r3, [r2, #8]
 800345c:	f8d2 30f4 	ldrpl.w	r3, [r2, #244]	@ 0xf4
 8003460:	0f1b      	lsrmi	r3, r3, #28
 8003462:	f3c3 3303 	ubfxpl	r3, r3, #12, #4
 8003466:	eb01 0383 	add.w	r3, r1, r3, lsl #2
 800346a:	eef8 7ae7 	vcvt.f32.s32	s15, s15
 800346e:	ed93 5a00 	vldr	s10, [r3]
 8003472:	eee7 7a25 	vfma.f32	s15, s14, s11
 8003476:	eeb8 5a45 	vcvt.f32.u32	s10, s10
 800347a:	ee77 7a86 	vadd.f32	s15, s15, s12
 800347e:	eec5 4a26 	vdiv.f32	s9, s10, s13
 8003482:	ee67 7aa4 	vmul.f32	s15, s15, s9
 8003486:	4a29      	ldr	r2, [pc, #164]	@ (800352c <HAL_RCCEx_GetPLL3ClockFreq+0x124>)
 8003488:	6b13      	ldr	r3, [r2, #48]	@ 0x30
 800348a:	f413 3380 	ands.w	r3, r3, #65536	@ 0x10000
 800348e:	d00e      	beq.n	80034ae <HAL_RCCEx_GetPLL3ClockFreq+0xa6>
 8003490:	6c53      	ldr	r3, [r2, #68]	@ 0x44
 8003492:	f3c3 2346 	ubfx	r3, r3, #9, #7
 8003496:	ee06 3a90 	vmov	s13, r3
 800349a:	eef8 6ae6 	vcvt.f32.s32	s13, s13
 800349e:	ee76 6a86 	vadd.f32	s13, s13, s12
 80034a2:	ee87 7aa6 	vdiv.f32	s14, s15, s13
 80034a6:	eebc 7ac7 	vcvt.u32.f32	s14, s14
 80034aa:	ee17 3a10 	vmov	r3, s14
 80034ae:	4a1f      	ldr	r2, [pc, #124]	@ (800352c <HAL_RCCEx_GetPLL3ClockFreq+0x124>)
 80034b0:	6003      	str	r3, [r0, #0]
 80034b2:	6b13      	ldr	r3, [r2, #48]	@ 0x30
 80034b4:	f413 3300 	ands.w	r3, r3, #131072	@ 0x20000
 80034b8:	d00e      	beq.n	80034d8 <HAL_RCCEx_GetPLL3ClockFreq+0xd0>
 80034ba:	6c53      	ldr	r3, [r2, #68]	@ 0x44
 80034bc:	f3c3 4306 	ubfx	r3, r3, #16, #7
 80034c0:	ee06 3a90 	vmov	s13, r3
 80034c4:	eef8 6ae6 	vcvt.f32.s32	s13, s13
 80034c8:	ee76 6a86 	vadd.f32	s13, s13, s12
 80034cc:	ee87 7aa6 	vdiv.f32	s14, s15, s13
 80034d0:	eebc 7ac7 	vcvt.u32.f32	s14, s14
 80034d4:	ee17 3a10 	vmov	r3, s14
 80034d8:	4a14      	ldr	r2, [pc, #80]	@ (800352c <HAL_RCCEx_GetPLL3ClockFreq+0x124>)
 80034da:	6043      	str	r3, [r0, #4]
 80034dc:	6b13      	ldr	r3, [r2, #48]	@ 0x30
 80034de:	f413 2380 	ands.w	r3, r3, #262144	@ 0x40000
 80034e2:	d00e      	beq.n	8003502 <HAL_RCCEx_GetPLL3ClockFreq+0xfa>
 80034e4:	6c53      	ldr	r3, [r2, #68]	@ 0x44
 80034e6:	f3c3 6306 	ubfx	r3, r3, #24, #7
 80034ea:	ee06 3a90 	vmov	s13, r3
 80034ee:	eef8 6ae6 	vcvt.f32.s32	s13, s13
 80034f2:	ee76 6a86 	vadd.f32	s13, s13, s12
 80034f6:	ee87 7aa6 	vdiv.f32	s14, s15, s13
 80034fa:	eefc 7ac7 	vcvt.u32.f32	s15, s14
 80034fe:	ee17 3a90 	vmov	r3, s15
 8003502:	6083      	str	r3, [r0, #8]
 8003504:	bd30      	pop	{r4, r5, pc}
 8003506:	eddf 7a0c 	vldr	s15, [pc, #48]	@ 8003538 <HAL_RCCEx_GetPLL3ClockFreq+0x130>
 800350a:	6c53      	ldr	r3, [r2, #68]	@ 0x44
 800350c:	ee87 5aa6 	vdiv.f32	s10, s15, s13
 8003510:	f3c3 0308 	ubfx	r3, r3, #0, #9
 8003514:	ee07 3a90 	vmov	s15, r3
 8003518:	eef8 7ae7 	vcvt.f32.s32	s15, s15
 800351c:	eee7 7a25 	vfma.f32	s15, s14, s11
 8003520:	ee77 7a86 	vadd.f32	s15, s15, s12
 8003524:	ee67 7a85 	vmul.f32	s15, s15, s10
 8003528:	e7ad      	b.n	8003486 <HAL_RCCEx_GetPLL3ClockFreq+0x7e>
 800352a:	bf00      	nop
 800352c:	46020c00 	.word	0x46020c00
 8003530:	39000000 	.word	0x39000000
 8003534:	080049ac 	.word	0x080049ac
 8003538:	4b742400 	.word	0x4b742400

0800353c <HAL_RCCEx_GetPeriphCLKFreq>:
 800353c:	b51f      	push	{r0, r1, r2, r3, r4, lr}
 800353e:	f5a0 4300 	sub.w	r3, r0, #32768	@ 0x8000
 8003542:	430b      	orrs	r3, r1
 8003544:	f000 826e 	beq.w	8003a24 <HAL_RCCEx_GetPeriphCLKFreq+0x4e8>
 8003548:	f248 0301 	movw	r3, #32769	@ 0x8001
 800354c:	4298      	cmp	r0, r3
 800354e:	f171 0300 	sbcs.w	r3, r1, #0
 8003552:	d25f      	bcs.n	8003614 <HAL_RCCEx_GetPeriphCLKFreq+0xd8>
 8003554:	f1a0 0380 	sub.w	r3, r0, #128	@ 0x80
 8003558:	430b      	orrs	r3, r1
 800355a:	f000 8332 	beq.w	8003bc2 <HAL_RCCEx_GetPeriphCLKFreq+0x686>
 800355e:	2881      	cmp	r0, #129	@ 0x81
 8003560:	f171 0300 	sbcs.w	r3, r1, #0
 8003564:	d22e      	bcs.n	80035c4 <HAL_RCCEx_GetPeriphCLKFreq+0x88>
 8003566:	2809      	cmp	r0, #9
 8003568:	f171 0300 	sbcs.w	r3, r1, #0
 800356c:	d218      	bcs.n	80035a0 <HAL_RCCEx_GetPeriphCLKFreq+0x64>
 800356e:	ea50 0301 	orrs.w	r3, r0, r1
 8003572:	f000 8567 	beq.w	8004044 <HAL_RCCEx_GetPeriphCLKFreq+0xb08>
 8003576:	3801      	subs	r0, #1
 8003578:	f141 31ff 	adc.w	r1, r1, #4294967295	@ 0xffffffff
 800357c:	2808      	cmp	r0, #8
 800357e:	f171 0100 	sbcs.w	r1, r1, #0
 8003582:	f080 8562 	bcs.w	800404a <HAL_RCCEx_GetPeriphCLKFreq+0xb0e>
 8003586:	2807      	cmp	r0, #7
 8003588:	f200 855f 	bhi.w	800404a <HAL_RCCEx_GetPeriphCLKFreq+0xb0e>
 800358c:	e8df f010 	tbh	[pc, r0, lsl #1]
 8003590:	018e0167 	.word	0x018e0167
 8003594:	01bf055d 	.word	0x01bf055d
 8003598:	055d055d 	.word	0x055d055d
 800359c:	01dc055d 	.word	0x01dc055d
 80035a0:	f1a0 0320 	sub.w	r3, r0, #32
 80035a4:	430b      	orrs	r3, r1
 80035a6:	f000 820a 	beq.w	80039be <HAL_RCCEx_GetPeriphCLKFreq+0x482>
 80035aa:	f1a0 0340 	sub.w	r3, r0, #64	@ 0x40
 80035ae:	430b      	orrs	r3, r1
 80035b0:	f000 82dc 	beq.w	8003b6c <HAL_RCCEx_GetPeriphCLKFreq+0x630>
 80035b4:	3810      	subs	r0, #16
 80035b6:	4308      	orrs	r0, r1
 80035b8:	f000 81e1 	beq.w	800397e <HAL_RCCEx_GetPeriphCLKFreq+0x442>
 80035bc:	2000      	movs	r0, #0
 80035be:	b005      	add	sp, #20
 80035c0:	f85d fb04 	ldr.w	pc, [sp], #4
 80035c4:	f5a0 6300 	sub.w	r3, r0, #2048	@ 0x800
 80035c8:	430b      	orrs	r3, r1
 80035ca:	f000 837b 	beq.w	8003cc4 <HAL_RCCEx_GetPeriphCLKFreq+0x788>
 80035ce:	f640 0301 	movw	r3, #2049	@ 0x801
 80035d2:	4298      	cmp	r0, r3
 80035d4:	f171 0300 	sbcs.w	r3, r1, #0
 80035d8:	d210      	bcs.n	80035fc <HAL_RCCEx_GetPeriphCLKFreq+0xc0>
 80035da:	f5a0 7300 	sub.w	r3, r0, #512	@ 0x200
 80035de:	430b      	orrs	r3, r1
 80035e0:	f000 83b0 	beq.w	8003d44 <HAL_RCCEx_GetPeriphCLKFreq+0x808>
 80035e4:	f5a0 6380 	sub.w	r3, r0, #1024	@ 0x400
 80035e8:	430b      	orrs	r3, r1
 80035ea:	f000 83ea 	beq.w	8003dc2 <HAL_RCCEx_GetPeriphCLKFreq+0x886>
 80035ee:	f5a0 7080 	sub.w	r0, r0, #256	@ 0x100
 80035f2:	4308      	orrs	r0, r1
 80035f4:	f000 8310 	beq.w	8003c18 <HAL_RCCEx_GetPeriphCLKFreq+0x6dc>
 80035f8:	2000      	movs	r0, #0
 80035fa:	e7e0      	b.n	80035be <HAL_RCCEx_GetPeriphCLKFreq+0x82>
 80035fc:	f5a0 5300 	sub.w	r3, r0, #8192	@ 0x2000
 8003600:	430b      	orrs	r3, r1
 8003602:	f000 8087 	beq.w	8003714 <HAL_RCCEx_GetPeriphCLKFreq+0x1d8>
 8003606:	f5a0 4080 	sub.w	r0, r0, #16384	@ 0x4000
 800360a:	4308      	orrs	r0, r1
 800360c:	f000 80a4 	beq.w	8003758 <HAL_RCCEx_GetPeriphCLKFreq+0x21c>
 8003610:	2000      	movs	r0, #0
 8003612:	e7d4      	b.n	80035be <HAL_RCCEx_GetPeriphCLKFreq+0x82>
 8003614:	f5a0 0380 	sub.w	r3, r0, #4194304	@ 0x400000
 8003618:	430b      	orrs	r3, r1
 800361a:	f000 8328 	beq.w	8003c6e <HAL_RCCEx_GetPeriphCLKFreq+0x732>
 800361e:	4ba9      	ldr	r3, [pc, #676]	@ (80038c4 <HAL_RCCEx_GetPeriphCLKFreq+0x388>)
 8003620:	4298      	cmp	r0, r3
 8003622:	f171 0300 	sbcs.w	r3, r1, #0
 8003626:	d225      	bcs.n	8003674 <HAL_RCCEx_GetPeriphCLKFreq+0x138>
 8003628:	f5a0 2300 	sub.w	r3, r0, #524288	@ 0x80000
 800362c:	430b      	orrs	r3, r1
 800362e:	f000 84ec 	beq.w	800400a <HAL_RCCEx_GetPeriphCLKFreq+0xace>
 8003632:	4ba5      	ldr	r3, [pc, #660]	@ (80038c8 <HAL_RCCEx_GetPeriphCLKFreq+0x38c>)
 8003634:	4298      	cmp	r0, r3
 8003636:	f171 0300 	sbcs.w	r3, r1, #0
 800363a:	d20f      	bcs.n	800365c <HAL_RCCEx_GetPeriphCLKFreq+0x120>
 800363c:	f5a0 3300 	sub.w	r3, r0, #131072	@ 0x20000
 8003640:	430b      	orrs	r3, r1
 8003642:	f000 8261 	beq.w	8003b08 <HAL_RCCEx_GetPeriphCLKFreq+0x5cc>
 8003646:	f5a0 2380 	sub.w	r3, r0, #262144	@ 0x40000
 800364a:	430b      	orrs	r3, r1
 800364c:	d039      	beq.n	80036c2 <HAL_RCCEx_GetPeriphCLKFreq+0x186>
 800364e:	f5a0 3080 	sub.w	r0, r0, #65536	@ 0x10000
 8003652:	4308      	orrs	r0, r1
 8003654:	f000 8227 	beq.w	8003aa6 <HAL_RCCEx_GetPeriphCLKFreq+0x56a>
 8003658:	2000      	movs	r0, #0
 800365a:	e7b0      	b.n	80035be <HAL_RCCEx_GetPeriphCLKFreq+0x82>
 800365c:	f5a0 1380 	sub.w	r3, r0, #1048576	@ 0x100000
 8003660:	430b      	orrs	r3, r1
 8003662:	f000 8092 	beq.w	800378a <HAL_RCCEx_GetPeriphCLKFreq+0x24e>
 8003666:	f5a0 1000 	sub.w	r0, r0, #2097152	@ 0x200000
 800366a:	4308      	orrs	r0, r1
 800366c:	f000 80c1 	beq.w	80037f2 <HAL_RCCEx_GetPeriphCLKFreq+0x2b6>
 8003670:	2000      	movs	r0, #0
 8003672:	e7a4      	b.n	80035be <HAL_RCCEx_GetPeriphCLKFreq+0x82>
 8003674:	f100 437c 	add.w	r3, r0, #4227858432	@ 0xfc000000
 8003678:	430b      	orrs	r3, r1
 800367a:	f000 847e 	beq.w	8003f7a <HAL_RCCEx_GetPeriphCLKFreq+0xa3e>
 800367e:	4b93      	ldr	r3, [pc, #588]	@ (80038cc <HAL_RCCEx_GetPeriphCLKFreq+0x390>)
 8003680:	4298      	cmp	r0, r3
 8003682:	f171 0300 	sbcs.w	r3, r1, #0
 8003686:	d210      	bcs.n	80036aa <HAL_RCCEx_GetPeriphCLKFreq+0x16e>
 8003688:	f100 437f 	add.w	r3, r0, #4278190080	@ 0xff000000
 800368c:	430b      	orrs	r3, r1
 800368e:	f000 8419 	beq.w	8003ec4 <HAL_RCCEx_GetPeriphCLKFreq+0x988>
 8003692:	f100 437e 	add.w	r3, r0, #4261412864	@ 0xfe000000
 8003696:	430b      	orrs	r3, r1
 8003698:	f000 8444 	beq.w	8003f24 <HAL_RCCEx_GetPeriphCLKFreq+0x9e8>
 800369c:	f5a0 0000 	sub.w	r0, r0, #8388608	@ 0x800000
 80036a0:	4308      	orrs	r0, r1
 80036a2:	f000 83df 	beq.w	8003e64 <HAL_RCCEx_GetPeriphCLKFreq+0x928>
 80036a6:	2000      	movs	r0, #0
 80036a8:	e789      	b.n	80035be <HAL_RCCEx_GetPeriphCLKFreq+0x82>
 80036aa:	f100 4378 	add.w	r3, r0, #4160749568	@ 0xf8000000
 80036ae:	430b      	orrs	r3, r1
 80036b0:	f000 83ba 	beq.w	8003e28 <HAL_RCCEx_GetPeriphCLKFreq+0x8ec>
 80036b4:	f100 4070 	add.w	r0, r0, #4026531840	@ 0xf0000000
 80036b8:	4308      	orrs	r0, r1
 80036ba:	f000 8487 	beq.w	8003fcc <HAL_RCCEx_GetPeriphCLKFreq+0xa90>
 80036be:	2000      	movs	r0, #0
 80036c0:	e77d      	b.n	80035be <HAL_RCCEx_GetPeriphCLKFreq+0x82>
 80036c2:	4a83      	ldr	r2, [pc, #524]	@ (80038d0 <HAL_RCCEx_GetPeriphCLKFreq+0x394>)
 80036c4:	f8d2 30f0 	ldr.w	r3, [r2, #240]	@ 0xf0
 80036c8:	f8d2 10f0 	ldr.w	r1, [r2, #240]	@ 0xf0
 80036cc:	f403 7340 	and.w	r3, r3, #768	@ 0x300
 80036d0:	0789      	lsls	r1, r1, #30
 80036d2:	d503      	bpl.n	80036dc <HAL_RCCEx_GetPeriphCLKFreq+0x1a0>
 80036d4:	f5b3 7f80 	cmp.w	r3, #256	@ 0x100
 80036d8:	f000 84ba 	beq.w	8004050 <HAL_RCCEx_GetPeriphCLKFreq+0xb14>
 80036dc:	f8d2 10f0 	ldr.w	r1, [r2, #240]	@ 0xf0
 80036e0:	0109      	lsls	r1, r1, #4
 80036e2:	d50b      	bpl.n	80036fc <HAL_RCCEx_GetPeriphCLKFreq+0x1c0>
 80036e4:	f5b3 7f00 	cmp.w	r3, #512	@ 0x200
 80036e8:	d108      	bne.n	80036fc <HAL_RCCEx_GetPeriphCLKFreq+0x1c0>
 80036ea:	f8d2 30f0 	ldr.w	r3, [r2, #240]	@ 0xf0
 80036ee:	f013 5f80 	tst.w	r3, #268435456	@ 0x10000000
 80036f2:	bf14      	ite	ne
 80036f4:	20fa      	movne	r0, #250	@ 0xfa
 80036f6:	f44f 40fa 	moveq.w	r0, #32000	@ 0x7d00
 80036fa:	e760      	b.n	80035be <HAL_RCCEx_GetPeriphCLKFreq+0x82>
 80036fc:	4a74      	ldr	r2, [pc, #464]	@ (80038d0 <HAL_RCCEx_GetPeriphCLKFreq+0x394>)
 80036fe:	6810      	ldr	r0, [r2, #0]
 8003700:	f410 3000 	ands.w	r0, r0, #131072	@ 0x20000
 8003704:	f43f af5b 	beq.w	80035be <HAL_RCCEx_GetPeriphCLKFreq+0x82>
 8003708:	f5b3 7f40 	cmp.w	r3, #768	@ 0x300
 800370c:	4871      	ldr	r0, [pc, #452]	@ (80038d4 <HAL_RCCEx_GetPeriphCLKFreq+0x398>)
 800370e:	bf18      	it	ne
 8003710:	2000      	movne	r0, #0
 8003712:	e754      	b.n	80035be <HAL_RCCEx_GetPeriphCLKFreq+0x82>
 8003714:	4a6e      	ldr	r2, [pc, #440]	@ (80038d0 <HAL_RCCEx_GetPeriphCLKFreq+0x394>)
 8003716:	f8d2 30e4 	ldr.w	r3, [r2, #228]	@ 0xe4
 800371a:	f003 03e0 	and.w	r3, r3, #224	@ 0xe0
 800371e:	2b40      	cmp	r3, #64	@ 0x40
 8003720:	f000 81fd 	beq.w	8003b1e <HAL_RCCEx_GetPeriphCLKFreq+0x5e2>
 8003724:	d805      	bhi.n	8003732 <HAL_RCCEx_GetPeriphCLKFreq+0x1f6>
 8003726:	b95b      	cbnz	r3, 8003740 <HAL_RCCEx_GetPeriphCLKFreq+0x204>
 8003728:	a801      	add	r0, sp, #4
 800372a:	f7ff fdd3 	bl	80032d4 <HAL_RCCEx_GetPLL2ClockFreq>
 800372e:	9801      	ldr	r0, [sp, #4]
 8003730:	e745      	b.n	80035be <HAL_RCCEx_GetPeriphCLKFreq+0x82>
 8003732:	2b60      	cmp	r3, #96	@ 0x60
 8003734:	f000 8490 	beq.w	8004058 <HAL_RCCEx_GetPeriphCLKFreq+0xb1c>
 8003738:	2b80      	cmp	r3, #128	@ 0x80
 800373a:	d006      	beq.n	800374a <HAL_RCCEx_GetPeriphCLKFreq+0x20e>
 800373c:	2000      	movs	r0, #0
 800373e:	e73e      	b.n	80035be <HAL_RCCEx_GetPeriphCLKFreq+0x82>
 8003740:	a801      	add	r0, sp, #4
 8003742:	f7ff fe61 	bl	8003408 <HAL_RCCEx_GetPLL3ClockFreq>
 8003746:	9801      	ldr	r0, [sp, #4]
 8003748:	e739      	b.n	80035be <HAL_RCCEx_GetPeriphCLKFreq+0x82>
 800374a:	6813      	ldr	r3, [r2, #0]
 800374c:	4862      	ldr	r0, [pc, #392]	@ (80038d8 <HAL_RCCEx_GetPeriphCLKFreq+0x39c>)
 800374e:	f413 6f80 	tst.w	r3, #1024	@ 0x400
 8003752:	bf08      	it	eq
 8003754:	2000      	moveq	r0, #0
 8003756:	e732      	b.n	80035be <HAL_RCCEx_GetPeriphCLKFreq+0x82>
 8003758:	4a5d      	ldr	r2, [pc, #372]	@ (80038d0 <HAL_RCCEx_GetPeriphCLKFreq+0x394>)
 800375a:	f8d2 30e4 	ldr.w	r3, [r2, #228]	@ 0xe4
 800375e:	f403 63e0 	and.w	r3, r3, #1792	@ 0x700
 8003762:	f5b3 7f00 	cmp.w	r3, #512	@ 0x200
 8003766:	f000 81da 	beq.w	8003b1e <HAL_RCCEx_GetPeriphCLKFreq+0x5e2>
 800376a:	d9dc      	bls.n	8003726 <HAL_RCCEx_GetPeriphCLKFreq+0x1ea>
 800376c:	f5b3 7f40 	cmp.w	r3, #768	@ 0x300
 8003770:	f000 8476 	beq.w	8004060 <HAL_RCCEx_GetPeriphCLKFreq+0xb24>
 8003774:	f5b3 6f80 	cmp.w	r3, #1024	@ 0x400
 8003778:	f040 8476 	bne.w	8004068 <HAL_RCCEx_GetPeriphCLKFreq+0xb2c>
 800377c:	6813      	ldr	r3, [r2, #0]
 800377e:	4856      	ldr	r0, [pc, #344]	@ (80038d8 <HAL_RCCEx_GetPeriphCLKFreq+0x39c>)
 8003780:	f413 6f80 	tst.w	r3, #1024	@ 0x400
 8003784:	bf08      	it	eq
 8003786:	2000      	moveq	r0, #0
 8003788:	e719      	b.n	80035be <HAL_RCCEx_GetPeriphCLKFreq+0x82>
 800378a:	4b51      	ldr	r3, [pc, #324]	@ (80038d0 <HAL_RCCEx_GetPeriphCLKFreq+0x394>)
 800378c:	f8d3 20e0 	ldr.w	r2, [r3, #224]	@ 0xe0
 8003790:	f002 6240 	and.w	r2, r2, #201326592	@ 0xc000000
 8003794:	f1b2 6f00 	cmp.w	r2, #134217728	@ 0x8000000
 8003798:	d00d      	beq.n	80037b6 <HAL_RCCEx_GetPeriphCLKFreq+0x27a>
 800379a:	d807      	bhi.n	80037ac <HAL_RCCEx_GetPeriphCLKFreq+0x270>
 800379c:	b982      	cbnz	r2, 80037c0 <HAL_RCCEx_GetPeriphCLKFreq+0x284>
 800379e:	681b      	ldr	r3, [r3, #0]
 80037a0:	484e      	ldr	r0, [pc, #312]	@ (80038dc <HAL_RCCEx_GetPeriphCLKFreq+0x3a0>)
 80037a2:	f413 5f00 	tst.w	r3, #8192	@ 0x2000
 80037a6:	bf08      	it	eq
 80037a8:	2000      	moveq	r0, #0
 80037aa:	e708      	b.n	80035be <HAL_RCCEx_GetPeriphCLKFreq+0x82>
 80037ac:	f1b2 6f40 	cmp.w	r2, #201326592	@ 0xc000000
 80037b0:	d00b      	beq.n	80037ca <HAL_RCCEx_GetPeriphCLKFreq+0x28e>
 80037b2:	2000      	movs	r0, #0
 80037b4:	e703      	b.n	80035be <HAL_RCCEx_GetPeriphCLKFreq+0x82>
 80037b6:	a801      	add	r0, sp, #4
 80037b8:	f7ff fcf2 	bl	80031a0 <HAL_RCCEx_GetPLL1ClockFreq>
 80037bc:	9802      	ldr	r0, [sp, #8]
 80037be:	e6fe      	b.n	80035be <HAL_RCCEx_GetPeriphCLKFreq+0x82>
 80037c0:	a801      	add	r0, sp, #4
 80037c2:	f7ff fd87 	bl	80032d4 <HAL_RCCEx_GetPLL2ClockFreq>
 80037c6:	9802      	ldr	r0, [sp, #8]
 80037c8:	e6f9      	b.n	80035be <HAL_RCCEx_GetPeriphCLKFreq+0x82>
 80037ca:	6818      	ldr	r0, [r3, #0]
 80037cc:	f010 0020 	ands.w	r0, r0, #32
 80037d0:	f43f aef5 	beq.w	80035be <HAL_RCCEx_GetPeriphCLKFreq+0x82>
 80037d4:	689a      	ldr	r2, [r3, #8]
 80037d6:	0212      	lsls	r2, r2, #8
 80037d8:	bf4c      	ite	mi
 80037da:	689b      	ldrmi	r3, [r3, #8]
 80037dc:	f8d3 30f4 	ldrpl.w	r3, [r3, #244]	@ 0xf4
 80037e0:	4a3f      	ldr	r2, [pc, #252]	@ (80038e0 <HAL_RCCEx_GetPeriphCLKFreq+0x3a4>)
 80037e2:	bf4c      	ite	mi
 80037e4:	f3c3 6303 	ubfxmi	r3, r3, #24, #4
 80037e8:	f3c3 2303 	ubfxpl	r3, r3, #8, #4
 80037ec:	f852 0023 	ldr.w	r0, [r2, r3, lsl #2]
 80037f0:	e6e5      	b.n	80035be <HAL_RCCEx_GetPeriphCLKFreq+0x82>
 80037f2:	4b37      	ldr	r3, [pc, #220]	@ (80038d0 <HAL_RCCEx_GetPeriphCLKFreq+0x394>)
 80037f4:	f8d3 20e4 	ldr.w	r2, [r3, #228]	@ 0xe4
 80037f8:	0450      	lsls	r0, r2, #17
 80037fa:	d42b      	bmi.n	8003854 <HAL_RCCEx_GetPeriphCLKFreq+0x318>
 80037fc:	f8d3 30e0 	ldr.w	r3, [r3, #224]	@ 0xe0
 8003800:	f003 6340 	and.w	r3, r3, #201326592	@ 0xc000000
 8003804:	f1b3 6f00 	cmp.w	r3, #134217728	@ 0x8000000
 8003808:	d0d5      	beq.n	80037b6 <HAL_RCCEx_GetPeriphCLKFreq+0x27a>
 800380a:	d809      	bhi.n	8003820 <HAL_RCCEx_GetPeriphCLKFreq+0x2e4>
 800380c:	2b00      	cmp	r3, #0
 800380e:	d1d7      	bne.n	80037c0 <HAL_RCCEx_GetPeriphCLKFreq+0x284>
 8003810:	4b2f      	ldr	r3, [pc, #188]	@ (80038d0 <HAL_RCCEx_GetPeriphCLKFreq+0x394>)
 8003812:	4832      	ldr	r0, [pc, #200]	@ (80038dc <HAL_RCCEx_GetPeriphCLKFreq+0x3a0>)
 8003814:	681b      	ldr	r3, [r3, #0]
 8003816:	f413 5f00 	tst.w	r3, #8192	@ 0x2000
 800381a:	bf08      	it	eq
 800381c:	2000      	moveq	r0, #0
 800381e:	e6ce      	b.n	80035be <HAL_RCCEx_GetPeriphCLKFreq+0x82>
 8003820:	f1b3 6f40 	cmp.w	r3, #201326592	@ 0xc000000
 8003824:	d001      	beq.n	800382a <HAL_RCCEx_GetPeriphCLKFreq+0x2ee>
 8003826:	2000      	movs	r0, #0
 8003828:	e6c9      	b.n	80035be <HAL_RCCEx_GetPeriphCLKFreq+0x82>
 800382a:	4b29      	ldr	r3, [pc, #164]	@ (80038d0 <HAL_RCCEx_GetPeriphCLKFreq+0x394>)
 800382c:	6818      	ldr	r0, [r3, #0]
 800382e:	f010 0020 	ands.w	r0, r0, #32
 8003832:	f43f aec4 	beq.w	80035be <HAL_RCCEx_GetPeriphCLKFreq+0x82>
 8003836:	689a      	ldr	r2, [r3, #8]
 8003838:	0211      	lsls	r1, r2, #8
 800383a:	bf4c      	ite	mi
 800383c:	689b      	ldrmi	r3, [r3, #8]
 800383e:	f8d3 30f4 	ldrpl.w	r3, [r3, #244]	@ 0xf4
 8003842:	4a27      	ldr	r2, [pc, #156]	@ (80038e0 <HAL_RCCEx_GetPeriphCLKFreq+0x3a4>)
 8003844:	bf4c      	ite	mi
 8003846:	f3c3 6303 	ubfxmi	r3, r3, #24, #4
 800384a:	f3c3 2303 	ubfxpl	r3, r3, #8, #4
 800384e:	f852 0023 	ldr.w	r0, [r2, r3, lsl #2]
 8003852:	e6b4      	b.n	80035be <HAL_RCCEx_GetPeriphCLKFreq+0x82>
 8003854:	a801      	add	r0, sp, #4
 8003856:	f7ff fca3 	bl	80031a0 <HAL_RCCEx_GetPLL1ClockFreq>
 800385a:	9801      	ldr	r0, [sp, #4]
 800385c:	e6af      	b.n	80035be <HAL_RCCEx_GetPeriphCLKFreq+0x82>
 800385e:	4a1c      	ldr	r2, [pc, #112]	@ (80038d0 <HAL_RCCEx_GetPeriphCLKFreq+0x394>)
 8003860:	f8d2 30e0 	ldr.w	r3, [r2, #224]	@ 0xe0
 8003864:	f013 0303 	ands.w	r3, r3, #3
 8003868:	d104      	bne.n	8003874 <HAL_RCCEx_GetPeriphCLKFreq+0x338>
 800386a:	b005      	add	sp, #20
 800386c:	f85d eb04 	ldr.w	lr, [sp], #4
 8003870:	f7ff b8d2 	b.w	8002a18 <HAL_RCC_GetPCLK2Freq>
 8003874:	2b01      	cmp	r3, #1
 8003876:	d104      	bne.n	8003882 <HAL_RCCEx_GetPeriphCLKFreq+0x346>
 8003878:	b005      	add	sp, #20
 800387a:	f85d eb04 	ldr.w	lr, [sp], #4
 800387e:	f7fe ba7d 	b.w	8001d7c <HAL_RCC_GetSysClockFreq>
 8003882:	6812      	ldr	r2, [r2, #0]
 8003884:	0552      	lsls	r2, r2, #21
 8003886:	d502      	bpl.n	800388e <HAL_RCCEx_GetPeriphCLKFreq+0x352>
 8003888:	2b02      	cmp	r3, #2
 800388a:	f000 83f0 	beq.w	800406e <HAL_RCCEx_GetPeriphCLKFreq+0xb32>
 800388e:	4a10      	ldr	r2, [pc, #64]	@ (80038d0 <HAL_RCCEx_GetPeriphCLKFreq+0x394>)
 8003890:	f8d2 00f0 	ldr.w	r0, [r2, #240]	@ 0xf0
 8003894:	f010 0002 	ands.w	r0, r0, #2
 8003898:	f43f ae91 	beq.w	80035be <HAL_RCCEx_GetPeriphCLKFreq+0x82>
 800389c:	f1a3 0c03 	sub.w	ip, r3, #3
 80038a0:	f1dc 0300 	rsbs	r3, ip, #0
 80038a4:	eb43 030c 	adc.w	r3, r3, ip
 80038a8:	03d8      	lsls	r0, r3, #15
 80038aa:	e688      	b.n	80035be <HAL_RCCEx_GetPeriphCLKFreq+0x82>
 80038ac:	4a08      	ldr	r2, [pc, #32]	@ (80038d0 <HAL_RCCEx_GetPeriphCLKFreq+0x394>)
 80038ae:	f8d2 30e0 	ldr.w	r3, [r2, #224]	@ 0xe0
 80038b2:	f013 030c 	ands.w	r3, r3, #12
 80038b6:	d115      	bne.n	80038e4 <HAL_RCCEx_GetPeriphCLKFreq+0x3a8>
 80038b8:	b005      	add	sp, #20
 80038ba:	f85d eb04 	ldr.w	lr, [sp], #4
 80038be:	f7ff b89b 	b.w	80029f8 <HAL_RCC_GetPCLK1Freq>
 80038c2:	bf00      	nop
 80038c4:	00400001 	.word	0x00400001
 80038c8:	00080001 	.word	0x00080001
 80038cc:	04000001 	.word	0x04000001
 80038d0:	46020c00 	.word	0x46020c00
 80038d4:	0007a120 	.word	0x0007a120
 80038d8:	00f42400 	.word	0x00f42400
 80038dc:	02dc6c00 	.word	0x02dc6c00
 80038e0:	080049ac 	.word	0x080049ac
 80038e4:	2b04      	cmp	r3, #4
 80038e6:	d0c7      	beq.n	8003878 <HAL_RCCEx_GetPeriphCLKFreq+0x33c>
 80038e8:	6812      	ldr	r2, [r2, #0]
 80038ea:	0550      	lsls	r0, r2, #21
 80038ec:	d502      	bpl.n	80038f4 <HAL_RCCEx_GetPeriphCLKFreq+0x3b8>
 80038ee:	2b08      	cmp	r3, #8
 80038f0:	f000 83c0 	beq.w	8004074 <HAL_RCCEx_GetPeriphCLKFreq+0xb38>
 80038f4:	4a9a      	ldr	r2, [pc, #616]	@ (8003b60 <HAL_RCCEx_GetPeriphCLKFreq+0x624>)
 80038f6:	f8d2 00f0 	ldr.w	r0, [r2, #240]	@ 0xf0
 80038fa:	f010 0002 	ands.w	r0, r0, #2
 80038fe:	f43f ae5e 	beq.w	80035be <HAL_RCCEx_GetPeriphCLKFreq+0x82>
 8003902:	f1a3 010c 	sub.w	r1, r3, #12
 8003906:	424b      	negs	r3, r1
 8003908:	414b      	adcs	r3, r1
 800390a:	03d8      	lsls	r0, r3, #15
 800390c:	e657      	b.n	80035be <HAL_RCCEx_GetPeriphCLKFreq+0x82>
 800390e:	4a94      	ldr	r2, [pc, #592]	@ (8003b60 <HAL_RCCEx_GetPeriphCLKFreq+0x624>)
 8003910:	f8d2 30e0 	ldr.w	r3, [r2, #224]	@ 0xe0
 8003914:	f013 0330 	ands.w	r3, r3, #48	@ 0x30
 8003918:	d0ce      	beq.n	80038b8 <HAL_RCCEx_GetPeriphCLKFreq+0x37c>
 800391a:	2b10      	cmp	r3, #16
 800391c:	d0ac      	beq.n	8003878 <HAL_RCCEx_GetPeriphCLKFreq+0x33c>
 800391e:	6812      	ldr	r2, [r2, #0]
 8003920:	0552      	lsls	r2, r2, #21
 8003922:	d502      	bpl.n	800392a <HAL_RCCEx_GetPeriphCLKFreq+0x3ee>
 8003924:	2b20      	cmp	r3, #32
 8003926:	f000 83a8 	beq.w	800407a <HAL_RCCEx_GetPeriphCLKFreq+0xb3e>
 800392a:	4a8d      	ldr	r2, [pc, #564]	@ (8003b60 <HAL_RCCEx_GetPeriphCLKFreq+0x624>)
 800392c:	f8d2 00f0 	ldr.w	r0, [r2, #240]	@ 0xf0
 8003930:	f010 0002 	ands.w	r0, r0, #2
 8003934:	f43f ae43 	beq.w	80035be <HAL_RCCEx_GetPeriphCLKFreq+0x82>
 8003938:	f1a3 0c30 	sub.w	ip, r3, #48	@ 0x30
 800393c:	f1dc 0300 	rsbs	r3, ip, #0
 8003940:	eb43 030c 	adc.w	r3, r3, ip
 8003944:	03d8      	lsls	r0, r3, #15
 8003946:	e63a      	b.n	80035be <HAL_RCCEx_GetPeriphCLKFreq+0x82>
 8003948:	4a85      	ldr	r2, [pc, #532]	@ (8003b60 <HAL_RCCEx_GetPeriphCLKFreq+0x624>)
 800394a:	f8d2 30e0 	ldr.w	r3, [r2, #224]	@ 0xe0
 800394e:	f013 03c0 	ands.w	r3, r3, #192	@ 0xc0
 8003952:	d0b1      	beq.n	80038b8 <HAL_RCCEx_GetPeriphCLKFreq+0x37c>
 8003954:	2b40      	cmp	r3, #64	@ 0x40
 8003956:	d08f      	beq.n	8003878 <HAL_RCCEx_GetPeriphCLKFreq+0x33c>
 8003958:	6812      	ldr	r2, [r2, #0]
 800395a:	0550      	lsls	r0, r2, #21
 800395c:	d502      	bpl.n	8003964 <HAL_RCCEx_GetPeriphCLKFreq+0x428>
 800395e:	2b80      	cmp	r3, #128	@ 0x80
 8003960:	f000 838e 	beq.w	8004080 <HAL_RCCEx_GetPeriphCLKFreq+0xb44>
 8003964:	4a7e      	ldr	r2, [pc, #504]	@ (8003b60 <HAL_RCCEx_GetPeriphCLKFreq+0x624>)
 8003966:	f8d2 00f0 	ldr.w	r0, [r2, #240]	@ 0xf0
 800396a:	f010 0002 	ands.w	r0, r0, #2
 800396e:	f43f ae26 	beq.w	80035be <HAL_RCCEx_GetPeriphCLKFreq+0x82>
 8003972:	f1a3 01c0 	sub.w	r1, r3, #192	@ 0xc0
 8003976:	424b      	negs	r3, r1
 8003978:	414b      	adcs	r3, r1
 800397a:	03d8      	lsls	r0, r3, #15
 800397c:	e61f      	b.n	80035be <HAL_RCCEx_GetPeriphCLKFreq+0x82>
 800397e:	4a78      	ldr	r2, [pc, #480]	@ (8003b60 <HAL_RCCEx_GetPeriphCLKFreq+0x624>)
 8003980:	f8d2 30e0 	ldr.w	r3, [r2, #224]	@ 0xe0
 8003984:	f413 7340 	ands.w	r3, r3, #768	@ 0x300
 8003988:	d096      	beq.n	80038b8 <HAL_RCCEx_GetPeriphCLKFreq+0x37c>
 800398a:	f5b3 7f80 	cmp.w	r3, #256	@ 0x100
 800398e:	f43f af73 	beq.w	8003878 <HAL_RCCEx_GetPeriphCLKFreq+0x33c>
 8003992:	6812      	ldr	r2, [r2, #0]
 8003994:	0552      	lsls	r2, r2, #21
 8003996:	d503      	bpl.n	80039a0 <HAL_RCCEx_GetPeriphCLKFreq+0x464>
 8003998:	f5b3 7f00 	cmp.w	r3, #512	@ 0x200
 800399c:	f000 8373 	beq.w	8004086 <HAL_RCCEx_GetPeriphCLKFreq+0xb4a>
 80039a0:	4a6f      	ldr	r2, [pc, #444]	@ (8003b60 <HAL_RCCEx_GetPeriphCLKFreq+0x624>)
 80039a2:	f8d2 00f0 	ldr.w	r0, [r2, #240]	@ 0xf0
 80039a6:	f010 0002 	ands.w	r0, r0, #2
 80039aa:	f43f ae08 	beq.w	80035be <HAL_RCCEx_GetPeriphCLKFreq+0x82>
 80039ae:	f5a3 7c40 	sub.w	ip, r3, #768	@ 0x300
 80039b2:	f1dc 0300 	rsbs	r3, ip, #0
 80039b6:	eb43 030c 	adc.w	r3, r3, ip
 80039ba:	03d8      	lsls	r0, r3, #15
 80039bc:	e5ff      	b.n	80035be <HAL_RCCEx_GetPeriphCLKFreq+0x82>
 80039be:	4a68      	ldr	r2, [pc, #416]	@ (8003b60 <HAL_RCCEx_GetPeriphCLKFreq+0x624>)
 80039c0:	f8d2 30e8 	ldr.w	r3, [r2, #232]	@ 0xe8
 80039c4:	f013 0307 	ands.w	r3, r3, #7
 80039c8:	d104      	bne.n	80039d4 <HAL_RCCEx_GetPeriphCLKFreq+0x498>
 80039ca:	b005      	add	sp, #20
 80039cc:	f85d eb04 	ldr.w	lr, [sp], #4
 80039d0:	f7ff b832 	b.w	8002a38 <HAL_RCC_GetPCLK3Freq>
 80039d4:	2b01      	cmp	r3, #1
 80039d6:	f43f af4f 	beq.w	8003878 <HAL_RCCEx_GetPeriphCLKFreq+0x33c>
 80039da:	6812      	ldr	r2, [r2, #0]
 80039dc:	0550      	lsls	r0, r2, #21
 80039de:	d502      	bpl.n	80039e6 <HAL_RCCEx_GetPeriphCLKFreq+0x4aa>
 80039e0:	2b02      	cmp	r3, #2
 80039e2:	f000 8353 	beq.w	800408c <HAL_RCCEx_GetPeriphCLKFreq+0xb50>
 80039e6:	4a5e      	ldr	r2, [pc, #376]	@ (8003b60 <HAL_RCCEx_GetPeriphCLKFreq+0x624>)
 80039e8:	f8d2 10f0 	ldr.w	r1, [r2, #240]	@ 0xf0
 80039ec:	0789      	lsls	r1, r1, #30
 80039ee:	d502      	bpl.n	80039f6 <HAL_RCCEx_GetPeriphCLKFreq+0x4ba>
 80039f0:	2b03      	cmp	r3, #3
 80039f2:	f000 834e 	beq.w	8004092 <HAL_RCCEx_GetPeriphCLKFreq+0xb56>
 80039f6:	6810      	ldr	r0, [r2, #0]
 80039f8:	f010 0020 	ands.w	r0, r0, #32
 80039fc:	f43f addf 	beq.w	80035be <HAL_RCCEx_GetPeriphCLKFreq+0x82>
 8003a00:	2b04      	cmp	r3, #4
 8003a02:	f040 834a 	bne.w	800409a <HAL_RCCEx_GetPeriphCLKFreq+0xb5e>
 8003a06:	6893      	ldr	r3, [r2, #8]
 8003a08:	021b      	lsls	r3, r3, #8
 8003a0a:	bf4c      	ite	mi
 8003a0c:	6893      	ldrmi	r3, [r2, #8]
 8003a0e:	f8d2 30f4 	ldrpl.w	r3, [r2, #244]	@ 0xf4
 8003a12:	4a54      	ldr	r2, [pc, #336]	@ (8003b64 <HAL_RCCEx_GetPeriphCLKFreq+0x628>)
 8003a14:	bf4c      	ite	mi
 8003a16:	f3c3 6303 	ubfxmi	r3, r3, #24, #4
 8003a1a:	f3c3 2303 	ubfxpl	r3, r3, #8, #4
 8003a1e:	f852 0023 	ldr.w	r0, [r2, r3, lsl #2]
 8003a22:	e5cc      	b.n	80035be <HAL_RCCEx_GetPeriphCLKFreq+0x82>
 8003a24:	4a4e      	ldr	r2, [pc, #312]	@ (8003b60 <HAL_RCCEx_GetPeriphCLKFreq+0x624>)
 8003a26:	f8d2 30e8 	ldr.w	r3, [r2, #232]	@ 0xe8
 8003a2a:	f403 43e0 	and.w	r3, r3, #28672	@ 0x7000
 8003a2e:	f5b3 5f80 	cmp.w	r3, #4096	@ 0x1000
 8003a32:	f43f af21 	beq.w	8003878 <HAL_RCCEx_GetPeriphCLKFreq+0x33c>
 8003a36:	f5b3 5f00 	cmp.w	r3, #8192	@ 0x2000
 8003a3a:	d104      	bne.n	8003a46 <HAL_RCCEx_GetPeriphCLKFreq+0x50a>
 8003a3c:	a801      	add	r0, sp, #4
 8003a3e:	f7ff fc49 	bl	80032d4 <HAL_RCCEx_GetPLL2ClockFreq>
 8003a42:	9803      	ldr	r0, [sp, #12]
 8003a44:	e5bb      	b.n	80035be <HAL_RCCEx_GetPeriphCLKFreq+0x82>
 8003a46:	b923      	cbnz	r3, 8003a52 <HAL_RCCEx_GetPeriphCLKFreq+0x516>
 8003a48:	b005      	add	sp, #20
 8003a4a:	f85d eb04 	ldr.w	lr, [sp], #4
 8003a4e:	f7fe bb5f 	b.w	8002110 <HAL_RCC_GetHCLKFreq>
 8003a52:	f5b3 4fa0 	cmp.w	r3, #20480	@ 0x5000
 8003a56:	d113      	bne.n	8003a80 <HAL_RCCEx_GetPeriphCLKFreq+0x544>
 8003a58:	6810      	ldr	r0, [r2, #0]
 8003a5a:	f010 0020 	ands.w	r0, r0, #32
 8003a5e:	f43f adae 	beq.w	80035be <HAL_RCCEx_GetPeriphCLKFreq+0x82>
 8003a62:	6893      	ldr	r3, [r2, #8]
 8003a64:	0218      	lsls	r0, r3, #8
 8003a66:	bf4c      	ite	mi
 8003a68:	6893      	ldrmi	r3, [r2, #8]
 8003a6a:	f8d2 30f4 	ldrpl.w	r3, [r2, #244]	@ 0xf4
 8003a6e:	4a3d      	ldr	r2, [pc, #244]	@ (8003b64 <HAL_RCCEx_GetPeriphCLKFreq+0x628>)
 8003a70:	bf4c      	ite	mi
 8003a72:	f3c3 6303 	ubfxmi	r3, r3, #24, #4
 8003a76:	f3c3 2303 	ubfxpl	r3, r3, #8, #4
 8003a7a:	f852 0023 	ldr.w	r0, [r2, r3, lsl #2]
 8003a7e:	e59e      	b.n	80035be <HAL_RCCEx_GetPeriphCLKFreq+0x82>
 8003a80:	6812      	ldr	r2, [r2, #0]
 8003a82:	0391      	lsls	r1, r2, #14
 8003a84:	d503      	bpl.n	8003a8e <HAL_RCCEx_GetPeriphCLKFreq+0x552>
 8003a86:	f5b3 5f40 	cmp.w	r3, #12288	@ 0x3000
 8003a8a:	f000 8309 	beq.w	80040a0 <HAL_RCCEx_GetPeriphCLKFreq+0xb64>
 8003a8e:	4a34      	ldr	r2, [pc, #208]	@ (8003b60 <HAL_RCCEx_GetPeriphCLKFreq+0x624>)
 8003a90:	6810      	ldr	r0, [r2, #0]
 8003a92:	f410 6080 	ands.w	r0, r0, #1024	@ 0x400
 8003a96:	f43f ad92 	beq.w	80035be <HAL_RCCEx_GetPeriphCLKFreq+0x82>
 8003a9a:	f5b3 4f80 	cmp.w	r3, #16384	@ 0x4000
 8003a9e:	4832      	ldr	r0, [pc, #200]	@ (8003b68 <HAL_RCCEx_GetPeriphCLKFreq+0x62c>)
 8003aa0:	bf18      	it	ne
 8003aa2:	2000      	movne	r0, #0
 8003aa4:	e58b      	b.n	80035be <HAL_RCCEx_GetPeriphCLKFreq+0x82>
 8003aa6:	4b2e      	ldr	r3, [pc, #184]	@ (8003b60 <HAL_RCCEx_GetPeriphCLKFreq+0x624>)
 8003aa8:	f8d3 20e4 	ldr.w	r2, [r3, #228]	@ 0xe4
 8003aac:	f002 0207 	and.w	r2, r2, #7
 8003ab0:	2a04      	cmp	r2, #4
 8003ab2:	f200 82f8 	bhi.w	80040a6 <HAL_RCCEx_GetPeriphCLKFreq+0xb6a>
 8003ab6:	a101      	add	r1, pc, #4	@ (adr r1, 8003abc <HAL_RCCEx_GetPeriphCLKFreq+0x580>)
 8003ab8:	f851 f022 	ldr.w	pc, [r1, r2, lsl #2]
 8003abc:	08003a49 	.word	0x08003a49
 8003ac0:	08003b1f 	.word	0x08003b1f
 8003ac4:	08003ad7 	.word	0x08003ad7
 8003ac8:	08003ad1 	.word	0x08003ad1
 8003acc:	08003ae1 	.word	0x08003ae1
 8003ad0:	f64b 3080 	movw	r0, #48000	@ 0xbb80
 8003ad4:	e573      	b.n	80035be <HAL_RCCEx_GetPeriphCLKFreq+0x82>
 8003ad6:	a801      	add	r0, sp, #4
 8003ad8:	f7ff fc96 	bl	8003408 <HAL_RCCEx_GetPLL3ClockFreq>
 8003adc:	9802      	ldr	r0, [sp, #8]
 8003ade:	e56e      	b.n	80035be <HAL_RCCEx_GetPeriphCLKFreq+0x82>
 8003ae0:	6818      	ldr	r0, [r3, #0]
 8003ae2:	f010 0020 	ands.w	r0, r0, #32
 8003ae6:	f43f ad6a 	beq.w	80035be <HAL_RCCEx_GetPeriphCLKFreq+0x82>
 8003aea:	689a      	ldr	r2, [r3, #8]
 8003aec:	0212      	lsls	r2, r2, #8
 8003aee:	bf4c      	ite	mi
 8003af0:	689b      	ldrmi	r3, [r3, #8]
 8003af2:	f8d3 30f4 	ldrpl.w	r3, [r3, #244]	@ 0xf4
 8003af6:	4a1b      	ldr	r2, [pc, #108]	@ (8003b64 <HAL_RCCEx_GetPeriphCLKFreq+0x628>)
 8003af8:	bf4c      	ite	mi
 8003afa:	f3c3 6303 	ubfxmi	r3, r3, #24, #4
 8003afe:	f3c3 2303 	ubfxpl	r3, r3, #8, #4
 8003b02:	f852 0023 	ldr.w	r0, [r2, r3, lsl #2]
 8003b06:	e55a      	b.n	80035be <HAL_RCCEx_GetPeriphCLKFreq+0x82>
 8003b08:	4a15      	ldr	r2, [pc, #84]	@ (8003b60 <HAL_RCCEx_GetPeriphCLKFreq+0x624>)
 8003b0a:	f8d2 30e8 	ldr.w	r3, [r2, #232]	@ 0xe8
 8003b0e:	f403 23e0 	and.w	r3, r3, #458752	@ 0x70000
 8003b12:	f5b3 3f00 	cmp.w	r3, #131072	@ 0x20000
 8003b16:	d0de      	beq.n	8003ad6 <HAL_RCCEx_GetPeriphCLKFreq+0x59a>
 8003b18:	d806      	bhi.n	8003b28 <HAL_RCCEx_GetPeriphCLKFreq+0x5ec>
 8003b1a:	2b00      	cmp	r3, #0
 8003b1c:	d094      	beq.n	8003a48 <HAL_RCCEx_GetPeriphCLKFreq+0x50c>
 8003b1e:	a801      	add	r0, sp, #4
 8003b20:	f7ff fb3e 	bl	80031a0 <HAL_RCCEx_GetPLL1ClockFreq>
 8003b24:	9801      	ldr	r0, [sp, #4]
 8003b26:	e54a      	b.n	80035be <HAL_RCCEx_GetPeriphCLKFreq+0x82>
 8003b28:	f5b3 3f40 	cmp.w	r3, #196608	@ 0x30000
 8003b2c:	f000 82be 	beq.w	80040ac <HAL_RCCEx_GetPeriphCLKFreq+0xb70>
 8003b30:	f5b3 2f80 	cmp.w	r3, #262144	@ 0x40000
 8003b34:	f040 82be 	bne.w	80040b4 <HAL_RCCEx_GetPeriphCLKFreq+0xb78>
 8003b38:	6810      	ldr	r0, [r2, #0]
 8003b3a:	f010 0020 	ands.w	r0, r0, #32
 8003b3e:	f43f ad3e 	beq.w	80035be <HAL_RCCEx_GetPeriphCLKFreq+0x82>
 8003b42:	6893      	ldr	r3, [r2, #8]
 8003b44:	021b      	lsls	r3, r3, #8
 8003b46:	bf4c      	ite	mi
 8003b48:	6893      	ldrmi	r3, [r2, #8]
 8003b4a:	f8d2 30f4 	ldrpl.w	r3, [r2, #244]	@ 0xf4
 8003b4e:	4a05      	ldr	r2, [pc, #20]	@ (8003b64 <HAL_RCCEx_GetPeriphCLKFreq+0x628>)
 8003b50:	bf4c      	ite	mi
 8003b52:	f3c3 6303 	ubfxmi	r3, r3, #24, #4
 8003b56:	f3c3 2303 	ubfxpl	r3, r3, #8, #4
 8003b5a:	f852 0023 	ldr.w	r0, [r2, r3, lsl #2]
 8003b5e:	e52e      	b.n	80035be <HAL_RCCEx_GetPeriphCLKFreq+0x82>
 8003b60:	46020c00 	.word	0x46020c00
 8003b64:	080049ac 	.word	0x080049ac
 8003b68:	00f42400 	.word	0x00f42400
 8003b6c:	4aab      	ldr	r2, [pc, #684]	@ (8003e1c <HAL_RCCEx_GetPeriphCLKFreq+0x8e0>)
 8003b6e:	f8d2 30e0 	ldr.w	r3, [r2, #224]	@ 0xe0
 8003b72:	f413 6340 	ands.w	r3, r3, #3072	@ 0xc00
 8003b76:	f43f ae9f 	beq.w	80038b8 <HAL_RCCEx_GetPeriphCLKFreq+0x37c>
 8003b7a:	f5b3 6f80 	cmp.w	r3, #1024	@ 0x400
 8003b7e:	f43f ae7b 	beq.w	8003878 <HAL_RCCEx_GetPeriphCLKFreq+0x33c>
 8003b82:	6812      	ldr	r2, [r2, #0]
 8003b84:	0550      	lsls	r0, r2, #21
 8003b86:	d503      	bpl.n	8003b90 <HAL_RCCEx_GetPeriphCLKFreq+0x654>
 8003b88:	f5b3 6f00 	cmp.w	r3, #2048	@ 0x800
 8003b8c:	f000 8295 	beq.w	80040ba <HAL_RCCEx_GetPeriphCLKFreq+0xb7e>
 8003b90:	4aa2      	ldr	r2, [pc, #648]	@ (8003e1c <HAL_RCCEx_GetPeriphCLKFreq+0x8e0>)
 8003b92:	6810      	ldr	r0, [r2, #0]
 8003b94:	f010 0020 	ands.w	r0, r0, #32
 8003b98:	f43f ad11 	beq.w	80035be <HAL_RCCEx_GetPeriphCLKFreq+0x82>
 8003b9c:	f5b3 6f40 	cmp.w	r3, #3072	@ 0xc00
 8003ba0:	f040 828e 	bne.w	80040c0 <HAL_RCCEx_GetPeriphCLKFreq+0xb84>
 8003ba4:	6893      	ldr	r3, [r2, #8]
 8003ba6:	0219      	lsls	r1, r3, #8
 8003ba8:	bf4c      	ite	mi
 8003baa:	6893      	ldrmi	r3, [r2, #8]
 8003bac:	f8d2 30f4 	ldrpl.w	r3, [r2, #244]	@ 0xf4
 8003bb0:	4a9b      	ldr	r2, [pc, #620]	@ (8003e20 <HAL_RCCEx_GetPeriphCLKFreq+0x8e4>)
 8003bb2:	bf4c      	ite	mi
 8003bb4:	f3c3 6303 	ubfxmi	r3, r3, #24, #4
 8003bb8:	f3c3 2303 	ubfxpl	r3, r3, #8, #4
 8003bbc:	f852 0023 	ldr.w	r0, [r2, r3, lsl #2]
 8003bc0:	e4fd      	b.n	80035be <HAL_RCCEx_GetPeriphCLKFreq+0x82>
 8003bc2:	4a96      	ldr	r2, [pc, #600]	@ (8003e1c <HAL_RCCEx_GetPeriphCLKFreq+0x8e0>)
 8003bc4:	f8d2 30e0 	ldr.w	r3, [r2, #224]	@ 0xe0
 8003bc8:	f413 5340 	ands.w	r3, r3, #12288	@ 0x3000
 8003bcc:	f43f ae74 	beq.w	80038b8 <HAL_RCCEx_GetPeriphCLKFreq+0x37c>
 8003bd0:	f5b3 5f80 	cmp.w	r3, #4096	@ 0x1000
 8003bd4:	f43f ae50 	beq.w	8003878 <HAL_RCCEx_GetPeriphCLKFreq+0x33c>
 8003bd8:	6812      	ldr	r2, [r2, #0]
 8003bda:	0552      	lsls	r2, r2, #21
 8003bdc:	d503      	bpl.n	8003be6 <HAL_RCCEx_GetPeriphCLKFreq+0x6aa>
 8003bde:	f5b3 5f00 	cmp.w	r3, #8192	@ 0x2000
 8003be2:	f000 8270 	beq.w	80040c6 <HAL_RCCEx_GetPeriphCLKFreq+0xb8a>
 8003be6:	4a8d      	ldr	r2, [pc, #564]	@ (8003e1c <HAL_RCCEx_GetPeriphCLKFreq+0x8e0>)
 8003be8:	6810      	ldr	r0, [r2, #0]
 8003bea:	f010 0020 	ands.w	r0, r0, #32
 8003bee:	f43f ace6 	beq.w	80035be <HAL_RCCEx_GetPeriphCLKFreq+0x82>
 8003bf2:	f5b3 5f40 	cmp.w	r3, #12288	@ 0x3000
 8003bf6:	f040 8269 	bne.w	80040cc <HAL_RCCEx_GetPeriphCLKFreq+0xb90>
 8003bfa:	6893      	ldr	r3, [r2, #8]
 8003bfc:	0218      	lsls	r0, r3, #8
 8003bfe:	bf4c      	ite	mi
 8003c00:	6893      	ldrmi	r3, [r2, #8]
 8003c02:	f8d2 30f4 	ldrpl.w	r3, [r2, #244]	@ 0xf4
 8003c06:	4a86      	ldr	r2, [pc, #536]	@ (8003e20 <HAL_RCCEx_GetPeriphCLKFreq+0x8e4>)
 8003c08:	bf4c      	ite	mi
 8003c0a:	f3c3 6303 	ubfxmi	r3, r3, #24, #4
 8003c0e:	f3c3 2303 	ubfxpl	r3, r3, #8, #4
 8003c12:	f852 0023 	ldr.w	r0, [r2, r3, lsl #2]
 8003c16:	e4d2      	b.n	80035be <HAL_RCCEx_GetPeriphCLKFreq+0x82>
 8003c18:	4b80      	ldr	r3, [pc, #512]	@ (8003e1c <HAL_RCCEx_GetPeriphCLKFreq+0x8e0>)
 8003c1a:	f8d3 20e8 	ldr.w	r2, [r3, #232]	@ 0xe8
 8003c1e:	f002 02c0 	and.w	r2, r2, #192	@ 0xc0
 8003c22:	2a80      	cmp	r2, #128	@ 0x80
 8003c24:	d008      	beq.n	8003c38 <HAL_RCCEx_GetPeriphCLKFreq+0x6fc>
 8003c26:	d803      	bhi.n	8003c30 <HAL_RCCEx_GetPeriphCLKFreq+0x6f4>
 8003c28:	2a00      	cmp	r2, #0
 8003c2a:	f47f ae25 	bne.w	8003878 <HAL_RCCEx_GetPeriphCLKFreq+0x33c>
 8003c2e:	e6cc      	b.n	80039ca <HAL_RCCEx_GetPeriphCLKFreq+0x48e>
 8003c30:	2ac0      	cmp	r2, #192	@ 0xc0
 8003c32:	d008      	beq.n	8003c46 <HAL_RCCEx_GetPeriphCLKFreq+0x70a>
 8003c34:	2000      	movs	r0, #0
 8003c36:	e4c2      	b.n	80035be <HAL_RCCEx_GetPeriphCLKFreq+0x82>
 8003c38:	681b      	ldr	r3, [r3, #0]
 8003c3a:	487a      	ldr	r0, [pc, #488]	@ (8003e24 <HAL_RCCEx_GetPeriphCLKFreq+0x8e8>)
 8003c3c:	f413 6f80 	tst.w	r3, #1024	@ 0x400
 8003c40:	bf08      	it	eq
 8003c42:	2000      	moveq	r0, #0
 8003c44:	e4bb      	b.n	80035be <HAL_RCCEx_GetPeriphCLKFreq+0x82>
 8003c46:	6818      	ldr	r0, [r3, #0]
 8003c48:	f010 0020 	ands.w	r0, r0, #32
 8003c4c:	f43f acb7 	beq.w	80035be <HAL_RCCEx_GetPeriphCLKFreq+0x82>
 8003c50:	689a      	ldr	r2, [r3, #8]
 8003c52:	0211      	lsls	r1, r2, #8
 8003c54:	bf4c      	ite	mi
 8003c56:	689b      	ldrmi	r3, [r3, #8]
 8003c58:	f8d3 30f4 	ldrpl.w	r3, [r3, #244]	@ 0xf4
 8003c5c:	4a70      	ldr	r2, [pc, #448]	@ (8003e20 <HAL_RCCEx_GetPeriphCLKFreq+0x8e4>)
 8003c5e:	bf4c      	ite	mi
 8003c60:	f3c3 6303 	ubfxmi	r3, r3, #24, #4
 8003c64:	f3c3 2303 	ubfxpl	r3, r3, #8, #4
 8003c68:	f852 0023 	ldr.w	r0, [r2, r3, lsl #2]
 8003c6c:	e4a7      	b.n	80035be <HAL_RCCEx_GetPeriphCLKFreq+0x82>
 8003c6e:	4a6b      	ldr	r2, [pc, #428]	@ (8003e1c <HAL_RCCEx_GetPeriphCLKFreq+0x8e0>)
 8003c70:	f8d2 30e0 	ldr.w	r3, [r2, #224]	@ 0xe0
 8003c74:	f413 4340 	ands.w	r3, r3, #49152	@ 0xc000
 8003c78:	f43f ae1e 	beq.w	80038b8 <HAL_RCCEx_GetPeriphCLKFreq+0x37c>
 8003c7c:	f5b3 4f80 	cmp.w	r3, #16384	@ 0x4000
 8003c80:	f43f adfa 	beq.w	8003878 <HAL_RCCEx_GetPeriphCLKFreq+0x33c>
 8003c84:	6812      	ldr	r2, [r2, #0]
 8003c86:	0552      	lsls	r2, r2, #21
 8003c88:	d503      	bpl.n	8003c92 <HAL_RCCEx_GetPeriphCLKFreq+0x756>
 8003c8a:	f5b3 4f00 	cmp.w	r3, #32768	@ 0x8000
 8003c8e:	f000 8220 	beq.w	80040d2 <HAL_RCCEx_GetPeriphCLKFreq+0xb96>
 8003c92:	4a62      	ldr	r2, [pc, #392]	@ (8003e1c <HAL_RCCEx_GetPeriphCLKFreq+0x8e0>)
 8003c94:	6810      	ldr	r0, [r2, #0]
 8003c96:	f010 0020 	ands.w	r0, r0, #32
 8003c9a:	f43f ac90 	beq.w	80035be <HAL_RCCEx_GetPeriphCLKFreq+0x82>
 8003c9e:	f5b3 4f40 	cmp.w	r3, #49152	@ 0xc000
 8003ca2:	f040 8219 	bne.w	80040d8 <HAL_RCCEx_GetPeriphCLKFreq+0xb9c>
 8003ca6:	6893      	ldr	r3, [r2, #8]
 8003ca8:	021b      	lsls	r3, r3, #8
 8003caa:	bf4c      	ite	mi
 8003cac:	6893      	ldrmi	r3, [r2, #8]
 8003cae:	f8d2 30f4 	ldrpl.w	r3, [r2, #244]	@ 0xf4
 8003cb2:	4a5b      	ldr	r2, [pc, #364]	@ (8003e20 <HAL_RCCEx_GetPeriphCLKFreq+0x8e4>)
 8003cb4:	bf4c      	ite	mi
 8003cb6:	f3c3 6303 	ubfxmi	r3, r3, #24, #4
 8003cba:	f3c3 2303 	ubfxpl	r3, r3, #8, #4
 8003cbe:	f852 0023 	ldr.w	r0, [r2, r3, lsl #2]
 8003cc2:	e47c      	b.n	80035be <HAL_RCCEx_GetPeriphCLKFreq+0x82>
 8003cc4:	4a55      	ldr	r2, [pc, #340]	@ (8003e1c <HAL_RCCEx_GetPeriphCLKFreq+0x8e0>)
 8003cc6:	f8d2 30e8 	ldr.w	r3, [r2, #232]	@ 0xe8
 8003cca:	f413 7340 	ands.w	r3, r3, #768	@ 0x300
 8003cce:	d113      	bne.n	8003cf8 <HAL_RCCEx_GetPeriphCLKFreq+0x7bc>
 8003cd0:	6810      	ldr	r0, [r2, #0]
 8003cd2:	f010 0020 	ands.w	r0, r0, #32
 8003cd6:	f43f ac72 	beq.w	80035be <HAL_RCCEx_GetPeriphCLKFreq+0x82>
 8003cda:	6893      	ldr	r3, [r2, #8]
 8003cdc:	0218      	lsls	r0, r3, #8
 8003cde:	bf4c      	ite	mi
 8003ce0:	6893      	ldrmi	r3, [r2, #8]
 8003ce2:	f8d2 30f4 	ldrpl.w	r3, [r2, #244]	@ 0xf4
 8003ce6:	4a4e      	ldr	r2, [pc, #312]	@ (8003e20 <HAL_RCCEx_GetPeriphCLKFreq+0x8e4>)
 8003ce8:	bf4c      	ite	mi
 8003cea:	f3c3 6303 	ubfxmi	r3, r3, #24, #4
 8003cee:	f3c3 2303 	ubfxpl	r3, r3, #8, #4
 8003cf2:	f852 0023 	ldr.w	r0, [r2, r3, lsl #2]
 8003cf6:	e462      	b.n	80035be <HAL_RCCEx_GetPeriphCLKFreq+0x82>
 8003cf8:	f8d2 10f0 	ldr.w	r1, [r2, #240]	@ 0xf0
 8003cfc:	0109      	lsls	r1, r1, #4
 8003cfe:	d50b      	bpl.n	8003d18 <HAL_RCCEx_GetPeriphCLKFreq+0x7dc>
 8003d00:	f5b3 7f80 	cmp.w	r3, #256	@ 0x100
 8003d04:	d108      	bne.n	8003d18 <HAL_RCCEx_GetPeriphCLKFreq+0x7dc>
 8003d06:	f8d2 30f0 	ldr.w	r3, [r2, #240]	@ 0xf0
 8003d0a:	f013 5f80 	tst.w	r3, #268435456	@ 0x10000000
 8003d0e:	bf14      	ite	ne
 8003d10:	20fa      	movne	r0, #250	@ 0xfa
 8003d12:	f44f 40fa 	moveq.w	r0, #32000	@ 0x7d00
 8003d16:	e452      	b.n	80035be <HAL_RCCEx_GetPeriphCLKFreq+0x82>
 8003d18:	6812      	ldr	r2, [r2, #0]
 8003d1a:	0552      	lsls	r2, r2, #21
 8003d1c:	d503      	bpl.n	8003d26 <HAL_RCCEx_GetPeriphCLKFreq+0x7ea>
 8003d1e:	f5b3 7f00 	cmp.w	r3, #512	@ 0x200
 8003d22:	f000 81dc 	beq.w	80040de <HAL_RCCEx_GetPeriphCLKFreq+0xba2>
 8003d26:	4a3d      	ldr	r2, [pc, #244]	@ (8003e1c <HAL_RCCEx_GetPeriphCLKFreq+0x8e0>)
 8003d28:	f8d2 00f0 	ldr.w	r0, [r2, #240]	@ 0xf0
 8003d2c:	f010 0002 	ands.w	r0, r0, #2
 8003d30:	f43f ac45 	beq.w	80035be <HAL_RCCEx_GetPeriphCLKFreq+0x82>
 8003d34:	f5a3 7c40 	sub.w	ip, r3, #768	@ 0x300
 8003d38:	f1dc 0300 	rsbs	r3, ip, #0
 8003d3c:	eb43 030c 	adc.w	r3, r3, ip
 8003d40:	03d8      	lsls	r0, r3, #15
 8003d42:	e43c      	b.n	80035be <HAL_RCCEx_GetPeriphCLKFreq+0x82>
 8003d44:	4a35      	ldr	r2, [pc, #212]	@ (8003e1c <HAL_RCCEx_GetPeriphCLKFreq+0x8e0>)
 8003d46:	f8d2 30e8 	ldr.w	r3, [r2, #232]	@ 0xe8
 8003d4a:	f413 6340 	ands.w	r3, r3, #3072	@ 0xc00
 8003d4e:	d113      	bne.n	8003d78 <HAL_RCCEx_GetPeriphCLKFreq+0x83c>
 8003d50:	6810      	ldr	r0, [r2, #0]
 8003d52:	f010 0020 	ands.w	r0, r0, #32
 8003d56:	f43f ac32 	beq.w	80035be <HAL_RCCEx_GetPeriphCLKFreq+0x82>
 8003d5a:	6893      	ldr	r3, [r2, #8]
 8003d5c:	0218      	lsls	r0, r3, #8
 8003d5e:	bf4c      	ite	mi
 8003d60:	6893      	ldrmi	r3, [r2, #8]
 8003d62:	f8d2 30f4 	ldrpl.w	r3, [r2, #244]	@ 0xf4
 8003d66:	4a2e      	ldr	r2, [pc, #184]	@ (8003e20 <HAL_RCCEx_GetPeriphCLKFreq+0x8e4>)
 8003d68:	bf4c      	ite	mi
 8003d6a:	f3c3 6303 	ubfxmi	r3, r3, #24, #4
 8003d6e:	f3c3 2303 	ubfxpl	r3, r3, #8, #4
 8003d72:	f852 0023 	ldr.w	r0, [r2, r3, lsl #2]
 8003d76:	e422      	b.n	80035be <HAL_RCCEx_GetPeriphCLKFreq+0x82>
 8003d78:	f8d2 10f0 	ldr.w	r1, [r2, #240]	@ 0xf0
 8003d7c:	0109      	lsls	r1, r1, #4
 8003d7e:	d50b      	bpl.n	8003d98 <HAL_RCCEx_GetPeriphCLKFreq+0x85c>
 8003d80:	f5b3 6f80 	cmp.w	r3, #1024	@ 0x400
 8003d84:	d108      	bne.n	8003d98 <HAL_RCCEx_GetPeriphCLKFreq+0x85c>
 8003d86:	f8d2 30f0 	ldr.w	r3, [r2, #240]	@ 0xf0
 8003d8a:	f013 5f80 	tst.w	r3, #268435456	@ 0x10000000
 8003d8e:	bf14      	ite	ne
 8003d90:	20fa      	movne	r0, #250	@ 0xfa
 8003d92:	f44f 40fa 	moveq.w	r0, #32000	@ 0x7d00
 8003d96:	e412      	b.n	80035be <HAL_RCCEx_GetPeriphCLKFreq+0x82>
 8003d98:	6812      	ldr	r2, [r2, #0]
 8003d9a:	0552      	lsls	r2, r2, #21
 8003d9c:	d503      	bpl.n	8003da6 <HAL_RCCEx_GetPeriphCLKFreq+0x86a>
 8003d9e:	f5b3 6f00 	cmp.w	r3, #2048	@ 0x800
 8003da2:	f000 819f 	beq.w	80040e4 <HAL_RCCEx_GetPeriphCLKFreq+0xba8>
 8003da6:	4a1d      	ldr	r2, [pc, #116]	@ (8003e1c <HAL_RCCEx_GetPeriphCLKFreq+0x8e0>)
 8003da8:	f8d2 00f0 	ldr.w	r0, [r2, #240]	@ 0xf0
 8003dac:	f010 0002 	ands.w	r0, r0, #2
 8003db0:	f43f ac05 	beq.w	80035be <HAL_RCCEx_GetPeriphCLKFreq+0x82>
 8003db4:	f5a3 6040 	sub.w	r0, r3, #3072	@ 0xc00
 8003db8:	4243      	negs	r3, r0
 8003dba:	4143      	adcs	r3, r0
 8003dbc:	03d8      	lsls	r0, r3, #15
 8003dbe:	f7ff bbfe 	b.w	80035be <HAL_RCCEx_GetPeriphCLKFreq+0x82>
 8003dc2:	4a16      	ldr	r2, [pc, #88]	@ (8003e1c <HAL_RCCEx_GetPeriphCLKFreq+0x8e0>)
 8003dc4:	f8d2 30e0 	ldr.w	r3, [r2, #224]	@ 0xe0
 8003dc8:	f413 2340 	ands.w	r3, r3, #786432	@ 0xc0000
 8003dcc:	f43f ad74 	beq.w	80038b8 <HAL_RCCEx_GetPeriphCLKFreq+0x37c>
 8003dd0:	f8d2 10f0 	ldr.w	r1, [r2, #240]	@ 0xf0
 8003dd4:	0109      	lsls	r1, r1, #4
 8003dd6:	d50c      	bpl.n	8003df2 <HAL_RCCEx_GetPeriphCLKFreq+0x8b6>
 8003dd8:	f5b3 2f80 	cmp.w	r3, #262144	@ 0x40000
 8003ddc:	d109      	bne.n	8003df2 <HAL_RCCEx_GetPeriphCLKFreq+0x8b6>
 8003dde:	f8d2 30f0 	ldr.w	r3, [r2, #240]	@ 0xf0
 8003de2:	f013 5f80 	tst.w	r3, #268435456	@ 0x10000000
 8003de6:	bf14      	ite	ne
 8003de8:	20fa      	movne	r0, #250	@ 0xfa
 8003dea:	f44f 40fa 	moveq.w	r0, #32000	@ 0x7d00
 8003dee:	f7ff bbe6 	b.w	80035be <HAL_RCCEx_GetPeriphCLKFreq+0x82>
 8003df2:	6812      	ldr	r2, [r2, #0]
 8003df4:	0552      	lsls	r2, r2, #21
 8003df6:	d503      	bpl.n	8003e00 <HAL_RCCEx_GetPeriphCLKFreq+0x8c4>
 8003df8:	f5b3 2f00 	cmp.w	r3, #524288	@ 0x80000
 8003dfc:	f000 8175 	beq.w	80040ea <HAL_RCCEx_GetPeriphCLKFreq+0xbae>
 8003e00:	4a06      	ldr	r2, [pc, #24]	@ (8003e1c <HAL_RCCEx_GetPeriphCLKFreq+0x8e0>)
 8003e02:	f8d2 00f0 	ldr.w	r0, [r2, #240]	@ 0xf0
 8003e06:	f010 0002 	ands.w	r0, r0, #2
 8003e0a:	f43f abd8 	beq.w	80035be <HAL_RCCEx_GetPeriphCLKFreq+0x82>
 8003e0e:	f5a3 2040 	sub.w	r0, r3, #786432	@ 0xc0000
 8003e12:	4243      	negs	r3, r0
 8003e14:	4143      	adcs	r3, r0
 8003e16:	03d8      	lsls	r0, r3, #15
 8003e18:	f7ff bbd1 	b.w	80035be <HAL_RCCEx_GetPeriphCLKFreq+0x82>
 8003e1c:	46020c00 	.word	0x46020c00
 8003e20:	080049ac 	.word	0x080049ac
 8003e24:	00f42400 	.word	0x00f42400
 8003e28:	4abb      	ldr	r2, [pc, #748]	@ (8004118 <HAL_RCCEx_GetPeriphCLKFreq+0xbdc>)
 8003e2a:	f8d2 30e0 	ldr.w	r3, [r2, #224]	@ 0xe0
 8003e2e:	6812      	ldr	r2, [r2, #0]
 8003e30:	f003 7340 	and.w	r3, r3, #50331648	@ 0x3000000
 8003e34:	0391      	lsls	r1, r2, #14
 8003e36:	d502      	bpl.n	8003e3e <HAL_RCCEx_GetPeriphCLKFreq+0x902>
 8003e38:	2b00      	cmp	r3, #0
 8003e3a:	f000 8159 	beq.w	80040f0 <HAL_RCCEx_GetPeriphCLKFreq+0xbb4>
 8003e3e:	f1b3 7f80 	cmp.w	r3, #16777216	@ 0x1000000
 8003e42:	d105      	bne.n	8003e50 <HAL_RCCEx_GetPeriphCLKFreq+0x914>
 8003e44:	a801      	add	r0, sp, #4
 8003e46:	f7ff f9ab 	bl	80031a0 <HAL_RCCEx_GetPLL1ClockFreq>
 8003e4a:	9802      	ldr	r0, [sp, #8]
 8003e4c:	f7ff bbb7 	b.w	80035be <HAL_RCCEx_GetPeriphCLKFreq+0x82>
 8003e50:	f1b3 7f00 	cmp.w	r3, #33554432	@ 0x2000000
 8003e54:	f040 814f 	bne.w	80040f6 <HAL_RCCEx_GetPeriphCLKFreq+0xbba>
 8003e58:	a801      	add	r0, sp, #4
 8003e5a:	f7ff fa3b 	bl	80032d4 <HAL_RCCEx_GetPLL2ClockFreq>
 8003e5e:	9801      	ldr	r0, [sp, #4]
 8003e60:	f7ff bbad 	b.w	80035be <HAL_RCCEx_GetPeriphCLKFreq+0x82>
 8003e64:	4bac      	ldr	r3, [pc, #688]	@ (8004118 <HAL_RCCEx_GetPeriphCLKFreq+0xbdc>)
 8003e66:	f8d3 20e0 	ldr.w	r2, [r3, #224]	@ 0xe0
 8003e6a:	f402 1240 	and.w	r2, r2, #3145728	@ 0x300000
 8003e6e:	f5b2 1f00 	cmp.w	r2, #2097152	@ 0x200000
 8003e72:	d00a      	beq.n	8003e8a <HAL_RCCEx_GetPeriphCLKFreq+0x94e>
 8003e74:	d803      	bhi.n	8003e7e <HAL_RCCEx_GetPeriphCLKFreq+0x942>
 8003e76:	2a00      	cmp	r2, #0
 8003e78:	f47f acfe 	bne.w	8003878 <HAL_RCCEx_GetPeriphCLKFreq+0x33c>
 8003e7c:	e4f5      	b.n	800386a <HAL_RCCEx_GetPeriphCLKFreq+0x32e>
 8003e7e:	f5b2 1f40 	cmp.w	r2, #3145728	@ 0x300000
 8003e82:	d00a      	beq.n	8003e9a <HAL_RCCEx_GetPeriphCLKFreq+0x95e>
 8003e84:	2000      	movs	r0, #0
 8003e86:	f7ff bb9a 	b.w	80035be <HAL_RCCEx_GetPeriphCLKFreq+0x82>
 8003e8a:	681b      	ldr	r3, [r3, #0]
 8003e8c:	48a3      	ldr	r0, [pc, #652]	@ (800411c <HAL_RCCEx_GetPeriphCLKFreq+0xbe0>)
 8003e8e:	f413 6f80 	tst.w	r3, #1024	@ 0x400
 8003e92:	bf08      	it	eq
 8003e94:	2000      	moveq	r0, #0
 8003e96:	f7ff bb92 	b.w	80035be <HAL_RCCEx_GetPeriphCLKFreq+0x82>
 8003e9a:	6818      	ldr	r0, [r3, #0]
 8003e9c:	f010 0020 	ands.w	r0, r0, #32
 8003ea0:	f43f ab8d 	beq.w	80035be <HAL_RCCEx_GetPeriphCLKFreq+0x82>
 8003ea4:	689a      	ldr	r2, [r3, #8]
 8003ea6:	0212      	lsls	r2, r2, #8
 8003ea8:	bf4c      	ite	mi
 8003eaa:	689b      	ldrmi	r3, [r3, #8]
 8003eac:	f8d3 30f4 	ldrpl.w	r3, [r3, #244]	@ 0xf4
 8003eb0:	4a9b      	ldr	r2, [pc, #620]	@ (8004120 <HAL_RCCEx_GetPeriphCLKFreq+0xbe4>)
 8003eb2:	bf4c      	ite	mi
 8003eb4:	f3c3 6303 	ubfxmi	r3, r3, #24, #4
 8003eb8:	f3c3 2303 	ubfxpl	r3, r3, #8, #4
 8003ebc:	f852 0023 	ldr.w	r0, [r2, r3, lsl #2]
 8003ec0:	f7ff bb7d 	b.w	80035be <HAL_RCCEx_GetPeriphCLKFreq+0x82>
 8003ec4:	4b94      	ldr	r3, [pc, #592]	@ (8004118 <HAL_RCCEx_GetPeriphCLKFreq+0xbdc>)
 8003ec6:	f8d3 20e0 	ldr.w	r2, [r3, #224]	@ 0xe0
 8003eca:	f402 3240 	and.w	r2, r2, #196608	@ 0x30000
 8003ece:	f5b2 3f00 	cmp.w	r2, #131072	@ 0x20000
 8003ed2:	d00a      	beq.n	8003eea <HAL_RCCEx_GetPeriphCLKFreq+0x9ae>
 8003ed4:	d803      	bhi.n	8003ede <HAL_RCCEx_GetPeriphCLKFreq+0x9a2>
 8003ed6:	2a00      	cmp	r2, #0
 8003ed8:	f47f acce 	bne.w	8003878 <HAL_RCCEx_GetPeriphCLKFreq+0x33c>
 8003edc:	e4ec      	b.n	80038b8 <HAL_RCCEx_GetPeriphCLKFreq+0x37c>
 8003ede:	f5b2 3f40 	cmp.w	r2, #196608	@ 0x30000
 8003ee2:	d00a      	beq.n	8003efa <HAL_RCCEx_GetPeriphCLKFreq+0x9be>
 8003ee4:	2000      	movs	r0, #0
 8003ee6:	f7ff bb6a 	b.w	80035be <HAL_RCCEx_GetPeriphCLKFreq+0x82>
 8003eea:	681b      	ldr	r3, [r3, #0]
 8003eec:	488b      	ldr	r0, [pc, #556]	@ (800411c <HAL_RCCEx_GetPeriphCLKFreq+0xbe0>)
 8003eee:	f413 6f80 	tst.w	r3, #1024	@ 0x400
 8003ef2:	bf08      	it	eq
 8003ef4:	2000      	moveq	r0, #0
 8003ef6:	f7ff bb62 	b.w	80035be <HAL_RCCEx_GetPeriphCLKFreq+0x82>
 8003efa:	6818      	ldr	r0, [r3, #0]
 8003efc:	f010 0020 	ands.w	r0, r0, #32
 8003f00:	f43f ab5d 	beq.w	80035be <HAL_RCCEx_GetPeriphCLKFreq+0x82>
 8003f04:	689a      	ldr	r2, [r3, #8]
 8003f06:	0210      	lsls	r0, r2, #8
 8003f08:	bf4c      	ite	mi
 8003f0a:	689b      	ldrmi	r3, [r3, #8]
 8003f0c:	f8d3 30f4 	ldrpl.w	r3, [r3, #244]	@ 0xf4
 8003f10:	4a83      	ldr	r2, [pc, #524]	@ (8004120 <HAL_RCCEx_GetPeriphCLKFreq+0xbe4>)
 8003f12:	bf4c      	ite	mi
 8003f14:	f3c3 6303 	ubfxmi	r3, r3, #24, #4
 8003f18:	f3c3 2303 	ubfxpl	r3, r3, #8, #4
 8003f1c:	f852 0023 	ldr.w	r0, [r2, r3, lsl #2]
 8003f20:	f7ff bb4d 	b.w	80035be <HAL_RCCEx_GetPeriphCLKFreq+0x82>
 8003f24:	4b7c      	ldr	r3, [pc, #496]	@ (8004118 <HAL_RCCEx_GetPeriphCLKFreq+0xbdc>)
 8003f26:	f8d3 20e8 	ldr.w	r2, [r3, #232]	@ 0xe8
 8003f2a:	f002 0218 	and.w	r2, r2, #24
 8003f2e:	2a10      	cmp	r2, #16
 8003f30:	d006      	beq.n	8003f40 <HAL_RCCEx_GetPeriphCLKFreq+0xa04>
 8003f32:	f67f ae79 	bls.w	8003c28 <HAL_RCCEx_GetPeriphCLKFreq+0x6ec>
 8003f36:	2a18      	cmp	r2, #24
 8003f38:	d00a      	beq.n	8003f50 <HAL_RCCEx_GetPeriphCLKFreq+0xa14>
 8003f3a:	2000      	movs	r0, #0
 8003f3c:	f7ff bb3f 	b.w	80035be <HAL_RCCEx_GetPeriphCLKFreq+0x82>
 8003f40:	681b      	ldr	r3, [r3, #0]
 8003f42:	4876      	ldr	r0, [pc, #472]	@ (800411c <HAL_RCCEx_GetPeriphCLKFreq+0xbe0>)
 8003f44:	f413 6f80 	tst.w	r3, #1024	@ 0x400
 8003f48:	bf08      	it	eq
 8003f4a:	2000      	moveq	r0, #0
 8003f4c:	f7ff bb37 	b.w	80035be <HAL_RCCEx_GetPeriphCLKFreq+0x82>
 8003f50:	6818      	ldr	r0, [r3, #0]
 8003f52:	f010 0020 	ands.w	r0, r0, #32
 8003f56:	f43f ab32 	beq.w	80035be <HAL_RCCEx_GetPeriphCLKFreq+0x82>
 8003f5a:	689a      	ldr	r2, [r3, #8]
 8003f5c:	0211      	lsls	r1, r2, #8
 8003f5e:	bf4c      	ite	mi
 8003f60:	689b      	ldrmi	r3, [r3, #8]
 8003f62:	f8d3 30f4 	ldrpl.w	r3, [r3, #244]	@ 0xf4
 8003f66:	4a6e      	ldr	r2, [pc, #440]	@ (8004120 <HAL_RCCEx_GetPeriphCLKFreq+0xbe4>)
 8003f68:	bf4c      	ite	mi
 8003f6a:	f3c3 6303 	ubfxmi	r3, r3, #24, #4
 8003f6e:	f3c3 2303 	ubfxpl	r3, r3, #8, #4
 8003f72:	f852 0023 	ldr.w	r0, [r2, r3, lsl #2]
 8003f76:	f7ff bb22 	b.w	80035be <HAL_RCCEx_GetPeriphCLKFreq+0x82>
 8003f7a:	4b67      	ldr	r3, [pc, #412]	@ (8004118 <HAL_RCCEx_GetPeriphCLKFreq+0xbdc>)
 8003f7c:	f8d3 20e4 	ldr.w	r2, [r3, #228]	@ 0xe4
 8003f80:	f402 1240 	and.w	r2, r2, #3145728	@ 0x300000
 8003f84:	f5b2 1f00 	cmp.w	r2, #2097152	@ 0x200000
 8003f88:	f43f ac15 	beq.w	80037b6 <HAL_RCCEx_GetPeriphCLKFreq+0x27a>
 8003f8c:	d817      	bhi.n	8003fbe <HAL_RCCEx_GetPeriphCLKFreq+0xa82>
 8003f8e:	2a00      	cmp	r2, #0
 8003f90:	f43f ac72 	beq.w	8003878 <HAL_RCCEx_GetPeriphCLKFreq+0x33c>
 8003f94:	6818      	ldr	r0, [r3, #0]
 8003f96:	f010 0020 	ands.w	r0, r0, #32
 8003f9a:	f43f ab10 	beq.w	80035be <HAL_RCCEx_GetPeriphCLKFreq+0x82>
 8003f9e:	689a      	ldr	r2, [r3, #8]
 8003fa0:	0212      	lsls	r2, r2, #8
 8003fa2:	bf4c      	ite	mi
 8003fa4:	689b      	ldrmi	r3, [r3, #8]
 8003fa6:	f8d3 30f4 	ldrpl.w	r3, [r3, #244]	@ 0xf4
 8003faa:	4a5d      	ldr	r2, [pc, #372]	@ (8004120 <HAL_RCCEx_GetPeriphCLKFreq+0xbe4>)
 8003fac:	bf4c      	ite	mi
 8003fae:	f3c3 6303 	ubfxmi	r3, r3, #24, #4
 8003fb2:	f3c3 2303 	ubfxpl	r3, r3, #8, #4
 8003fb6:	f852 0023 	ldr.w	r0, [r2, r3, lsl #2]
 8003fba:	f7ff bb00 	b.w	80035be <HAL_RCCEx_GetPeriphCLKFreq+0x82>
 8003fbe:	f5b2 1f40 	cmp.w	r2, #3145728	@ 0x300000
 8003fc2:	f43f abfd 	beq.w	80037c0 <HAL_RCCEx_GetPeriphCLKFreq+0x284>
 8003fc6:	2000      	movs	r0, #0
 8003fc8:	f7ff baf9 	b.w	80035be <HAL_RCCEx_GetPeriphCLKFreq+0x82>
 8003fcc:	4a52      	ldr	r2, [pc, #328]	@ (8004118 <HAL_RCCEx_GetPeriphCLKFreq+0xbdc>)
 8003fce:	f8d2 00e8 	ldr.w	r0, [r2, #232]	@ 0xe8
 8003fd2:	f8d2 30f0 	ldr.w	r3, [r2, #240]	@ 0xf0
 8003fd6:	f400 4000 	and.w	r0, r0, #32768	@ 0x8000
 8003fda:	079b      	lsls	r3, r3, #30
 8003fdc:	d502      	bpl.n	8003fe4 <HAL_RCCEx_GetPeriphCLKFreq+0xaa8>
 8003fde:	2800      	cmp	r0, #0
 8003fe0:	f000 808c 	beq.w	80040fc <HAL_RCCEx_GetPeriphCLKFreq+0xbc0>
 8003fe4:	f8d2 30f0 	ldr.w	r3, [r2, #240]	@ 0xf0
 8003fe8:	f013 6300 	ands.w	r3, r3, #134217728	@ 0x8000000
 8003fec:	f000 808a 	beq.w	8004104 <HAL_RCCEx_GetPeriphCLKFreq+0xbc8>
 8003ff0:	2800      	cmp	r0, #0
 8003ff2:	f43f aae4 	beq.w	80035be <HAL_RCCEx_GetPeriphCLKFreq+0x82>
 8003ff6:	f8d2 30f0 	ldr.w	r3, [r2, #240]	@ 0xf0
 8003ffa:	f013 5f80 	tst.w	r3, #268435456	@ 0x10000000
 8003ffe:	bf14      	ite	ne
 8004000:	20fa      	movne	r0, #250	@ 0xfa
 8004002:	f44f 40fa 	moveq.w	r0, #32000	@ 0x7d00
 8004006:	f7ff bada 	b.w	80035be <HAL_RCCEx_GetPeriphCLKFreq+0x82>
 800400a:	4a43      	ldr	r2, [pc, #268]	@ (8004118 <HAL_RCCEx_GetPeriphCLKFreq+0xbdc>)
 800400c:	f8d2 30e4 	ldr.w	r3, [r2, #228]	@ 0xe4
 8004010:	6811      	ldr	r1, [r2, #0]
 8004012:	f403 5340 	and.w	r3, r3, #12288	@ 0x3000
 8004016:	0489      	lsls	r1, r1, #18
 8004018:	d501      	bpl.n	800401e <HAL_RCCEx_GetPeriphCLKFreq+0xae2>
 800401a:	2b00      	cmp	r3, #0
 800401c:	d075      	beq.n	800410a <HAL_RCCEx_GetPeriphCLKFreq+0xbce>
 800401e:	6812      	ldr	r2, [r2, #0]
 8004020:	0492      	lsls	r2, r2, #18
 8004022:	d502      	bpl.n	800402a <HAL_RCCEx_GetPeriphCLKFreq+0xaee>
 8004024:	f5b3 5f80 	cmp.w	r3, #4096	@ 0x1000
 8004028:	d072      	beq.n	8004110 <HAL_RCCEx_GetPeriphCLKFreq+0xbd4>
 800402a:	4a3b      	ldr	r2, [pc, #236]	@ (8004118 <HAL_RCCEx_GetPeriphCLKFreq+0xbdc>)
 800402c:	6810      	ldr	r0, [r2, #0]
 800402e:	f410 6080 	ands.w	r0, r0, #1024	@ 0x400
 8004032:	f43f aac4 	beq.w	80035be <HAL_RCCEx_GetPeriphCLKFreq+0x82>
 8004036:	f5b3 5f00 	cmp.w	r3, #8192	@ 0x2000
 800403a:	4838      	ldr	r0, [pc, #224]	@ (800411c <HAL_RCCEx_GetPeriphCLKFreq+0xbe0>)
 800403c:	bf18      	it	ne
 800403e:	2000      	movne	r0, #0
 8004040:	f7ff babd 	b.w	80035be <HAL_RCCEx_GetPeriphCLKFreq+0x82>
 8004044:	2000      	movs	r0, #0
 8004046:	f7ff baba 	b.w	80035be <HAL_RCCEx_GetPeriphCLKFreq+0x82>
 800404a:	2000      	movs	r0, #0
 800404c:	f7ff bab7 	b.w	80035be <HAL_RCCEx_GetPeriphCLKFreq+0x82>
 8004050:	f44f 4000 	mov.w	r0, #32768	@ 0x8000
 8004054:	f7ff bab3 	b.w	80035be <HAL_RCCEx_GetPeriphCLKFreq+0x82>
 8004058:	f64b 3080 	movw	r0, #48000	@ 0xbb80
 800405c:	f7ff baaf 	b.w	80035be <HAL_RCCEx_GetPeriphCLKFreq+0x82>
 8004060:	f64b 3080 	movw	r0, #48000	@ 0xbb80
 8004064:	f7ff baab 	b.w	80035be <HAL_RCCEx_GetPeriphCLKFreq+0x82>
 8004068:	2000      	movs	r0, #0
 800406a:	f7ff baa8 	b.w	80035be <HAL_RCCEx_GetPeriphCLKFreq+0x82>
 800406e:	482b      	ldr	r0, [pc, #172]	@ (800411c <HAL_RCCEx_GetPeriphCLKFreq+0xbe0>)
 8004070:	f7ff baa5 	b.w	80035be <HAL_RCCEx_GetPeriphCLKFreq+0x82>
 8004074:	4829      	ldr	r0, [pc, #164]	@ (800411c <HAL_RCCEx_GetPeriphCLKFreq+0xbe0>)
 8004076:	f7ff baa2 	b.w	80035be <HAL_RCCEx_GetPeriphCLKFreq+0x82>
 800407a:	4828      	ldr	r0, [pc, #160]	@ (800411c <HAL_RCCEx_GetPeriphCLKFreq+0xbe0>)
 800407c:	f7ff ba9f 	b.w	80035be <HAL_RCCEx_GetPeriphCLKFreq+0x82>
 8004080:	4826      	ldr	r0, [pc, #152]	@ (800411c <HAL_RCCEx_GetPeriphCLKFreq+0xbe0>)
 8004082:	f7ff ba9c 	b.w	80035be <HAL_RCCEx_GetPeriphCLKFreq+0x82>
 8004086:	4825      	ldr	r0, [pc, #148]	@ (800411c <HAL_RCCEx_GetPeriphCLKFreq+0xbe0>)
 8004088:	f7ff ba99 	b.w	80035be <HAL_RCCEx_GetPeriphCLKFreq+0x82>
 800408c:	4823      	ldr	r0, [pc, #140]	@ (800411c <HAL_RCCEx_GetPeriphCLKFreq+0xbe0>)
 800408e:	f7ff ba96 	b.w	80035be <HAL_RCCEx_GetPeriphCLKFreq+0x82>
 8004092:	f44f 4000 	mov.w	r0, #32768	@ 0x8000
 8004096:	f7ff ba92 	b.w	80035be <HAL_RCCEx_GetPeriphCLKFreq+0x82>
 800409a:	2000      	movs	r0, #0
 800409c:	f7ff ba8f 	b.w	80035be <HAL_RCCEx_GetPeriphCLKFreq+0x82>
 80040a0:	481e      	ldr	r0, [pc, #120]	@ (800411c <HAL_RCCEx_GetPeriphCLKFreq+0xbe0>)
 80040a2:	f7ff ba8c 	b.w	80035be <HAL_RCCEx_GetPeriphCLKFreq+0x82>
 80040a6:	2000      	movs	r0, #0
 80040a8:	f7ff ba89 	b.w	80035be <HAL_RCCEx_GetPeriphCLKFreq+0x82>
 80040ac:	f64b 3080 	movw	r0, #48000	@ 0xbb80
 80040b0:	f7ff ba85 	b.w	80035be <HAL_RCCEx_GetPeriphCLKFreq+0x82>
 80040b4:	2000      	movs	r0, #0
 80040b6:	f7ff ba82 	b.w	80035be <HAL_RCCEx_GetPeriphCLKFreq+0x82>
 80040ba:	4818      	ldr	r0, [pc, #96]	@ (800411c <HAL_RCCEx_GetPeriphCLKFreq+0xbe0>)
 80040bc:	f7ff ba7f 	b.w	80035be <HAL_RCCEx_GetPeriphCLKFreq+0x82>
 80040c0:	2000      	movs	r0, #0
 80040c2:	f7ff ba7c 	b.w	80035be <HAL_RCCEx_GetPeriphCLKFreq+0x82>
 80040c6:	4815      	ldr	r0, [pc, #84]	@ (800411c <HAL_RCCEx_GetPeriphCLKFreq+0xbe0>)
 80040c8:	f7ff ba79 	b.w	80035be <HAL_RCCEx_GetPeriphCLKFreq+0x82>
 80040cc:	2000      	movs	r0, #0
 80040ce:	f7ff ba76 	b.w	80035be <HAL_RCCEx_GetPeriphCLKFreq+0x82>
 80040d2:	4812      	ldr	r0, [pc, #72]	@ (800411c <HAL_RCCEx_GetPeriphCLKFreq+0xbe0>)
 80040d4:	f7ff ba73 	b.w	80035be <HAL_RCCEx_GetPeriphCLKFreq+0x82>
 80040d8:	2000      	movs	r0, #0
 80040da:	f7ff ba70 	b.w	80035be <HAL_RCCEx_GetPeriphCLKFreq+0x82>
 80040de:	480f      	ldr	r0, [pc, #60]	@ (800411c <HAL_RCCEx_GetPeriphCLKFreq+0xbe0>)
 80040e0:	f7ff ba6d 	b.w	80035be <HAL_RCCEx_GetPeriphCLKFreq+0x82>
 80040e4:	480d      	ldr	r0, [pc, #52]	@ (800411c <HAL_RCCEx_GetPeriphCLKFreq+0xbe0>)
 80040e6:	f7ff ba6a 	b.w	80035be <HAL_RCCEx_GetPeriphCLKFreq+0x82>
 80040ea:	480c      	ldr	r0, [pc, #48]	@ (800411c <HAL_RCCEx_GetPeriphCLKFreq+0xbe0>)
 80040ec:	f7ff ba67 	b.w	80035be <HAL_RCCEx_GetPeriphCLKFreq+0x82>
 80040f0:	480a      	ldr	r0, [pc, #40]	@ (800411c <HAL_RCCEx_GetPeriphCLKFreq+0xbe0>)
 80040f2:	f7ff ba64 	b.w	80035be <HAL_RCCEx_GetPeriphCLKFreq+0x82>
 80040f6:	2000      	movs	r0, #0
 80040f8:	f7ff ba61 	b.w	80035be <HAL_RCCEx_GetPeriphCLKFreq+0x82>
 80040fc:	f44f 4000 	mov.w	r0, #32768	@ 0x8000
 8004100:	f7ff ba5d 	b.w	80035be <HAL_RCCEx_GetPeriphCLKFreq+0x82>
 8004104:	4618      	mov	r0, r3
 8004106:	f7ff ba5a 	b.w	80035be <HAL_RCCEx_GetPeriphCLKFreq+0x82>
 800410a:	4806      	ldr	r0, [pc, #24]	@ (8004124 <HAL_RCCEx_GetPeriphCLKFreq+0xbe8>)
 800410c:	f7ff ba57 	b.w	80035be <HAL_RCCEx_GetPeriphCLKFreq+0x82>
 8004110:	4805      	ldr	r0, [pc, #20]	@ (8004128 <HAL_RCCEx_GetPeriphCLKFreq+0xbec>)
 8004112:	f7ff ba54 	b.w	80035be <HAL_RCCEx_GetPeriphCLKFreq+0x82>
 8004116:	bf00      	nop
 8004118:	46020c00 	.word	0x46020c00
 800411c:	00f42400 	.word	0x00f42400
 8004120:	080049ac 	.word	0x080049ac
 8004124:	02dc6c00 	.word	0x02dc6c00
 8004128:	016e3600 	.word	0x016e3600

0800412c <UART_EndTxTransfer>:
 800412c:	6802      	ldr	r2, [r0, #0]
 800412e:	e852 3f00 	ldrex	r3, [r2]
 8004132:	f023 03c0 	bic.w	r3, r3, #192	@ 0xc0
 8004136:	e842 3100 	strex	r1, r3, [r2]
 800413a:	6802      	ldr	r2, [r0, #0]
 800413c:	2900      	cmp	r1, #0
 800413e:	d1f5      	bne.n	800412c <UART_EndTxTransfer>
 8004140:	f102 0308 	add.w	r3, r2, #8
 8004144:	e853 3f00 	ldrex	r3, [r3]
 8004148:	f423 0300 	bic.w	r3, r3, #8388608	@ 0x800000
 800414c:	f102 0c08 	add.w	ip, r2, #8
 8004150:	e84c 3100 	strex	r1, r3, [ip]
 8004154:	2900      	cmp	r1, #0
 8004156:	d1f3      	bne.n	8004140 <UART_EndTxTransfer+0x14>
 8004158:	2320      	movs	r3, #32
 800415a:	f8c0 3088 	str.w	r3, [r0, #136]	@ 0x88
 800415e:	4770      	bx	lr

08004160 <UART_EndRxTransfer>:
 8004160:	b510      	push	{r4, lr}
 8004162:	6802      	ldr	r2, [r0, #0]
 8004164:	e852 3f00 	ldrex	r3, [r2]
 8004168:	f423 7390 	bic.w	r3, r3, #288	@ 0x120
 800416c:	e842 3100 	strex	r1, r3, [r2]
 8004170:	6802      	ldr	r2, [r0, #0]
 8004172:	2900      	cmp	r1, #0
 8004174:	d1f5      	bne.n	8004162 <UART_EndRxTransfer+0x2>
 8004176:	4c0f      	ldr	r4, [pc, #60]	@ (80041b4 <UART_EndRxTransfer+0x54>)
 8004178:	f102 0308 	add.w	r3, r2, #8
 800417c:	e853 3f00 	ldrex	r3, [r3]
 8004180:	4023      	ands	r3, r4
 8004182:	f102 0c08 	add.w	ip, r2, #8
 8004186:	e84c 3100 	strex	r1, r3, [ip]
 800418a:	2900      	cmp	r1, #0
 800418c:	d1f4      	bne.n	8004178 <UART_EndRxTransfer+0x18>
 800418e:	6ec3      	ldr	r3, [r0, #108]	@ 0x6c
 8004190:	2b01      	cmp	r3, #1
 8004192:	d107      	bne.n	80041a4 <UART_EndRxTransfer+0x44>
 8004194:	e852 3f00 	ldrex	r3, [r2]
 8004198:	f023 0310 	bic.w	r3, r3, #16
 800419c:	e842 3100 	strex	r1, r3, [r2]
 80041a0:	2900      	cmp	r1, #0
 80041a2:	d1f7      	bne.n	8004194 <UART_EndRxTransfer+0x34>
 80041a4:	2320      	movs	r3, #32
 80041a6:	f8c0 308c 	str.w	r3, [r0, #140]	@ 0x8c
 80041aa:	2300      	movs	r3, #0
 80041ac:	66c3      	str	r3, [r0, #108]	@ 0x6c
 80041ae:	6743      	str	r3, [r0, #116]	@ 0x74
 80041b0:	bd10      	pop	{r4, pc}
 80041b2:	bf00      	nop
 80041b4:	effffffe 	.word	0xeffffffe

080041b8 <HAL_UART_Transmit_DMA>:
 80041b8:	b538      	push	{r3, r4, r5, lr}
 80041ba:	4613      	mov	r3, r2
 80041bc:	f8d0 2088 	ldr.w	r2, [r0, #136]	@ 0x88
 80041c0:	4604      	mov	r4, r0
 80041c2:	2a20      	cmp	r2, #32
 80041c4:	d14c      	bne.n	8004260 <HAL_UART_Transmit_DMA+0xa8>
 80041c6:	b339      	cbz	r1, 8004218 <HAL_UART_Transmit_DMA+0x60>
 80041c8:	b333      	cbz	r3, 8004218 <HAL_UART_Transmit_DMA+0x60>
 80041ca:	2200      	movs	r2, #0
 80041cc:	f8a0 3056 	strh.w	r3, [r0, #86]	@ 0x56
 80041d0:	6501      	str	r1, [r0, #80]	@ 0x50
 80041d2:	f8a0 3054 	strh.w	r3, [r0, #84]	@ 0x54
 80041d6:	f8c0 2090 	str.w	r2, [r0, #144]	@ 0x90
 80041da:	2021      	movs	r0, #33	@ 0x21
 80041dc:	f8c4 0088 	str.w	r0, [r4, #136]	@ 0x88
 80041e0:	6fe0      	ldr	r0, [r4, #124]	@ 0x7c
 80041e2:	b338      	cbz	r0, 8004234 <HAL_UART_Transmit_DMA+0x7c>
 80041e4:	4d1f      	ldr	r5, [pc, #124]	@ (8004264 <HAL_UART_Transmit_DMA+0xac>)
 80041e6:	6605      	str	r5, [r0, #96]	@ 0x60
 80041e8:	4d1f      	ldr	r5, [pc, #124]	@ (8004268 <HAL_UART_Transmit_DMA+0xb0>)
 80041ea:	6645      	str	r5, [r0, #100]	@ 0x64
 80041ec:	4d1f      	ldr	r5, [pc, #124]	@ (800426c <HAL_UART_Transmit_DMA+0xb4>)
 80041ee:	e9c0 521a 	strd	r5, r2, [r0, #104]	@ 0x68
 80041f2:	68a2      	ldr	r2, [r4, #8]
 80041f4:	f5b2 5f80 	cmp.w	r2, #4096	@ 0x1000
 80041f8:	d103      	bne.n	8004202 <HAL_UART_Transmit_DMA+0x4a>
 80041fa:	6922      	ldr	r2, [r4, #16]
 80041fc:	b90a      	cbnz	r2, 8004202 <HAL_UART_Transmit_DMA+0x4a>
 80041fe:	005b      	lsls	r3, r3, #1
 8004200:	b29b      	uxth	r3, r3
 8004202:	6d02      	ldr	r2, [r0, #80]	@ 0x50
 8004204:	0612      	lsls	r2, r2, #24
 8004206:	d526      	bpl.n	8004256 <HAL_UART_Transmit_DMA+0x9e>
 8004208:	6f42      	ldr	r2, [r0, #116]	@ 0x74
 800420a:	b93a      	cbnz	r2, 800421c <HAL_UART_Transmit_DMA+0x64>
 800420c:	2310      	movs	r3, #16
 800420e:	f8c4 3090 	str.w	r3, [r4, #144]	@ 0x90
 8004212:	2320      	movs	r3, #32
 8004214:	f8c4 3088 	str.w	r3, [r4, #136]	@ 0x88
 8004218:	2001      	movs	r0, #1
 800421a:	e01b      	b.n	8004254 <HAL_UART_Transmit_DMA+0x9c>
 800421c:	6812      	ldr	r2, [r2, #0]
 800421e:	2a00      	cmp	r2, #0
 8004220:	d0f4      	beq.n	800420c <HAL_UART_Transmit_DMA+0x54>
 8004222:	e9c2 3102 	strd	r3, r1, [r2, #8]
 8004226:	6823      	ldr	r3, [r4, #0]
 8004228:	3328      	adds	r3, #40	@ 0x28
 800422a:	6113      	str	r3, [r2, #16]
 800422c:	f7fd fa10 	bl	8001650 <HAL_DMAEx_List_Start_IT>
 8004230:	2800      	cmp	r0, #0
 8004232:	d1eb      	bne.n	800420c <HAL_UART_Transmit_DMA+0x54>
 8004234:	2240      	movs	r2, #64	@ 0x40
 8004236:	6823      	ldr	r3, [r4, #0]
 8004238:	621a      	str	r2, [r3, #32]
 800423a:	6822      	ldr	r2, [r4, #0]
 800423c:	f102 0308 	add.w	r3, r2, #8
 8004240:	e853 3f00 	ldrex	r3, [r3]
 8004244:	f043 0380 	orr.w	r3, r3, #128	@ 0x80
 8004248:	f102 0108 	add.w	r1, r2, #8
 800424c:	e841 3000 	strex	r0, r3, [r1]
 8004250:	2800      	cmp	r0, #0
 8004252:	d1f3      	bne.n	800423c <HAL_UART_Transmit_DMA+0x84>
 8004254:	bd38      	pop	{r3, r4, r5, pc}
 8004256:	6822      	ldr	r2, [r4, #0]
 8004258:	3228      	adds	r2, #40	@ 0x28
 800425a:	f7fc ff53 	bl	8001104 <HAL_DMA_Start_IT>
 800425e:	e7e7      	b.n	8004230 <HAL_UART_Transmit_DMA+0x78>
 8004260:	2002      	movs	r0, #2
 8004262:	e7f7      	b.n	8004254 <HAL_UART_Transmit_DMA+0x9c>
 8004264:	08004273 	.word	0x08004273
 8004268:	080042a1 	.word	0x080042a1
 800426c:	080042b1 	.word	0x080042b1

08004270 <HAL_UART_TxCpltCallback>:
 8004270:	4770      	bx	lr

08004272 <UART_DMATransmitCplt>:
 8004272:	b508      	push	{r3, lr}
 8004274:	4603      	mov	r3, r0
 8004276:	6d1b      	ldr	r3, [r3, #80]	@ 0x50
 8004278:	6dc0      	ldr	r0, [r0, #92]	@ 0x5c
 800427a:	2b81      	cmp	r3, #129	@ 0x81
 800427c:	d00c      	beq.n	8004298 <UART_DMATransmitCplt+0x26>
 800427e:	2300      	movs	r3, #0
 8004280:	f8a0 3056 	strh.w	r3, [r0, #86]	@ 0x56
 8004284:	6802      	ldr	r2, [r0, #0]
 8004286:	e852 3f00 	ldrex	r3, [r2]
 800428a:	f043 0340 	orr.w	r3, r3, #64	@ 0x40
 800428e:	e842 3100 	strex	r1, r3, [r2]
 8004292:	2900      	cmp	r1, #0
 8004294:	d1f6      	bne.n	8004284 <UART_DMATransmitCplt+0x12>
 8004296:	bd08      	pop	{r3, pc}
 8004298:	f7ff ffea 	bl	8004270 <HAL_UART_TxCpltCallback>
 800429c:	e7fb      	b.n	8004296 <UART_DMATransmitCplt+0x24>

0800429e <HAL_UART_TxHalfCpltCallback>:
 800429e:	4770      	bx	lr

080042a0 <UART_DMATxHalfCplt>:
 80042a0:	b508      	push	{r3, lr}
 80042a2:	6dc0      	ldr	r0, [r0, #92]	@ 0x5c
 80042a4:	f7ff fffb 	bl	800429e <HAL_UART_TxHalfCpltCallback>
 80042a8:	bd08      	pop	{r3, pc}

080042aa <HAL_UART_RxCpltCallback>:
 80042aa:	4770      	bx	lr

080042ac <HAL_UART_RxHalfCpltCallback>:
 80042ac:	4770      	bx	lr

080042ae <HAL_UART_ErrorCallback>:
 80042ae:	4770      	bx	lr

080042b0 <UART_DMAError>:
 80042b0:	6dc0      	ldr	r0, [r0, #92]	@ 0x5c
 80042b2:	b538      	push	{r3, r4, r5, lr}
 80042b4:	6804      	ldr	r4, [r0, #0]
 80042b6:	f8d0 3088 	ldr.w	r3, [r0, #136]	@ 0x88
 80042ba:	f8d0 508c 	ldr.w	r5, [r0, #140]	@ 0x8c
 80042be:	68a2      	ldr	r2, [r4, #8]
 80042c0:	0612      	lsls	r2, r2, #24
 80042c2:	d506      	bpl.n	80042d2 <UART_DMAError+0x22>
 80042c4:	2b21      	cmp	r3, #33	@ 0x21
 80042c6:	d104      	bne.n	80042d2 <UART_DMAError+0x22>
 80042c8:	2300      	movs	r3, #0
 80042ca:	f8a0 3056 	strh.w	r3, [r0, #86]	@ 0x56
 80042ce:	f7ff ff2d 	bl	800412c <UART_EndTxTransfer>
 80042d2:	68a3      	ldr	r3, [r4, #8]
 80042d4:	065b      	lsls	r3, r3, #25
 80042d6:	d506      	bpl.n	80042e6 <UART_DMAError+0x36>
 80042d8:	2d22      	cmp	r5, #34	@ 0x22
 80042da:	d104      	bne.n	80042e6 <UART_DMAError+0x36>
 80042dc:	2300      	movs	r3, #0
 80042de:	f8a0 305e 	strh.w	r3, [r0, #94]	@ 0x5e
 80042e2:	f7ff ff3d 	bl	8004160 <UART_EndRxTransfer>
 80042e6:	f8d0 3090 	ldr.w	r3, [r0, #144]	@ 0x90
 80042ea:	f043 0310 	orr.w	r3, r3, #16
 80042ee:	f8c0 3090 	str.w	r3, [r0, #144]	@ 0x90
 80042f2:	f7ff ffdc 	bl	80042ae <HAL_UART_ErrorCallback>
 80042f6:	bd38      	pop	{r3, r4, r5, pc}

080042f8 <HAL_UARTEx_RxEventCallback>:
 80042f8:	4770      	bx	lr

080042fa <UART_DMARxHalfCplt>:
 80042fa:	b508      	push	{r3, lr}
 80042fc:	2301      	movs	r3, #1
 80042fe:	6dc0      	ldr	r0, [r0, #92]	@ 0x5c
 8004300:	6703      	str	r3, [r0, #112]	@ 0x70
 8004302:	6ec3      	ldr	r3, [r0, #108]	@ 0x6c
 8004304:	2b01      	cmp	r3, #1
 8004306:	d105      	bne.n	8004314 <UART_DMARxHalfCplt+0x1a>
 8004308:	f8b0 105c 	ldrh.w	r1, [r0, #92]	@ 0x5c
 800430c:	0849      	lsrs	r1, r1, #1
 800430e:	f7ff fff3 	bl	80042f8 <HAL_UARTEx_RxEventCallback>
 8004312:	bd08      	pop	{r3, pc}
 8004314:	f7ff ffca 	bl	80042ac <HAL_UART_RxHalfCpltCallback>
 8004318:	e7fb      	b.n	8004312 <UART_DMARxHalfCplt+0x18>

0800431a <UART_DMAReceiveCplt>:
 800431a:	b508      	push	{r3, lr}
 800431c:	4603      	mov	r3, r0
 800431e:	6d1b      	ldr	r3, [r3, #80]	@ 0x50
 8004320:	6dc0      	ldr	r0, [r0, #92]	@ 0x5c
 8004322:	2b81      	cmp	r3, #129	@ 0x81
 8004324:	d026      	beq.n	8004374 <UART_DMAReceiveCplt+0x5a>
 8004326:	2300      	movs	r3, #0
 8004328:	f8a0 305e 	strh.w	r3, [r0, #94]	@ 0x5e
 800432c:	6802      	ldr	r2, [r0, #0]
 800432e:	e852 3f00 	ldrex	r3, [r2]
 8004332:	f423 7380 	bic.w	r3, r3, #256	@ 0x100
 8004336:	e842 3100 	strex	r1, r3, [r2]
 800433a:	6802      	ldr	r2, [r0, #0]
 800433c:	2900      	cmp	r1, #0
 800433e:	d1f5      	bne.n	800432c <UART_DMAReceiveCplt+0x12>
 8004340:	f102 0308 	add.w	r3, r2, #8
 8004344:	e853 3f00 	ldrex	r3, [r3]
 8004348:	f023 0301 	bic.w	r3, r3, #1
 800434c:	f102 0c08 	add.w	ip, r2, #8
 8004350:	e84c 3100 	strex	r1, r3, [ip]
 8004354:	2900      	cmp	r1, #0
 8004356:	d1f3      	bne.n	8004340 <UART_DMAReceiveCplt+0x26>
 8004358:	2320      	movs	r3, #32
 800435a:	f8c0 308c 	str.w	r3, [r0, #140]	@ 0x8c
 800435e:	6ec3      	ldr	r3, [r0, #108]	@ 0x6c
 8004360:	2b01      	cmp	r3, #1
 8004362:	d107      	bne.n	8004374 <UART_DMAReceiveCplt+0x5a>
 8004364:	e852 3f00 	ldrex	r3, [r2]
 8004368:	f023 0310 	bic.w	r3, r3, #16
 800436c:	e842 3100 	strex	r1, r3, [r2]
 8004370:	2900      	cmp	r1, #0
 8004372:	d1f7      	bne.n	8004364 <UART_DMAReceiveCplt+0x4a>
 8004374:	2300      	movs	r3, #0
 8004376:	6703      	str	r3, [r0, #112]	@ 0x70
 8004378:	6ec3      	ldr	r3, [r0, #108]	@ 0x6c
 800437a:	2b01      	cmp	r3, #1
 800437c:	d104      	bne.n	8004388 <UART_DMAReceiveCplt+0x6e>
 800437e:	f8b0 105c 	ldrh.w	r1, [r0, #92]	@ 0x5c
 8004382:	f7ff ffb9 	bl	80042f8 <HAL_UARTEx_RxEventCallback>
 8004386:	bd08      	pop	{r3, pc}
 8004388:	f7ff ff8f 	bl	80042aa <HAL_UART_RxCpltCallback>
 800438c:	e7fb      	b.n	8004386 <UART_DMAReceiveCplt+0x6c>
	...

08004390 <UART_SetConfig>:
 8004390:	b538      	push	{r3, r4, r5, lr}
 8004392:	4604      	mov	r4, r0
 8004394:	6803      	ldr	r3, [r0, #0]
 8004396:	69c1      	ldr	r1, [r0, #28]
 8004398:	6882      	ldr	r2, [r0, #8]
 800439a:	6900      	ldr	r0, [r0, #16]
 800439c:	681d      	ldr	r5, [r3, #0]
 800439e:	4302      	orrs	r2, r0
 80043a0:	6960      	ldr	r0, [r4, #20]
 80043a2:	4302      	orrs	r2, r0
 80043a4:	485c      	ldr	r0, [pc, #368]	@ (8004518 <UART_SetConfig+0x188>)
 80043a6:	430a      	orrs	r2, r1
 80043a8:	4028      	ands	r0, r5
 80043aa:	4302      	orrs	r2, r0
 80043ac:	601a      	str	r2, [r3, #0]
 80043ae:	685a      	ldr	r2, [r3, #4]
 80043b0:	68e0      	ldr	r0, [r4, #12]
 80043b2:	f422 5240 	bic.w	r2, r2, #12288	@ 0x3000
 80043b6:	4302      	orrs	r2, r0
 80043b8:	605a      	str	r2, [r3, #4]
 80043ba:	4a58      	ldr	r2, [pc, #352]	@ (800451c <UART_SetConfig+0x18c>)
 80043bc:	69a0      	ldr	r0, [r4, #24]
 80043be:	4293      	cmp	r3, r2
 80043c0:	d005      	beq.n	80043ce <UART_SetConfig+0x3e>
 80043c2:	f102 5280 	add.w	r2, r2, #268435456	@ 0x10000000
 80043c6:	4293      	cmp	r3, r2
 80043c8:	bf1c      	itt	ne
 80043ca:	6a22      	ldrne	r2, [r4, #32]
 80043cc:	4310      	orrne	r0, r2
 80043ce:	689a      	ldr	r2, [r3, #8]
 80043d0:	f022 426e 	bic.w	r2, r2, #3992977408	@ 0xee000000
 80043d4:	f422 6230 	bic.w	r2, r2, #2816	@ 0xb00
 80043d8:	4302      	orrs	r2, r0
 80043da:	609a      	str	r2, [r3, #8]
 80043dc:	6ada      	ldr	r2, [r3, #44]	@ 0x2c
 80043de:	6a60      	ldr	r0, [r4, #36]	@ 0x24
 80043e0:	f022 020f 	bic.w	r2, r2, #15
 80043e4:	4302      	orrs	r2, r0
 80043e6:	62da      	str	r2, [r3, #44]	@ 0x2c
 80043e8:	4a4d      	ldr	r2, [pc, #308]	@ (8004520 <UART_SetConfig+0x190>)
 80043ea:	4293      	cmp	r3, r2
 80043ec:	d04e      	beq.n	800448c <UART_SetConfig+0xfc>
 80043ee:	f5a2 4274 	sub.w	r2, r2, #62464	@ 0xf400
 80043f2:	4293      	cmp	r3, r2
 80043f4:	d06f      	beq.n	80044d6 <UART_SetConfig+0x146>
 80043f6:	f502 6280 	add.w	r2, r2, #1024	@ 0x400
 80043fa:	4293      	cmp	r3, r2
 80043fc:	d06d      	beq.n	80044da <UART_SetConfig+0x14a>
 80043fe:	f502 6280 	add.w	r2, r2, #1024	@ 0x400
 8004402:	4293      	cmp	r3, r2
 8004404:	d06b      	beq.n	80044de <UART_SetConfig+0x14e>
 8004406:	f502 6280 	add.w	r2, r2, #1024	@ 0x400
 800440a:	4293      	cmp	r3, r2
 800440c:	d069      	beq.n	80044e2 <UART_SetConfig+0x152>
 800440e:	4a43      	ldr	r2, [pc, #268]	@ (800451c <UART_SetConfig+0x18c>)
 8004410:	4293      	cmp	r3, r2
 8004412:	d01c      	beq.n	800444e <UART_SetConfig+0xbe>
 8004414:	f102 5280 	add.w	r2, r2, #268435456	@ 0x10000000
 8004418:	4293      	cmp	r3, r2
 800441a:	f04f 0000 	mov.w	r0, #0
 800441e:	d136      	bne.n	800448e <UART_SetConfig+0xfe>
 8004420:	2100      	movs	r1, #0
 8004422:	f7ff f88b 	bl	800353c <HAL_RCCEx_GetPeriphCLKFreq>
 8004426:	b378      	cbz	r0, 8004488 <UART_SetConfig+0xf8>
 8004428:	6a61      	ldr	r1, [r4, #36]	@ 0x24
 800442a:	4a3e      	ldr	r2, [pc, #248]	@ (8004524 <UART_SetConfig+0x194>)
 800442c:	6865      	ldr	r5, [r4, #4]
 800442e:	f832 2011 	ldrh.w	r2, [r2, r1, lsl #1]
 8004432:	eb05 0145 	add.w	r1, r5, r5, lsl #1
 8004436:	fbb0 f3f2 	udiv	r3, r0, r2
 800443a:	4299      	cmp	r1, r3
 800443c:	d909      	bls.n	8004452 <UART_SetConfig+0xc2>
 800443e:	2001      	movs	r0, #1
 8004440:	f04f 1301 	mov.w	r3, #65537	@ 0x10001
 8004444:	66a3      	str	r3, [r4, #104]	@ 0x68
 8004446:	2300      	movs	r3, #0
 8004448:	e9c4 331d 	strd	r3, r3, [r4, #116]	@ 0x74
 800444c:	bd38      	pop	{r3, r4, r5, pc}
 800444e:	2020      	movs	r0, #32
 8004450:	e7e6      	b.n	8004420 <UART_SetConfig+0x90>
 8004452:	ebb3 3f05 	cmp.w	r3, r5, lsl #12
 8004456:	d8f2      	bhi.n	800443e <UART_SetConfig+0xae>
 8004458:	2300      	movs	r3, #0
 800445a:	4619      	mov	r1, r3
 800445c:	f7fb ffac 	bl	80003b8 <__aeabi_uldivmod>
 8004460:	0209      	lsls	r1, r1, #8
 8004462:	ea41 6110 	orr.w	r1, r1, r0, lsr #24
 8004466:	086b      	lsrs	r3, r5, #1
 8004468:	0200      	lsls	r0, r0, #8
 800446a:	18c0      	adds	r0, r0, r3
 800446c:	462a      	mov	r2, r5
 800446e:	f04f 0300 	mov.w	r3, #0
 8004472:	f141 0100 	adc.w	r1, r1, #0
 8004476:	f7fb ff9f 	bl	80003b8 <__aeabi_uldivmod>
 800447a:	4b2b      	ldr	r3, [pc, #172]	@ (8004528 <UART_SetConfig+0x198>)
 800447c:	f5a0 7240 	sub.w	r2, r0, #768	@ 0x300
 8004480:	429a      	cmp	r2, r3
 8004482:	d8dc      	bhi.n	800443e <UART_SetConfig+0xae>
 8004484:	6823      	ldr	r3, [r4, #0]
 8004486:	60d8      	str	r0, [r3, #12]
 8004488:	2000      	movs	r0, #0
 800448a:	e7d9      	b.n	8004440 <UART_SetConfig+0xb0>
 800448c:	2001      	movs	r0, #1
 800448e:	f5b1 4f00 	cmp.w	r1, #32768	@ 0x8000
 8004492:	f04f 0100 	mov.w	r1, #0
 8004496:	d126      	bne.n	80044e6 <UART_SetConfig+0x156>
 8004498:	f7ff f850 	bl	800353c <HAL_RCCEx_GetPeriphCLKFreq>
 800449c:	2800      	cmp	r0, #0
 800449e:	d0f3      	beq.n	8004488 <UART_SetConfig+0xf8>
 80044a0:	6a61      	ldr	r1, [r4, #36]	@ 0x24
 80044a2:	4b20      	ldr	r3, [pc, #128]	@ (8004524 <UART_SetConfig+0x194>)
 80044a4:	6862      	ldr	r2, [r4, #4]
 80044a6:	f833 3011 	ldrh.w	r3, [r3, r1, lsl #1]
 80044aa:	fbb0 f0f3 	udiv	r0, r0, r3
 80044ae:	0853      	lsrs	r3, r2, #1
 80044b0:	eb03 0340 	add.w	r3, r3, r0, lsl #1
 80044b4:	fbb3 f3f2 	udiv	r3, r3, r2
 80044b8:	f64f 72ef 	movw	r2, #65519	@ 0xffef
 80044bc:	f1a3 0110 	sub.w	r1, r3, #16
 80044c0:	4291      	cmp	r1, r2
 80044c2:	d8bc      	bhi.n	800443e <UART_SetConfig+0xae>
 80044c4:	f023 020f 	bic.w	r2, r3, #15
 80044c8:	6821      	ldr	r1, [r4, #0]
 80044ca:	b292      	uxth	r2, r2
 80044cc:	f3c3 0342 	ubfx	r3, r3, #1, #3
 80044d0:	4313      	orrs	r3, r2
 80044d2:	60cb      	str	r3, [r1, #12]
 80044d4:	e7d8      	b.n	8004488 <UART_SetConfig+0xf8>
 80044d6:	2002      	movs	r0, #2
 80044d8:	e7d9      	b.n	800448e <UART_SetConfig+0xfe>
 80044da:	2004      	movs	r0, #4
 80044dc:	e7d7      	b.n	800448e <UART_SetConfig+0xfe>
 80044de:	2008      	movs	r0, #8
 80044e0:	e7d5      	b.n	800448e <UART_SetConfig+0xfe>
 80044e2:	2010      	movs	r0, #16
 80044e4:	e7d3      	b.n	800448e <UART_SetConfig+0xfe>
 80044e6:	f7ff f829 	bl	800353c <HAL_RCCEx_GetPeriphCLKFreq>
 80044ea:	2800      	cmp	r0, #0
 80044ec:	d0cc      	beq.n	8004488 <UART_SetConfig+0xf8>
 80044ee:	6a61      	ldr	r1, [r4, #36]	@ 0x24
 80044f0:	4b0c      	ldr	r3, [pc, #48]	@ (8004524 <UART_SetConfig+0x194>)
 80044f2:	6862      	ldr	r2, [r4, #4]
 80044f4:	f833 3011 	ldrh.w	r3, [r3, r1, lsl #1]
 80044f8:	fbb0 f3f3 	udiv	r3, r0, r3
 80044fc:	eb03 0352 	add.w	r3, r3, r2, lsr #1
 8004500:	fbb3 f3f2 	udiv	r3, r3, r2
 8004504:	f64f 72ef 	movw	r2, #65519	@ 0xffef
 8004508:	f1a3 0110 	sub.w	r1, r3, #16
 800450c:	4291      	cmp	r1, r2
 800450e:	d896      	bhi.n	800443e <UART_SetConfig+0xae>
 8004510:	6822      	ldr	r2, [r4, #0]
 8004512:	60d3      	str	r3, [r2, #12]
 8004514:	e7b8      	b.n	8004488 <UART_SetConfig+0xf8>
 8004516:	bf00      	nop
 8004518:	cfff69f3 	.word	0xcfff69f3
 800451c:	46002400 	.word	0x46002400
 8004520:	40013800 	.word	0x40013800
 8004524:	08004a84 	.word	0x08004a84
 8004528:	000ffcff 	.word	0x000ffcff

0800452c <UART_AdvFeatureConfig>:
 800452c:	6a83      	ldr	r3, [r0, #40]	@ 0x28
 800452e:	b510      	push	{r4, lr}
 8004530:	071a      	lsls	r2, r3, #28
 8004532:	d506      	bpl.n	8004542 <UART_AdvFeatureConfig+0x16>
 8004534:	6801      	ldr	r1, [r0, #0]
 8004536:	6b84      	ldr	r4, [r0, #56]	@ 0x38
 8004538:	684a      	ldr	r2, [r1, #4]
 800453a:	f422 4200 	bic.w	r2, r2, #32768	@ 0x8000
 800453e:	4322      	orrs	r2, r4
 8004540:	604a      	str	r2, [r1, #4]
 8004542:	07dc      	lsls	r4, r3, #31
 8004544:	d506      	bpl.n	8004554 <UART_AdvFeatureConfig+0x28>
 8004546:	6801      	ldr	r1, [r0, #0]
 8004548:	6ac4      	ldr	r4, [r0, #44]	@ 0x2c
 800454a:	684a      	ldr	r2, [r1, #4]
 800454c:	f422 3200 	bic.w	r2, r2, #131072	@ 0x20000
 8004550:	4322      	orrs	r2, r4
 8004552:	604a      	str	r2, [r1, #4]
 8004554:	0799      	lsls	r1, r3, #30
 8004556:	d506      	bpl.n	8004566 <UART_AdvFeatureConfig+0x3a>
 8004558:	6801      	ldr	r1, [r0, #0]
 800455a:	6b04      	ldr	r4, [r0, #48]	@ 0x30
 800455c:	684a      	ldr	r2, [r1, #4]
 800455e:	f422 3280 	bic.w	r2, r2, #65536	@ 0x10000
 8004562:	4322      	orrs	r2, r4
 8004564:	604a      	str	r2, [r1, #4]
 8004566:	075a      	lsls	r2, r3, #29
 8004568:	d506      	bpl.n	8004578 <UART_AdvFeatureConfig+0x4c>
 800456a:	6801      	ldr	r1, [r0, #0]
 800456c:	6b44      	ldr	r4, [r0, #52]	@ 0x34
 800456e:	684a      	ldr	r2, [r1, #4]
 8004570:	f422 2280 	bic.w	r2, r2, #262144	@ 0x40000
 8004574:	4322      	orrs	r2, r4
 8004576:	604a      	str	r2, [r1, #4]
 8004578:	06dc      	lsls	r4, r3, #27
 800457a:	d506      	bpl.n	800458a <UART_AdvFeatureConfig+0x5e>
 800457c:	6801      	ldr	r1, [r0, #0]
 800457e:	6bc4      	ldr	r4, [r0, #60]	@ 0x3c
 8004580:	688a      	ldr	r2, [r1, #8]
 8004582:	f422 5280 	bic.w	r2, r2, #4096	@ 0x1000
 8004586:	4322      	orrs	r2, r4
 8004588:	608a      	str	r2, [r1, #8]
 800458a:	0699      	lsls	r1, r3, #26
 800458c:	d506      	bpl.n	800459c <UART_AdvFeatureConfig+0x70>
 800458e:	6801      	ldr	r1, [r0, #0]
 8004590:	6c04      	ldr	r4, [r0, #64]	@ 0x40
 8004592:	688a      	ldr	r2, [r1, #8]
 8004594:	f422 5200 	bic.w	r2, r2, #8192	@ 0x2000
 8004598:	4322      	orrs	r2, r4
 800459a:	608a      	str	r2, [r1, #8]
 800459c:	065a      	lsls	r2, r3, #25
 800459e:	d510      	bpl.n	80045c2 <UART_AdvFeatureConfig+0x96>
 80045a0:	6801      	ldr	r1, [r0, #0]
 80045a2:	6c44      	ldr	r4, [r0, #68]	@ 0x44
 80045a4:	684a      	ldr	r2, [r1, #4]
 80045a6:	f5b4 1f80 	cmp.w	r4, #1048576	@ 0x100000
 80045aa:	f422 1280 	bic.w	r2, r2, #1048576	@ 0x100000
 80045ae:	ea42 0204 	orr.w	r2, r2, r4
 80045b2:	604a      	str	r2, [r1, #4]
 80045b4:	d105      	bne.n	80045c2 <UART_AdvFeatureConfig+0x96>
 80045b6:	684a      	ldr	r2, [r1, #4]
 80045b8:	6c84      	ldr	r4, [r0, #72]	@ 0x48
 80045ba:	f422 02c0 	bic.w	r2, r2, #6291456	@ 0x600000
 80045be:	4322      	orrs	r2, r4
 80045c0:	604a      	str	r2, [r1, #4]
 80045c2:	061b      	lsls	r3, r3, #24
 80045c4:	d506      	bpl.n	80045d4 <UART_AdvFeatureConfig+0xa8>
 80045c6:	6802      	ldr	r2, [r0, #0]
 80045c8:	6cc1      	ldr	r1, [r0, #76]	@ 0x4c
 80045ca:	6853      	ldr	r3, [r2, #4]
 80045cc:	f423 2300 	bic.w	r3, r3, #524288	@ 0x80000
 80045d0:	430b      	orrs	r3, r1
 80045d2:	6053      	str	r3, [r2, #4]
 80045d4:	bd10      	pop	{r4, pc}

080045d6 <UART_WaitOnFlagUntilTimeout>:
 80045d6:	e92d 43f8 	stmdb	sp!, {r3, r4, r5, r6, r7, r8, r9, lr}
 80045da:	4604      	mov	r4, r0
 80045dc:	460d      	mov	r5, r1
 80045de:	4617      	mov	r7, r2
 80045e0:	4698      	mov	r8, r3
 80045e2:	f8dd 9020 	ldr.w	r9, [sp, #32]
 80045e6:	6822      	ldr	r2, [r4, #0]
 80045e8:	69d3      	ldr	r3, [r2, #28]
 80045ea:	ea35 0303 	bics.w	r3, r5, r3
 80045ee:	bf0c      	ite	eq
 80045f0:	2301      	moveq	r3, #1
 80045f2:	2300      	movne	r3, #0
 80045f4:	42bb      	cmp	r3, r7
 80045f6:	d001      	beq.n	80045fc <UART_WaitOnFlagUntilTimeout+0x26>
 80045f8:	2000      	movs	r0, #0
 80045fa:	e022      	b.n	8004642 <UART_WaitOnFlagUntilTimeout+0x6c>
 80045fc:	f1b9 3fff 	cmp.w	r9, #4294967295	@ 0xffffffff
 8004600:	d0f2      	beq.n	80045e8 <UART_WaitOnFlagUntilTimeout+0x12>
 8004602:	f7fc fafd 	bl	8000c00 <HAL_GetTick>
 8004606:	eba0 0008 	sub.w	r0, r0, r8
 800460a:	4548      	cmp	r0, r9
 800460c:	d829      	bhi.n	8004662 <UART_WaitOnFlagUntilTimeout+0x8c>
 800460e:	f1b9 0f00 	cmp.w	r9, #0
 8004612:	d026      	beq.n	8004662 <UART_WaitOnFlagUntilTimeout+0x8c>
 8004614:	6821      	ldr	r1, [r4, #0]
 8004616:	680b      	ldr	r3, [r1, #0]
 8004618:	075a      	lsls	r2, r3, #29
 800461a:	d5e4      	bpl.n	80045e6 <UART_WaitOnFlagUntilTimeout+0x10>
 800461c:	2d80      	cmp	r5, #128	@ 0x80
 800461e:	d0e2      	beq.n	80045e6 <UART_WaitOnFlagUntilTimeout+0x10>
 8004620:	2d40      	cmp	r5, #64	@ 0x40
 8004622:	d0e0      	beq.n	80045e6 <UART_WaitOnFlagUntilTimeout+0x10>
 8004624:	69ce      	ldr	r6, [r1, #28]
 8004626:	f016 0608 	ands.w	r6, r6, #8
 800462a:	d00c      	beq.n	8004646 <UART_WaitOnFlagUntilTimeout+0x70>
 800462c:	2508      	movs	r5, #8
 800462e:	4620      	mov	r0, r4
 8004630:	620d      	str	r5, [r1, #32]
 8004632:	f7ff fd95 	bl	8004160 <UART_EndRxTransfer>
 8004636:	2300      	movs	r3, #0
 8004638:	2001      	movs	r0, #1
 800463a:	f8c4 5090 	str.w	r5, [r4, #144]	@ 0x90
 800463e:	f884 3084 	strb.w	r3, [r4, #132]	@ 0x84
 8004642:	e8bd 83f8 	ldmia.w	sp!, {r3, r4, r5, r6, r7, r8, r9, pc}
 8004646:	69cb      	ldr	r3, [r1, #28]
 8004648:	051b      	lsls	r3, r3, #20
 800464a:	d5cc      	bpl.n	80045e6 <UART_WaitOnFlagUntilTimeout+0x10>
 800464c:	f44f 6300 	mov.w	r3, #2048	@ 0x800
 8004650:	4620      	mov	r0, r4
 8004652:	620b      	str	r3, [r1, #32]
 8004654:	f7ff fd84 	bl	8004160 <UART_EndRxTransfer>
 8004658:	2320      	movs	r3, #32
 800465a:	f884 6084 	strb.w	r6, [r4, #132]	@ 0x84
 800465e:	f8c4 3090 	str.w	r3, [r4, #144]	@ 0x90
 8004662:	2003      	movs	r0, #3
 8004664:	e7ed      	b.n	8004642 <UART_WaitOnFlagUntilTimeout+0x6c>

08004666 <UART_CheckIdleState>:
 8004666:	b573      	push	{r0, r1, r4, r5, r6, lr}
 8004668:	2600      	movs	r6, #0
 800466a:	4604      	mov	r4, r0
 800466c:	f8c0 6090 	str.w	r6, [r0, #144]	@ 0x90
 8004670:	f7fc fac6 	bl	8000c00 <HAL_GetTick>
 8004674:	6823      	ldr	r3, [r4, #0]
 8004676:	4605      	mov	r5, r0
 8004678:	681b      	ldr	r3, [r3, #0]
 800467a:	071a      	lsls	r2, r3, #28
 800467c:	d51c      	bpl.n	80046b8 <UART_CheckIdleState+0x52>
 800467e:	f06f 437e 	mvn.w	r3, #4261412864	@ 0xfe000000
 8004682:	4632      	mov	r2, r6
 8004684:	9300      	str	r3, [sp, #0]
 8004686:	f44f 1100 	mov.w	r1, #2097152	@ 0x200000
 800468a:	4603      	mov	r3, r0
 800468c:	4620      	mov	r0, r4
 800468e:	f7ff ffa2 	bl	80045d6 <UART_WaitOnFlagUntilTimeout>
 8004692:	b188      	cbz	r0, 80046b8 <UART_CheckIdleState+0x52>
 8004694:	6822      	ldr	r2, [r4, #0]
 8004696:	e852 3f00 	ldrex	r3, [r2]
 800469a:	f023 0380 	bic.w	r3, r3, #128	@ 0x80
 800469e:	e842 3100 	strex	r1, r3, [r2]
 80046a2:	2900      	cmp	r1, #0
 80046a4:	d1f6      	bne.n	8004694 <UART_CheckIdleState+0x2e>
 80046a6:	2320      	movs	r3, #32
 80046a8:	f8c4 3088 	str.w	r3, [r4, #136]	@ 0x88
 80046ac:	2003      	movs	r0, #3
 80046ae:	2300      	movs	r3, #0
 80046b0:	f884 3084 	strb.w	r3, [r4, #132]	@ 0x84
 80046b4:	b002      	add	sp, #8
 80046b6:	bd70      	pop	{r4, r5, r6, pc}
 80046b8:	6823      	ldr	r3, [r4, #0]
 80046ba:	681b      	ldr	r3, [r3, #0]
 80046bc:	075b      	lsls	r3, r3, #29
 80046be:	d524      	bpl.n	800470a <UART_CheckIdleState+0xa4>
 80046c0:	f06f 437e 	mvn.w	r3, #4261412864	@ 0xfe000000
 80046c4:	2200      	movs	r2, #0
 80046c6:	9300      	str	r3, [sp, #0]
 80046c8:	f44f 0180 	mov.w	r1, #4194304	@ 0x400000
 80046cc:	462b      	mov	r3, r5
 80046ce:	4620      	mov	r0, r4
 80046d0:	f7ff ff81 	bl	80045d6 <UART_WaitOnFlagUntilTimeout>
 80046d4:	b1c8      	cbz	r0, 800470a <UART_CheckIdleState+0xa4>
 80046d6:	6822      	ldr	r2, [r4, #0]
 80046d8:	e852 3f00 	ldrex	r3, [r2]
 80046dc:	f423 7390 	bic.w	r3, r3, #288	@ 0x120
 80046e0:	e842 3100 	strex	r1, r3, [r2]
 80046e4:	6822      	ldr	r2, [r4, #0]
 80046e6:	2900      	cmp	r1, #0
 80046e8:	d1f5      	bne.n	80046d6 <UART_CheckIdleState+0x70>
 80046ea:	f102 0308 	add.w	r3, r2, #8
 80046ee:	e853 3f00 	ldrex	r3, [r3]
 80046f2:	f023 0301 	bic.w	r3, r3, #1
 80046f6:	f102 0008 	add.w	r0, r2, #8
 80046fa:	e840 3100 	strex	r1, r3, [r0]
 80046fe:	2900      	cmp	r1, #0
 8004700:	d1f3      	bne.n	80046ea <UART_CheckIdleState+0x84>
 8004702:	2320      	movs	r3, #32
 8004704:	f8c4 308c 	str.w	r3, [r4, #140]	@ 0x8c
 8004708:	e7d0      	b.n	80046ac <UART_CheckIdleState+0x46>
 800470a:	2320      	movs	r3, #32
 800470c:	2000      	movs	r0, #0
 800470e:	f8c4 3088 	str.w	r3, [r4, #136]	@ 0x88
 8004712:	f8c4 308c 	str.w	r3, [r4, #140]	@ 0x8c
 8004716:	66e0      	str	r0, [r4, #108]	@ 0x6c
 8004718:	6720      	str	r0, [r4, #112]	@ 0x70
 800471a:	e7c8      	b.n	80046ae <UART_CheckIdleState+0x48>

0800471c <HAL_UART_Init>:
 800471c:	b510      	push	{r4, lr}
 800471e:	4604      	mov	r4, r0
 8004720:	b350      	cbz	r0, 8004778 <HAL_UART_Init+0x5c>
 8004722:	f8d0 3088 	ldr.w	r3, [r0, #136]	@ 0x88
 8004726:	b91b      	cbnz	r3, 8004730 <HAL_UART_Init+0x14>
 8004728:	f880 3084 	strb.w	r3, [r0, #132]	@ 0x84
 800472c:	f7fc f8c0 	bl	80008b0 <HAL_UART_MspInit>
 8004730:	2324      	movs	r3, #36	@ 0x24
 8004732:	6822      	ldr	r2, [r4, #0]
 8004734:	f8c4 3088 	str.w	r3, [r4, #136]	@ 0x88
 8004738:	6813      	ldr	r3, [r2, #0]
 800473a:	f023 0301 	bic.w	r3, r3, #1
 800473e:	6013      	str	r3, [r2, #0]
 8004740:	6aa3      	ldr	r3, [r4, #40]	@ 0x28
 8004742:	b113      	cbz	r3, 800474a <HAL_UART_Init+0x2e>
 8004744:	4620      	mov	r0, r4
 8004746:	f7ff fef1 	bl	800452c <UART_AdvFeatureConfig>
 800474a:	4620      	mov	r0, r4
 800474c:	f7ff fe20 	bl	8004390 <UART_SetConfig>
 8004750:	2801      	cmp	r0, #1
 8004752:	d011      	beq.n	8004778 <HAL_UART_Init+0x5c>
 8004754:	6823      	ldr	r3, [r4, #0]
 8004756:	4620      	mov	r0, r4
 8004758:	e8bd 4010 	ldmia.w	sp!, {r4, lr}
 800475c:	685a      	ldr	r2, [r3, #4]
 800475e:	f422 4290 	bic.w	r2, r2, #18432	@ 0x4800
 8004762:	605a      	str	r2, [r3, #4]
 8004764:	689a      	ldr	r2, [r3, #8]
 8004766:	f022 022a 	bic.w	r2, r2, #42	@ 0x2a
 800476a:	609a      	str	r2, [r3, #8]
 800476c:	681a      	ldr	r2, [r3, #0]
 800476e:	f042 0201 	orr.w	r2, r2, #1
 8004772:	601a      	str	r2, [r3, #0]
 8004774:	f7ff bf77 	b.w	8004666 <UART_CheckIdleState>
 8004778:	2001      	movs	r0, #1
 800477a:	bd10      	pop	{r4, pc}

0800477c <UART_Start_Receive_DMA>:
 800477c:	b538      	push	{r3, r4, r5, lr}
 800477e:	f8a0 205c 	strh.w	r2, [r0, #92]	@ 0x5c
 8004782:	4613      	mov	r3, r2
 8004784:	2500      	movs	r5, #0
 8004786:	2222      	movs	r2, #34	@ 0x22
 8004788:	f8c0 5090 	str.w	r5, [r0, #144]	@ 0x90
 800478c:	4604      	mov	r4, r0
 800478e:	6581      	str	r1, [r0, #88]	@ 0x58
 8004790:	f8c0 208c 	str.w	r2, [r0, #140]	@ 0x8c
 8004794:	f8d0 0080 	ldr.w	r0, [r0, #128]	@ 0x80
 8004798:	b338      	cbz	r0, 80047ea <UART_Start_Receive_DMA+0x6e>
 800479a:	4a29      	ldr	r2, [pc, #164]	@ (8004840 <UART_Start_Receive_DMA+0xc4>)
 800479c:	6602      	str	r2, [r0, #96]	@ 0x60
 800479e:	4a29      	ldr	r2, [pc, #164]	@ (8004844 <UART_Start_Receive_DMA+0xc8>)
 80047a0:	6642      	str	r2, [r0, #100]	@ 0x64
 80047a2:	4a29      	ldr	r2, [pc, #164]	@ (8004848 <UART_Start_Receive_DMA+0xcc>)
 80047a4:	e9c0 251a 	strd	r2, r5, [r0, #104]	@ 0x68
 80047a8:	68a2      	ldr	r2, [r4, #8]
 80047aa:	f5b2 5f80 	cmp.w	r2, #4096	@ 0x1000
 80047ae:	d103      	bne.n	80047b8 <UART_Start_Receive_DMA+0x3c>
 80047b0:	6922      	ldr	r2, [r4, #16]
 80047b2:	b90a      	cbnz	r2, 80047b8 <UART_Start_Receive_DMA+0x3c>
 80047b4:	005b      	lsls	r3, r3, #1
 80047b6:	b29b      	uxth	r3, r3
 80047b8:	6d05      	ldr	r5, [r0, #80]	@ 0x50
 80047ba:	062a      	lsls	r2, r5, #24
 80047bc:	d539      	bpl.n	8004832 <UART_Start_Receive_DMA+0xb6>
 80047be:	6f45      	ldr	r5, [r0, #116]	@ 0x74
 80047c0:	b93d      	cbnz	r5, 80047d2 <UART_Start_Receive_DMA+0x56>
 80047c2:	2310      	movs	r3, #16
 80047c4:	f8c4 3090 	str.w	r3, [r4, #144]	@ 0x90
 80047c8:	2320      	movs	r3, #32
 80047ca:	2001      	movs	r0, #1
 80047cc:	f8c4 308c 	str.w	r3, [r4, #140]	@ 0x8c
 80047d0:	bd38      	pop	{r3, r4, r5, pc}
 80047d2:	682d      	ldr	r5, [r5, #0]
 80047d4:	2d00      	cmp	r5, #0
 80047d6:	d0f4      	beq.n	80047c2 <UART_Start_Receive_DMA+0x46>
 80047d8:	60ab      	str	r3, [r5, #8]
 80047da:	6823      	ldr	r3, [r4, #0]
 80047dc:	3324      	adds	r3, #36	@ 0x24
 80047de:	e9c5 3103 	strd	r3, r1, [r5, #12]
 80047e2:	f7fc ff35 	bl	8001650 <HAL_DMAEx_List_Start_IT>
 80047e6:	2800      	cmp	r0, #0
 80047e8:	d1eb      	bne.n	80047c2 <UART_Start_Receive_DMA+0x46>
 80047ea:	6922      	ldr	r2, [r4, #16]
 80047ec:	6823      	ldr	r3, [r4, #0]
 80047ee:	b13a      	cbz	r2, 8004800 <UART_Start_Receive_DMA+0x84>
 80047f0:	e853 2f00 	ldrex	r2, [r3]
 80047f4:	f442 7280 	orr.w	r2, r2, #256	@ 0x100
 80047f8:	e843 2100 	strex	r1, r2, [r3]
 80047fc:	2900      	cmp	r1, #0
 80047fe:	d1f7      	bne.n	80047f0 <UART_Start_Receive_DMA+0x74>
 8004800:	f103 0208 	add.w	r2, r3, #8
 8004804:	e852 2f00 	ldrex	r2, [r2]
 8004808:	f042 0201 	orr.w	r2, r2, #1
 800480c:	f103 0008 	add.w	r0, r3, #8
 8004810:	e840 2100 	strex	r1, r2, [r0]
 8004814:	2900      	cmp	r1, #0
 8004816:	d1f3      	bne.n	8004800 <UART_Start_Receive_DMA+0x84>
 8004818:	f103 0208 	add.w	r2, r3, #8
 800481c:	e852 2f00 	ldrex	r2, [r2]
 8004820:	f042 0240 	orr.w	r2, r2, #64	@ 0x40
 8004824:	f103 0108 	add.w	r1, r3, #8
 8004828:	e841 2000 	strex	r0, r2, [r1]
 800482c:	2800      	cmp	r0, #0
 800482e:	d1f3      	bne.n	8004818 <UART_Start_Receive_DMA+0x9c>
 8004830:	e7ce      	b.n	80047d0 <UART_Start_Receive_DMA+0x54>
 8004832:	6825      	ldr	r5, [r4, #0]
 8004834:	460a      	mov	r2, r1
 8004836:	f105 0124 	add.w	r1, r5, #36	@ 0x24
 800483a:	f7fc fc63 	bl	8001104 <HAL_DMA_Start_IT>
 800483e:	e7d2      	b.n	80047e6 <UART_Start_Receive_DMA+0x6a>
 8004840:	0800431b 	.word	0x0800431b
 8004844:	080042fb 	.word	0x080042fb
 8004848:	080042b1 	.word	0x080042b1

0800484c <HAL_UART_Receive_DMA>:
 800484c:	f8d0 308c 	ldr.w	r3, [r0, #140]	@ 0x8c
 8004850:	b430      	push	{r4, r5}
 8004852:	2b20      	cmp	r3, #32
 8004854:	d119      	bne.n	800488a <HAL_UART_Receive_DMA+0x3e>
 8004856:	b1d9      	cbz	r1, 8004890 <HAL_UART_Receive_DMA+0x44>
 8004858:	b1d2      	cbz	r2, 8004890 <HAL_UART_Receive_DMA+0x44>
 800485a:	2300      	movs	r3, #0
 800485c:	4c0d      	ldr	r4, [pc, #52]	@ (8004894 <HAL_UART_Receive_DMA+0x48>)
 800485e:	66c3      	str	r3, [r0, #108]	@ 0x6c
 8004860:	6803      	ldr	r3, [r0, #0]
 8004862:	42a3      	cmp	r3, r4
 8004864:	d00e      	beq.n	8004884 <HAL_UART_Receive_DMA+0x38>
 8004866:	f104 5480 	add.w	r4, r4, #268435456	@ 0x10000000
 800486a:	42a3      	cmp	r3, r4
 800486c:	d00a      	beq.n	8004884 <HAL_UART_Receive_DMA+0x38>
 800486e:	685c      	ldr	r4, [r3, #4]
 8004870:	0224      	lsls	r4, r4, #8
 8004872:	d507      	bpl.n	8004884 <HAL_UART_Receive_DMA+0x38>
 8004874:	e853 4f00 	ldrex	r4, [r3]
 8004878:	f044 6480 	orr.w	r4, r4, #67108864	@ 0x4000000
 800487c:	e843 4500 	strex	r5, r4, [r3]
 8004880:	2d00      	cmp	r5, #0
 8004882:	d1f7      	bne.n	8004874 <HAL_UART_Receive_DMA+0x28>
 8004884:	bc30      	pop	{r4, r5}
 8004886:	f7ff bf79 	b.w	800477c <UART_Start_Receive_DMA>
 800488a:	2002      	movs	r0, #2
 800488c:	bc30      	pop	{r4, r5}
 800488e:	4770      	bx	lr
 8004890:	2001      	movs	r0, #1
 8004892:	e7fb      	b.n	800488c <HAL_UART_Receive_DMA+0x40>
 8004894:	46002400 	.word	0x46002400

08004898 <UARTEx_SetNbDataToProcess>:
 8004898:	6e43      	ldr	r3, [r0, #100]	@ 0x64
 800489a:	b530      	push	{r4, r5, lr}
 800489c:	b92b      	cbnz	r3, 80048aa <UARTEx_SetNbDataToProcess+0x12>
 800489e:	2301      	movs	r3, #1
 80048a0:	f8a0 306a 	strh.w	r3, [r0, #106]	@ 0x6a
 80048a4:	f8a0 3068 	strh.w	r3, [r0, #104]	@ 0x68
 80048a8:	bd30      	pop	{r4, r5, pc}
 80048aa:	6803      	ldr	r3, [r0, #0]
 80048ac:	4d09      	ldr	r5, [pc, #36]	@ (80048d4 <UARTEx_SetNbDataToProcess+0x3c>)
 80048ae:	689a      	ldr	r2, [r3, #8]
 80048b0:	6899      	ldr	r1, [r3, #8]
 80048b2:	4c09      	ldr	r4, [pc, #36]	@ (80048d8 <UARTEx_SetNbDataToProcess+0x40>)
 80048b4:	0f49      	lsrs	r1, r1, #29
 80048b6:	5c6b      	ldrb	r3, [r5, r1]
 80048b8:	5c61      	ldrb	r1, [r4, r1]
 80048ba:	00db      	lsls	r3, r3, #3
 80048bc:	fbb3 f3f1 	udiv	r3, r3, r1
 80048c0:	f3c2 6242 	ubfx	r2, r2, #25, #3
 80048c4:	f8a0 306a 	strh.w	r3, [r0, #106]	@ 0x6a
 80048c8:	5cab      	ldrb	r3, [r5, r2]
 80048ca:	5ca2      	ldrb	r2, [r4, r2]
 80048cc:	00db      	lsls	r3, r3, #3
 80048ce:	fbb3 f3f2 	udiv	r3, r3, r2
 80048d2:	e7e7      	b.n	80048a4 <UARTEx_SetNbDataToProcess+0xc>
 80048d4:	08004aa4 	.word	0x08004aa4
 80048d8:	08004a9c 	.word	0x08004a9c

080048dc <HAL_UARTEx_DisableFifoMode>:
 80048dc:	f890 3084 	ldrb.w	r3, [r0, #132]	@ 0x84
 80048e0:	2b01      	cmp	r3, #1
 80048e2:	d014      	beq.n	800490e <HAL_UARTEx_DisableFifoMode+0x32>
 80048e4:	2324      	movs	r3, #36	@ 0x24
 80048e6:	6802      	ldr	r2, [r0, #0]
 80048e8:	f8c0 3088 	str.w	r3, [r0, #136]	@ 0x88
 80048ec:	6811      	ldr	r1, [r2, #0]
 80048ee:	6813      	ldr	r3, [r2, #0]
 80048f0:	f021 5100 	bic.w	r1, r1, #536870912	@ 0x20000000
 80048f4:	f023 0301 	bic.w	r3, r3, #1
 80048f8:	6013      	str	r3, [r2, #0]
 80048fa:	2300      	movs	r3, #0
 80048fc:	6643      	str	r3, [r0, #100]	@ 0x64
 80048fe:	6011      	str	r1, [r2, #0]
 8004900:	2220      	movs	r2, #32
 8004902:	f880 3084 	strb.w	r3, [r0, #132]	@ 0x84
 8004906:	f8c0 2088 	str.w	r2, [r0, #136]	@ 0x88
 800490a:	4618      	mov	r0, r3
 800490c:	4770      	bx	lr
 800490e:	2002      	movs	r0, #2
 8004910:	4770      	bx	lr

08004912 <HAL_UARTEx_SetTxFifoThreshold>:
 8004912:	b570      	push	{r4, r5, r6, lr}
 8004914:	f890 3084 	ldrb.w	r3, [r0, #132]	@ 0x84
 8004918:	4604      	mov	r4, r0
 800491a:	2b01      	cmp	r3, #1
 800491c:	d017      	beq.n	800494e <HAL_UARTEx_SetTxFifoThreshold+0x3c>
 800491e:	2324      	movs	r3, #36	@ 0x24
 8004920:	6805      	ldr	r5, [r0, #0]
 8004922:	f8c0 3088 	str.w	r3, [r0, #136]	@ 0x88
 8004926:	682e      	ldr	r6, [r5, #0]
 8004928:	682b      	ldr	r3, [r5, #0]
 800492a:	f023 0301 	bic.w	r3, r3, #1
 800492e:	602b      	str	r3, [r5, #0]
 8004930:	68ab      	ldr	r3, [r5, #8]
 8004932:	f023 4360 	bic.w	r3, r3, #3758096384	@ 0xe0000000
 8004936:	4319      	orrs	r1, r3
 8004938:	60a9      	str	r1, [r5, #8]
 800493a:	f7ff ffad 	bl	8004898 <UARTEx_SetNbDataToProcess>
 800493e:	2320      	movs	r3, #32
 8004940:	602e      	str	r6, [r5, #0]
 8004942:	f8c0 3088 	str.w	r3, [r0, #136]	@ 0x88
 8004946:	2000      	movs	r0, #0
 8004948:	f884 0084 	strb.w	r0, [r4, #132]	@ 0x84
 800494c:	bd70      	pop	{r4, r5, r6, pc}
 800494e:	2002      	movs	r0, #2
 8004950:	e7fc      	b.n	800494c <HAL_UARTEx_SetTxFifoThreshold+0x3a>

08004952 <HAL_UARTEx_SetRxFifoThreshold>:
 8004952:	b570      	push	{r4, r5, r6, lr}
 8004954:	f890 3084 	ldrb.w	r3, [r0, #132]	@ 0x84
 8004958:	4604      	mov	r4, r0
 800495a:	2b01      	cmp	r3, #1
 800495c:	d017      	beq.n	800498e <HAL_UARTEx_SetRxFifoThreshold+0x3c>
 800495e:	2324      	movs	r3, #36	@ 0x24
 8004960:	6805      	ldr	r5, [r0, #0]
 8004962:	f8c0 3088 	str.w	r3, [r0, #136]	@ 0x88
 8004966:	682e      	ldr	r6, [r5, #0]
 8004968:	682b      	ldr	r3, [r5, #0]
 800496a:	f023 0301 	bic.w	r3, r3, #1
 800496e:	602b      	str	r3, [r5, #0]
 8004970:	68ab      	ldr	r3, [r5, #8]
 8004972:	f023 6360 	bic.w	r3, r3, #234881024	@ 0xe000000
 8004976:	4319      	orrs	r1, r3
 8004978:	60a9      	str	r1, [r5, #8]
 800497a:	f7ff ff8d 	bl	8004898 <UARTEx_SetNbDataToProcess>
 800497e:	2320      	movs	r3, #32
 8004980:	602e      	str	r6, [r5, #0]
 8004982:	f8c0 3088 	str.w	r3, [r0, #136]	@ 0x88
 8004986:	2000      	movs	r0, #0
 8004988:	f884 0084 	strb.w	r0, [r4, #132]	@ 0x84
 800498c:	bd70      	pop	{r4, r5, r6, pc}
 800498e:	2002      	movs	r0, #2
 8004990:	e7fc      	b.n	800498c <HAL_UARTEx_SetRxFifoThreshold+0x3a>
	...

08004994 <_init>:
 8004994:	b5f8      	push	{r3, r4, r5, r6, r7, lr}
 8004996:	bf00      	nop
 8004998:	bcf8      	pop	{r3, r4, r5, r6, r7}
 800499a:	bc08      	pop	{r3}
 800499c:	469e      	mov	lr, r3
 800499e:	4770      	bx	lr

080049a0 <_fini>:
 80049a0:	b5f8      	push	{r3, r4, r5, r6, r7, lr}
 80049a2:	bf00      	nop
 80049a4:	bcf8      	pop	{r3, r4, r5, r6, r7}
 80049a6:	bc08      	pop	{r3}
 80049a8:	469e      	mov	lr, r3
 80049aa:	4770      	bx	lr
